
zephyr.elf:     file format elf32-littleriscv


Disassembly of section rom_start:

80000000 <__start>:
SECTION_FUNC(vectors, __start)
#if defined(CONFIG_RISCV_GP)
	/* Initialize global pointer */
	.option push
	.option norelax
	la gp, __global_pointer$
80000000:	0000a197          	auipc	gp,0xa
80000004:	94018193          	addi	gp,gp,-1728 # 80009940 <__global_pointer$>
#else
	/*
	 * Set mtvec (Machine Trap-Vector Base-Address Register)
	 * to _isr_wrapper.
	 */
	la t0, _isr_wrapper
80000008:	00000297          	auipc	t0,0x0
8000000c:	01428293          	addi	t0,t0,20 # 8000001c <_isr_wrapper>
#endif

	csrw mtvec, t0
80000010:	30529073          	csrw	mtvec,t0

	/* Jump to __reset */
	tail __reset
80000014:	0040006f          	j	80000018 <__reset>

Disassembly of section reset:

80000018 <__reset>:
	/*
	 * jump to __initialize
	 * use call opcode in case __initialize is far away.
	 * This will be dependent on linker.ld configuration.
	 */
	call __initialize
80000018:	519010ef          	jal	ra,80001d30 <__initialize>

Disassembly of section exceptions:

8000001c <_isr_wrapper>:
	csrrw sp, mscratch, sp
1:
#endif

	/* Save caller-saved registers on current thread stack. */
	addi sp, sp, -__z_arch_esf_t_SIZEOF
8000001c:	fb010113          	addi	sp,sp,-80
	DO_CALLER_SAVED(sr)		;
80000020:	00512223          	sw	t0,4(sp)
80000024:	00612423          	sw	t1,8(sp)
80000028:	00712623          	sw	t2,12(sp)
8000002c:	01c12823          	sw	t3,16(sp)
80000030:	01d12a23          	sw	t4,20(sp)
80000034:	01e12c23          	sw	t5,24(sp)
80000038:	01f12e23          	sw	t6,28(sp)
8000003c:	02a12023          	sw	a0,32(sp)
80000040:	02b12223          	sw	a1,36(sp)
80000044:	02c12423          	sw	a2,40(sp)
80000048:	02d12623          	sw	a3,44(sp)
8000004c:	02e12823          	sw	a4,48(sp)
80000050:	02f12a23          	sw	a5,52(sp)
80000054:	03012c23          	sw	a6,56(sp)
80000058:	03112e23          	sw	a7,60(sp)
8000005c:	00112023          	sw	ra,0(sp)

	/* Save s0 in the esf and load it with &_current_cpu. */
	sr s0, __z_arch_esf_t_s0_OFFSET(sp)
80000060:	04812423          	sw	s0,72(sp)
	GET_CURRENT_CPU(s0, t0)
80000064:	00007417          	auipc	s0,0x7
80000068:	c3c40413          	addi	s0,s0,-964 # 80006ca0 <_kernel>
	add t0, t0, tp, %tprel_add(is_user_mode)
	sb zero, %tprel_lo(is_user_mode)(t0)
#endif

	/* Save MEPC register */
	csrr t0, mepc
8000006c:	341022f3          	csrr	t0,mepc
	sr t0, __z_arch_esf_t_mepc_OFFSET(sp)
80000070:	04512023          	sw	t0,64(sp)

	/* Save MSTATUS register */
	csrr t2, mstatus
80000074:	300023f3          	csrr	t2,mstatus
	sr t2, __z_arch_esf_t_mstatus_OFFSET(sp)
80000078:	04712223          	sw	t2,68(sp)
	 * SOCs (like pulpino or riscv-qemu), the MSB is never set to indicate
	 * interrupt. Hence, check for interrupt/exception via the __soc_is_irq
	 * function (that needs to be implemented by each SOC). The result is
	 * returned via register a0 (1: interrupt, 0 exception)
	 */
	jal ra, __soc_is_irq
8000007c:	14c000ef          	jal	ra,800001c8 <__soc_is_irq>

	/* If a0 != 0, jump to is_interrupt */
	bnez a0, is_interrupt
80000080:	04051a63          	bnez	a0,800000d4 <is_interrupt>
	/*
	 * If the exception is the result of an ECALL, check whether to
	 * perform a context-switch or an IRQ offload. Otherwise call _Fault
	 * to report the exception.
	 */
	csrr t0, mcause
80000084:	342022f3          	csrr	t0,mcause
	li t2, SOC_MCAUSE_EXP_MASK
80000088:	800003b7          	lui	t2,0x80000
8000008c:	fff38393          	addi	t2,t2,-1 # 7fffffff <CONFIG_SYSTEM_WORKQUEUE_PRIORITY+0x80000000>
	and t0, t0, t2
80000090:	0072f2b3          	and	t0,t0,t2

	/*
	 * If mcause == SOC_MCAUSE_ECALL_EXP, handle system call from
	 * kernel thread.
	 */
	li t1, SOC_MCAUSE_ECALL_EXP
80000094:	00b00313          	li	t1,11
	beq t0, t1, is_kernel_syscall
80000098:	00628a63          	beq	t0,t1,800000ac <is_kernel_syscall>
	 * Stack pointer is pointing to a z_arch_esf_t structure, pass it
	 * to _Fault (via register a0).
	 * If _Fault shall return, set return address to
	 * no_reschedule to restore stack.
	 */
	mv a0, sp
8000009c:	00010513          	mv	a0,sp
	la ra, no_reschedule
800000a0:	00000097          	auipc	ra,0x0
800000a4:	0bc08093          	addi	ra,ra,188 # 8000015c <z_riscv_thread_start>
	tail _Fault
800000a8:	4310106f          	j	80001cd8 <_Fault>

800000ac <is_kernel_syscall>:
	 * again upon exiting the ISR.
	 *
	 * It's safe to always increment by 4, even with compressed
	 * instructions, because the ecall instruction is always 4 bytes.
	 */
	lr t0, __z_arch_esf_t_mepc_OFFSET(sp)
800000ac:	04012283          	lw	t0,64(sp)
	addi t0, t0, 4
800000b0:	00428293          	addi	t0,t0,4
	sr t0, __z_arch_esf_t_mepc_OFFSET(sp)
800000b4:	04512023          	sw	t0,64(sp)
	li t1, MSTATUS_MPRV
	csrs mstatus, t1
#endif

	/* Determine what to do. Operation code is in t0. */
	lr t0, __z_arch_esf_t_t0_OFFSET(sp)
800000b8:	00412283          	lw	t0,4(sp)

	.if RV_ECALL_RUNTIME_EXCEPT != 0; .err; .endif
	beqz t0, do_fault
800000bc:	00028663          	beqz	t0,800000c8 <do_fault>
	j reschedule
skip_schedule:
#endif

	/* default fault code is K_ERR_KERNEL_OOPS */
	li a0, 3
800000c0:	00300513          	li	a0,3
	j 1f
800000c4:	0080006f          	j	800000cc <do_fault+0x4>

800000c8 <do_fault>:

do_fault:
	/* Handle RV_ECALL_RUNTIME_EXCEPT. Retrieve reason in a0, esf in A1. */
	lr a0, __z_arch_esf_t_a0_OFFSET(sp)
800000c8:	02012503          	lw	a0,32(sp)
1:	mv a1, sp
800000cc:	00010593          	mv	a1,sp
	tail z_riscv_fatal_error
800000d0:	3fd0106f          	j	80001ccc <z_riscv_fatal_error>

800000d4 <is_interrupt>:
	csrs mstatus, t1
2:
#endif

	/* Increment _current_cpu->nested */
	lw t1, ___cpu_t_nested_OFFSET(s0)
800000d4:	00042303          	lw	t1,0(s0)
	addi t2, t1, 1
800000d8:	00130393          	addi	t2,t1,1
	sw t2, ___cpu_t_nested_OFFSET(s0)
800000dc:	00742023          	sw	t2,0(s0)
	bnez t1, on_irq_stack
800000e0:	00031a63          	bnez	t1,800000f4 <on_irq_stack>

	/* Switch to interrupt stack */
	mv t0, sp
800000e4:	00010293          	mv	t0,sp
	lr sp, ___cpu_t_irq_stack_OFFSET(s0)
800000e8:	00442103          	lw	sp,4(s0)

	/*
	 * Save thread stack pointer on interrupt stack
	 * In RISC-V, stack pointer needs to be 16-byte aligned
	 */
	addi sp, sp, -16
800000ec:	ff010113          	addi	sp,sp,-16
	sr t0, 0(sp)
800000f0:	00512023          	sw	t0,0(sp)

800000f4 <on_irq_stack>:
#ifdef CONFIG_TRACING_ISR
	call sys_trace_isr_enter
#endif

	/* Get IRQ causing interrupt */
	csrr a0, mcause
800000f4:	34202573          	csrr	a0,mcause
	li t0, SOC_MCAUSE_EXP_MASK
800000f8:	800002b7          	lui	t0,0x80000
800000fc:	fff28293          	addi	t0,t0,-1 # 7fffffff <CONFIG_SYSTEM_WORKQUEUE_PRIORITY+0x80000000>
	and a0, a0, t0
80000100:	00557533          	and	a0,a0,t0

	/*
	 * Clear pending IRQ generating the interrupt at SOC level
	 * Pass IRQ number to __soc_handle_irq via register a0
	 */
	jal ra, __soc_handle_irq
80000104:	0b4000ef          	jal	ra,800001b8 <__soc_handle_irq>

	/*
	 * Call corresponding registered function in _sw_isr_table.
	 * (table is 2-word wide, we should shift index accordingly)
	 */
	la t0, _sw_isr_table
80000108:	00006297          	auipc	t0,0x6
8000010c:	22028293          	addi	t0,t0,544 # 80006328 <_sw_isr_table>
	slli a0, a0, (RV_REGSHIFT + 1)
80000110:	00351513          	slli	a0,a0,0x3
	add t0, t0, a0
80000114:	00a282b3          	add	t0,t0,a0

	/* Load argument in a0 register */
	lr a0, 0(t0)
80000118:	0002a503          	lw	a0,0(t0)

	/* Load ISR function address in register t1 */
	lr t1, RV_REGSIZE(t0)
8000011c:	0042a303          	lw	t1,4(t0)

	/* Call ISR function */
	jalr ra, t1, 0
80000120:	000300e7          	jalr	t1

80000124 <irq_done>:
    call sys_trace_isr_exit
#endif

irq_done:
	/* Decrement _current_cpu->nested */
	lw t2, ___cpu_t_nested_OFFSET(s0)
80000124:	00042383          	lw	t2,0(s0)
	addi t2, t2, -1
80000128:	fff38393          	addi	t2,t2,-1
	sw t2, ___cpu_t_nested_OFFSET(s0)
8000012c:	00742023          	sw	t2,0(s0)
	bnez t2, no_reschedule
80000130:	02039663          	bnez	t2,8000015c <z_riscv_thread_start>

	/* nested count is back to 0: Return to thread stack */
	lr sp, 0(sp)
80000134:	00012103          	lw	sp,0(sp)

80000138 <check_reschedule>:
#endif

check_reschedule:

	/* Get pointer to current thread on this CPU */
	lr a1, ___cpu_t_current_OFFSET(s0)
80000138:	00842583          	lw	a1,8(s0)
	/*
	 * Get next thread to schedule with z_get_next_switch_handle().
	 * We pass it a NULL as we didn't save the whole thread context yet.
	 * If no scheduling is necessary then NULL will be returned.
	 */
	addi sp, sp, -16
8000013c:	ff010113          	addi	sp,sp,-16
	sr a1, 0(sp)
80000140:	00b12023          	sw	a1,0(sp)
	mv a0, zero
80000144:	00000513          	li	a0,0
	call z_get_next_switch_handle
80000148:	524030ef          	jal	ra,8000366c <z_get_next_switch_handle>
	lr a1, 0(sp)
8000014c:	00012583          	lw	a1,0(sp)
	addi sp, sp, 16
80000150:	01010113          	addi	sp,sp,16
	beqz a0, no_reschedule
80000154:	00050463          	beqz	a0,8000015c <z_riscv_thread_start>

80000158 <reschedule>:
	/*
	 * Perform context switch:
	 * a0 = new thread
	 * a1 = old thread
	 */
	call z_riscv_switch
80000158:	455010ef          	jal	ra,80001dac <z_riscv_switch>

8000015c <z_riscv_thread_start>:
	addi a0, sp, __z_arch_esf_t_soc_context_OFFSET
	jal ra, __soc_restore_context
#endif /* CONFIG_RISCV_SOC_CONTEXT_SAVE */

	/* Restore MEPC register */
	lr t0, __z_arch_esf_t_mepc_OFFSET(sp)
8000015c:	04012283          	lw	t0,64(sp)
	csrw mepc, t0
80000160:	34129073          	csrw	mepc,t0

	/* Restore MSTATUS register */
	lr t2, __z_arch_esf_t_mstatus_OFFSET(sp)
80000164:	04412383          	lw	t2,68(sp)
	csrrw t0, mstatus, t2
80000168:	300392f3          	csrrw	t0,mstatus,t2
	csrw mscratch, t0
1:
#endif

	/* Restore s0 (it is no longer ours) */
	lr s0, __z_arch_esf_t_s0_OFFSET(sp)
8000016c:	04812403          	lw	s0,72(sp)

	/* Restore caller-saved registers from thread stack */
	DO_CALLER_SAVED(lr)
80000170:	00412283          	lw	t0,4(sp)
80000174:	00812303          	lw	t1,8(sp)
80000178:	00c12383          	lw	t2,12(sp)
8000017c:	01012e03          	lw	t3,16(sp)
80000180:	01412e83          	lw	t4,20(sp)
80000184:	01812f03          	lw	t5,24(sp)
80000188:	01c12f83          	lw	t6,28(sp)
8000018c:	02012503          	lw	a0,32(sp)
80000190:	02412583          	lw	a1,36(sp)
80000194:	02812603          	lw	a2,40(sp)
80000198:	02c12683          	lw	a3,44(sp)
8000019c:	03012703          	lw	a4,48(sp)
800001a0:	03412783          	lw	a5,52(sp)
800001a4:	03812803          	lw	a6,56(sp)
800001a8:	03c12883          	lw	a7,60(sp)
800001ac:	00012083          	lw	ra,0(sp)
#ifdef CONFIG_USERSPACE
	/* retrieve saved stack pointer */
	lr sp, __z_arch_esf_t_sp_OFFSET(sp)
#else
	/* remove esf from the stack */
	addi sp, sp, __z_arch_esf_t_SIZEOF
800001b0:	05010113          	addi	sp,sp,80
#endif

	mret
800001b4:	30200073          	mret

800001b8 <__soc_handle_irq>:
 * SOC-specific function to handle pending IRQ number generating the interrupt.
 * Exception number is given as parameter via register a0.
 */
SECTION_FUNC(exception.other, __soc_handle_irq)
	/* Clear exception number from CSR mip register */
	li t1, 1
800001b8:	00100313          	li	t1,1
	sll t0, t1, a0
800001bc:	00a312b3          	sll	t0,t1,a0
	csrrc t1, mip, t0
800001c0:	3442b373          	csrrc	t1,mip,t0

	/* Return */
	ret
800001c4:	00008067          	ret

800001c8 <__soc_is_irq>:
 * return 1 (interrupt) or 0 (exception)
 *
 */
SECTION_FUNC(exception.other, __soc_is_irq)
	/* Read mcause and check if interrupt bit is set */
	csrr t0, mcause
800001c8:	342022f3          	csrr	t0,mcause
	li t1, SOC_MCAUSE_IRQ_MASK
800001cc:	80000337          	lui	t1,0x80000
	and t0, t0, t1
800001d0:	0062f2b3          	and	t0,t0,t1

	/* If interrupt bit is not set, return with 0 */
	addi a0, x0, 0
800001d4:	00000513          	li	a0,0
	beqz t0, not_interrupt
800001d8:	00028463          	beqz	t0,800001e0 <not_interrupt>
	addi a0, a0, 1
800001dc:	00150513          	addi	a0,a0,1

800001e0 <not_interrupt>:

not_interrupt:
	/* return */
	ret
800001e0:	00008067          	ret

Disassembly of section text:

800001e4 <__udivdi3>:
800001e4:	00050893          	mv	a7,a0
800001e8:	00058313          	mv	t1,a1
800001ec:	00060713          	mv	a4,a2
800001f0:	00050813          	mv	a6,a0
800001f4:	00058793          	mv	a5,a1
800001f8:	28069263          	bnez	a3,8000047c <__udivdi3+0x298>
800001fc:	800065b7          	lui	a1,0x80006
80000200:	53458593          	addi	a1,a1,1332 # 80006534 <CONFIG_SYSTEM_WORKQUEUE_PRIORITY+0x80006535>
80000204:	0ec37663          	bgeu	t1,a2,800002f0 <__udivdi3+0x10c>
80000208:	000106b7          	lui	a3,0x10
8000020c:	0cd67863          	bgeu	a2,a3,800002dc <__udivdi3+0xf8>
80000210:	10063693          	sltiu	a3,a2,256
80000214:	0016c693          	xori	a3,a3,1
80000218:	00369693          	slli	a3,a3,0x3
8000021c:	00d65533          	srl	a0,a2,a3
80000220:	00a585b3          	add	a1,a1,a0
80000224:	0005c583          	lbu	a1,0(a1)
80000228:	02000513          	li	a0,32
8000022c:	00d586b3          	add	a3,a1,a3
80000230:	40d505b3          	sub	a1,a0,a3
80000234:	00d50c63          	beq	a0,a3,8000024c <__udivdi3+0x68>
80000238:	00b317b3          	sll	a5,t1,a1
8000023c:	00d8d6b3          	srl	a3,a7,a3
80000240:	00b61733          	sll	a4,a2,a1
80000244:	00f6e7b3          	or	a5,a3,a5
80000248:	00b89833          	sll	a6,a7,a1
8000024c:	01075593          	srli	a1,a4,0x10
80000250:	02b7d333          	divu	t1,a5,a1
80000254:	01071613          	slli	a2,a4,0x10
80000258:	01065613          	srli	a2,a2,0x10
8000025c:	02b7f7b3          	remu	a5,a5,a1
80000260:	00030513          	mv	a0,t1
80000264:	026608b3          	mul	a7,a2,t1
80000268:	01079693          	slli	a3,a5,0x10
8000026c:	01085793          	srli	a5,a6,0x10
80000270:	00d7e7b3          	or	a5,a5,a3
80000274:	0117fe63          	bgeu	a5,a7,80000290 <__udivdi3+0xac>
80000278:	00f707b3          	add	a5,a4,a5
8000027c:	fff30513          	addi	a0,t1,-1 # 7fffffff <CONFIG_SYSTEM_WORKQUEUE_PRIORITY+0x80000000>
80000280:	00e7e863          	bltu	a5,a4,80000290 <__udivdi3+0xac>
80000284:	0117f663          	bgeu	a5,a7,80000290 <__udivdi3+0xac>
80000288:	ffe30513          	addi	a0,t1,-2
8000028c:	00e787b3          	add	a5,a5,a4
80000290:	411787b3          	sub	a5,a5,a7
80000294:	02b7d8b3          	divu	a7,a5,a1
80000298:	01081813          	slli	a6,a6,0x10
8000029c:	01085813          	srli	a6,a6,0x10
800002a0:	02b7f7b3          	remu	a5,a5,a1
800002a4:	031606b3          	mul	a3,a2,a7
800002a8:	01079793          	slli	a5,a5,0x10
800002ac:	00f86833          	or	a6,a6,a5
800002b0:	00088793          	mv	a5,a7
800002b4:	00d87c63          	bgeu	a6,a3,800002cc <__udivdi3+0xe8>
800002b8:	01070833          	add	a6,a4,a6
800002bc:	fff88793          	addi	a5,a7,-1
800002c0:	00e86663          	bltu	a6,a4,800002cc <__udivdi3+0xe8>
800002c4:	00d87463          	bgeu	a6,a3,800002cc <__udivdi3+0xe8>
800002c8:	ffe88793          	addi	a5,a7,-2
800002cc:	01051513          	slli	a0,a0,0x10
800002d0:	00f56533          	or	a0,a0,a5
800002d4:	00000593          	li	a1,0
800002d8:	00008067          	ret
800002dc:	01000537          	lui	a0,0x1000
800002e0:	01000693          	li	a3,16
800002e4:	f2a66ce3          	bltu	a2,a0,8000021c <__udivdi3+0x38>
800002e8:	01800693          	li	a3,24
800002ec:	f31ff06f          	j	8000021c <__udivdi3+0x38>
800002f0:	00000693          	li	a3,0
800002f4:	00060c63          	beqz	a2,8000030c <__udivdi3+0x128>
800002f8:	000107b7          	lui	a5,0x10
800002fc:	0cf67063          	bgeu	a2,a5,800003bc <__udivdi3+0x1d8>
80000300:	10063693          	sltiu	a3,a2,256
80000304:	0016c693          	xori	a3,a3,1
80000308:	00369693          	slli	a3,a3,0x3
8000030c:	00d657b3          	srl	a5,a2,a3
80000310:	00f585b3          	add	a1,a1,a5
80000314:	0005c783          	lbu	a5,0(a1)
80000318:	00d787b3          	add	a5,a5,a3
8000031c:	02000693          	li	a3,32
80000320:	40f685b3          	sub	a1,a3,a5
80000324:	0af69663          	bne	a3,a5,800003d0 <__udivdi3+0x1ec>
80000328:	40c307b3          	sub	a5,t1,a2
8000032c:	00100593          	li	a1,1
80000330:	01075893          	srli	a7,a4,0x10
80000334:	0317de33          	divu	t3,a5,a7
80000338:	01071613          	slli	a2,a4,0x10
8000033c:	01065613          	srli	a2,a2,0x10
80000340:	01085693          	srli	a3,a6,0x10
80000344:	0317f7b3          	remu	a5,a5,a7
80000348:	000e0513          	mv	a0,t3
8000034c:	03c60333          	mul	t1,a2,t3
80000350:	01079793          	slli	a5,a5,0x10
80000354:	00f6e7b3          	or	a5,a3,a5
80000358:	0067fe63          	bgeu	a5,t1,80000374 <__udivdi3+0x190>
8000035c:	00f707b3          	add	a5,a4,a5
80000360:	fffe0513          	addi	a0,t3,-1
80000364:	00e7e863          	bltu	a5,a4,80000374 <__udivdi3+0x190>
80000368:	0067f663          	bgeu	a5,t1,80000374 <__udivdi3+0x190>
8000036c:	ffee0513          	addi	a0,t3,-2
80000370:	00e787b3          	add	a5,a5,a4
80000374:	406787b3          	sub	a5,a5,t1
80000378:	0317d333          	divu	t1,a5,a7
8000037c:	01081813          	slli	a6,a6,0x10
80000380:	01085813          	srli	a6,a6,0x10
80000384:	0317f7b3          	remu	a5,a5,a7
80000388:	026606b3          	mul	a3,a2,t1
8000038c:	01079793          	slli	a5,a5,0x10
80000390:	00f86833          	or	a6,a6,a5
80000394:	00030793          	mv	a5,t1
80000398:	00d87c63          	bgeu	a6,a3,800003b0 <__udivdi3+0x1cc>
8000039c:	01070833          	add	a6,a4,a6
800003a0:	fff30793          	addi	a5,t1,-1
800003a4:	00e86663          	bltu	a6,a4,800003b0 <__udivdi3+0x1cc>
800003a8:	00d87463          	bgeu	a6,a3,800003b0 <__udivdi3+0x1cc>
800003ac:	ffe30793          	addi	a5,t1,-2
800003b0:	01051513          	slli	a0,a0,0x10
800003b4:	00f56533          	or	a0,a0,a5
800003b8:	00008067          	ret
800003bc:	010007b7          	lui	a5,0x1000
800003c0:	01000693          	li	a3,16
800003c4:	f4f664e3          	bltu	a2,a5,8000030c <__udivdi3+0x128>
800003c8:	01800693          	li	a3,24
800003cc:	f41ff06f          	j	8000030c <__udivdi3+0x128>
800003d0:	00b61733          	sll	a4,a2,a1
800003d4:	00f356b3          	srl	a3,t1,a5
800003d8:	01075513          	srli	a0,a4,0x10
800003dc:	00b31333          	sll	t1,t1,a1
800003e0:	00f8d7b3          	srl	a5,a7,a5
800003e4:	0067e7b3          	or	a5,a5,t1
800003e8:	02a6d333          	divu	t1,a3,a0
800003ec:	01071613          	slli	a2,a4,0x10
800003f0:	01065613          	srli	a2,a2,0x10
800003f4:	00b89833          	sll	a6,a7,a1
800003f8:	02a6f6b3          	remu	a3,a3,a0
800003fc:	026608b3          	mul	a7,a2,t1
80000400:	01069593          	slli	a1,a3,0x10
80000404:	0107d693          	srli	a3,a5,0x10
80000408:	00b6e6b3          	or	a3,a3,a1
8000040c:	00030593          	mv	a1,t1
80000410:	0116fe63          	bgeu	a3,a7,8000042c <__udivdi3+0x248>
80000414:	00d706b3          	add	a3,a4,a3
80000418:	fff30593          	addi	a1,t1,-1
8000041c:	00e6e863          	bltu	a3,a4,8000042c <__udivdi3+0x248>
80000420:	0116f663          	bgeu	a3,a7,8000042c <__udivdi3+0x248>
80000424:	ffe30593          	addi	a1,t1,-2
80000428:	00e686b3          	add	a3,a3,a4
8000042c:	411686b3          	sub	a3,a3,a7
80000430:	02a6d8b3          	divu	a7,a3,a0
80000434:	01079793          	slli	a5,a5,0x10
80000438:	0107d793          	srli	a5,a5,0x10
8000043c:	02a6f6b3          	remu	a3,a3,a0
80000440:	03160633          	mul	a2,a2,a7
80000444:	01069693          	slli	a3,a3,0x10
80000448:	00d7e7b3          	or	a5,a5,a3
8000044c:	00088693          	mv	a3,a7
80000450:	00c7fe63          	bgeu	a5,a2,8000046c <__udivdi3+0x288>
80000454:	00f707b3          	add	a5,a4,a5
80000458:	fff88693          	addi	a3,a7,-1
8000045c:	00e7e863          	bltu	a5,a4,8000046c <__udivdi3+0x288>
80000460:	00c7f663          	bgeu	a5,a2,8000046c <__udivdi3+0x288>
80000464:	ffe88693          	addi	a3,a7,-2
80000468:	00e787b3          	add	a5,a5,a4
8000046c:	01059593          	slli	a1,a1,0x10
80000470:	40c787b3          	sub	a5,a5,a2
80000474:	00d5e5b3          	or	a1,a1,a3
80000478:	eb9ff06f          	j	80000330 <__udivdi3+0x14c>
8000047c:	18d5e663          	bltu	a1,a3,80000608 <__udivdi3+0x424>
80000480:	000107b7          	lui	a5,0x10
80000484:	04f6f463          	bgeu	a3,a5,800004cc <__udivdi3+0x2e8>
80000488:	1006b713          	sltiu	a4,a3,256
8000048c:	00174713          	xori	a4,a4,1
80000490:	00371713          	slli	a4,a4,0x3
80000494:	800067b7          	lui	a5,0x80006
80000498:	00e6d5b3          	srl	a1,a3,a4
8000049c:	53478793          	addi	a5,a5,1332 # 80006534 <CONFIG_SYSTEM_WORKQUEUE_PRIORITY+0x80006535>
800004a0:	00b787b3          	add	a5,a5,a1
800004a4:	0007c783          	lbu	a5,0(a5)
800004a8:	00e787b3          	add	a5,a5,a4
800004ac:	02000713          	li	a4,32
800004b0:	40f705b3          	sub	a1,a4,a5
800004b4:	02f71663          	bne	a4,a5,800004e0 <__udivdi3+0x2fc>
800004b8:	00100513          	li	a0,1
800004bc:	e066eee3          	bltu	a3,t1,800002d8 <__udivdi3+0xf4>
800004c0:	00c8b533          	sltu	a0,a7,a2
800004c4:	00154513          	xori	a0,a0,1
800004c8:	00008067          	ret
800004cc:	010007b7          	lui	a5,0x1000
800004d0:	01000713          	li	a4,16
800004d4:	fcf6e0e3          	bltu	a3,a5,80000494 <__udivdi3+0x2b0>
800004d8:	01800713          	li	a4,24
800004dc:	fb9ff06f          	j	80000494 <__udivdi3+0x2b0>
800004e0:	00f65733          	srl	a4,a2,a5
800004e4:	00b696b3          	sll	a3,a3,a1
800004e8:	00d766b3          	or	a3,a4,a3
800004ec:	00f35733          	srl	a4,t1,a5
800004f0:	00b31333          	sll	t1,t1,a1
800004f4:	00f8d7b3          	srl	a5,a7,a5
800004f8:	0067e7b3          	or	a5,a5,t1
800004fc:	0106d313          	srli	t1,a3,0x10
80000500:	02675eb3          	divu	t4,a4,t1
80000504:	01069813          	slli	a6,a3,0x10
80000508:	01085813          	srli	a6,a6,0x10
8000050c:	00b61633          	sll	a2,a2,a1
80000510:	02677733          	remu	a4,a4,t1
80000514:	03d80e33          	mul	t3,a6,t4
80000518:	01071513          	slli	a0,a4,0x10
8000051c:	0107d713          	srli	a4,a5,0x10
80000520:	00a76733          	or	a4,a4,a0
80000524:	000e8513          	mv	a0,t4
80000528:	01c77e63          	bgeu	a4,t3,80000544 <__udivdi3+0x360>
8000052c:	00e68733          	add	a4,a3,a4
80000530:	fffe8513          	addi	a0,t4,-1
80000534:	00d76863          	bltu	a4,a3,80000544 <__udivdi3+0x360>
80000538:	01c77663          	bgeu	a4,t3,80000544 <__udivdi3+0x360>
8000053c:	ffee8513          	addi	a0,t4,-2
80000540:	00d70733          	add	a4,a4,a3
80000544:	41c70733          	sub	a4,a4,t3
80000548:	02675e33          	divu	t3,a4,t1
8000054c:	01079793          	slli	a5,a5,0x10
80000550:	0107d793          	srli	a5,a5,0x10
80000554:	02677733          	remu	a4,a4,t1
80000558:	03c80833          	mul	a6,a6,t3
8000055c:	01071713          	slli	a4,a4,0x10
80000560:	00e7e7b3          	or	a5,a5,a4
80000564:	000e0713          	mv	a4,t3
80000568:	0107fe63          	bgeu	a5,a6,80000584 <__udivdi3+0x3a0>
8000056c:	00f687b3          	add	a5,a3,a5
80000570:	fffe0713          	addi	a4,t3,-1
80000574:	00d7e863          	bltu	a5,a3,80000584 <__udivdi3+0x3a0>
80000578:	0107f663          	bgeu	a5,a6,80000584 <__udivdi3+0x3a0>
8000057c:	ffee0713          	addi	a4,t3,-2
80000580:	00d787b3          	add	a5,a5,a3
80000584:	01051513          	slli	a0,a0,0x10
80000588:	00010e37          	lui	t3,0x10
8000058c:	00e56533          	or	a0,a0,a4
80000590:	fffe0693          	addi	a3,t3,-1 # ffff <CONFIG_SYS_CLOCK_HW_CYCLES_PER_SEC+0x7fff>
80000594:	00d57733          	and	a4,a0,a3
80000598:	410787b3          	sub	a5,a5,a6
8000059c:	00d676b3          	and	a3,a2,a3
800005a0:	01055813          	srli	a6,a0,0x10
800005a4:	01065613          	srli	a2,a2,0x10
800005a8:	02d70333          	mul	t1,a4,a3
800005ac:	02d806b3          	mul	a3,a6,a3
800005b0:	02c70733          	mul	a4,a4,a2
800005b4:	02c80833          	mul	a6,a6,a2
800005b8:	00d70633          	add	a2,a4,a3
800005bc:	01035713          	srli	a4,t1,0x10
800005c0:	00c70733          	add	a4,a4,a2
800005c4:	00d77463          	bgeu	a4,a3,800005cc <__udivdi3+0x3e8>
800005c8:	01c80833          	add	a6,a6,t3
800005cc:	01075693          	srli	a3,a4,0x10
800005d0:	010686b3          	add	a3,a3,a6
800005d4:	02d7e663          	bltu	a5,a3,80000600 <__udivdi3+0x41c>
800005d8:	ced79ee3          	bne	a5,a3,800002d4 <__udivdi3+0xf0>
800005dc:	000107b7          	lui	a5,0x10
800005e0:	fff78793          	addi	a5,a5,-1 # ffff <CONFIG_SYS_CLOCK_HW_CYCLES_PER_SEC+0x7fff>
800005e4:	00f77733          	and	a4,a4,a5
800005e8:	01071713          	slli	a4,a4,0x10
800005ec:	00f37333          	and	t1,t1,a5
800005f0:	00b898b3          	sll	a7,a7,a1
800005f4:	00670733          	add	a4,a4,t1
800005f8:	00000593          	li	a1,0
800005fc:	cce8fee3          	bgeu	a7,a4,800002d8 <__udivdi3+0xf4>
80000600:	fff50513          	addi	a0,a0,-1 # ffffff <CONFIG_SRAM_SIZE+0xefffff>
80000604:	cd1ff06f          	j	800002d4 <__udivdi3+0xf0>
80000608:	00000593          	li	a1,0
8000060c:	00000513          	li	a0,0
80000610:	00008067          	ret

80000614 <__umoddi3>:
80000614:	00060813          	mv	a6,a2
80000618:	00050793          	mv	a5,a0
8000061c:	00058713          	mv	a4,a1
80000620:	20069663          	bnez	a3,8000082c <__umoddi3+0x218>
80000624:	800068b7          	lui	a7,0x80006
80000628:	53488893          	addi	a7,a7,1332 # 80006534 <CONFIG_SYSTEM_WORKQUEUE_PRIORITY+0x80006535>
8000062c:	0cc5fc63          	bgeu	a1,a2,80000704 <__umoddi3+0xf0>
80000630:	000106b7          	lui	a3,0x10
80000634:	0ad67e63          	bgeu	a2,a3,800006f0 <__umoddi3+0xdc>
80000638:	10063693          	sltiu	a3,a2,256
8000063c:	0016c693          	xori	a3,a3,1
80000640:	00369693          	slli	a3,a3,0x3
80000644:	00d65333          	srl	t1,a2,a3
80000648:	006888b3          	add	a7,a7,t1
8000064c:	0008c883          	lbu	a7,0(a7)
80000650:	02000313          	li	t1,32
80000654:	00d886b3          	add	a3,a7,a3
80000658:	40d308b3          	sub	a7,t1,a3
8000065c:	00d30c63          	beq	t1,a3,80000674 <__umoddi3+0x60>
80000660:	01159733          	sll	a4,a1,a7
80000664:	00d556b3          	srl	a3,a0,a3
80000668:	01161833          	sll	a6,a2,a7
8000066c:	00e6e733          	or	a4,a3,a4
80000670:	011517b3          	sll	a5,a0,a7
80000674:	01085613          	srli	a2,a6,0x10
80000678:	02c756b3          	divu	a3,a4,a2
8000067c:	01081513          	slli	a0,a6,0x10
80000680:	01055513          	srli	a0,a0,0x10
80000684:	02c77733          	remu	a4,a4,a2
80000688:	02a686b3          	mul	a3,a3,a0
8000068c:	01071593          	slli	a1,a4,0x10
80000690:	0107d713          	srli	a4,a5,0x10
80000694:	00b76733          	or	a4,a4,a1
80000698:	00d77a63          	bgeu	a4,a3,800006ac <__umoddi3+0x98>
8000069c:	00e80733          	add	a4,a6,a4
800006a0:	01076663          	bltu	a4,a6,800006ac <__umoddi3+0x98>
800006a4:	00d77463          	bgeu	a4,a3,800006ac <__umoddi3+0x98>
800006a8:	01070733          	add	a4,a4,a6
800006ac:	40d70733          	sub	a4,a4,a3
800006b0:	02c756b3          	divu	a3,a4,a2
800006b4:	02c77733          	remu	a4,a4,a2
800006b8:	02a686b3          	mul	a3,a3,a0
800006bc:	01079793          	slli	a5,a5,0x10
800006c0:	01071713          	slli	a4,a4,0x10
800006c4:	0107d793          	srli	a5,a5,0x10
800006c8:	00e7e7b3          	or	a5,a5,a4
800006cc:	00d7fa63          	bgeu	a5,a3,800006e0 <__umoddi3+0xcc>
800006d0:	00f807b3          	add	a5,a6,a5
800006d4:	0107e663          	bltu	a5,a6,800006e0 <__umoddi3+0xcc>
800006d8:	00d7f463          	bgeu	a5,a3,800006e0 <__umoddi3+0xcc>
800006dc:	010787b3          	add	a5,a5,a6
800006e0:	40d787b3          	sub	a5,a5,a3
800006e4:	0117d533          	srl	a0,a5,a7
800006e8:	00000593          	li	a1,0
800006ec:	00008067          	ret
800006f0:	01000337          	lui	t1,0x1000
800006f4:	01000693          	li	a3,16
800006f8:	f46666e3          	bltu	a2,t1,80000644 <__umoddi3+0x30>
800006fc:	01800693          	li	a3,24
80000700:	f45ff06f          	j	80000644 <__umoddi3+0x30>
80000704:	00000693          	li	a3,0
80000708:	00060c63          	beqz	a2,80000720 <__umoddi3+0x10c>
8000070c:	00010737          	lui	a4,0x10
80000710:	06e67e63          	bgeu	a2,a4,8000078c <__umoddi3+0x178>
80000714:	10063693          	sltiu	a3,a2,256
80000718:	0016c693          	xori	a3,a3,1
8000071c:	00369693          	slli	a3,a3,0x3
80000720:	00d65733          	srl	a4,a2,a3
80000724:	00e888b3          	add	a7,a7,a4
80000728:	0008c703          	lbu	a4,0(a7)
8000072c:	00d70733          	add	a4,a4,a3
80000730:	02000693          	li	a3,32
80000734:	40e688b3          	sub	a7,a3,a4
80000738:	06e69463          	bne	a3,a4,800007a0 <__umoddi3+0x18c>
8000073c:	40c58733          	sub	a4,a1,a2
80000740:	01085593          	srli	a1,a6,0x10
80000744:	02b75633          	divu	a2,a4,a1
80000748:	01081513          	slli	a0,a6,0x10
8000074c:	01055513          	srli	a0,a0,0x10
80000750:	0107d693          	srli	a3,a5,0x10
80000754:	02b77733          	remu	a4,a4,a1
80000758:	02a60633          	mul	a2,a2,a0
8000075c:	01071713          	slli	a4,a4,0x10
80000760:	00e6e733          	or	a4,a3,a4
80000764:	00c77a63          	bgeu	a4,a2,80000778 <__umoddi3+0x164>
80000768:	00e80733          	add	a4,a6,a4
8000076c:	01076663          	bltu	a4,a6,80000778 <__umoddi3+0x164>
80000770:	00c77463          	bgeu	a4,a2,80000778 <__umoddi3+0x164>
80000774:	01070733          	add	a4,a4,a6
80000778:	40c70733          	sub	a4,a4,a2
8000077c:	02b756b3          	divu	a3,a4,a1
80000780:	02b77733          	remu	a4,a4,a1
80000784:	02a686b3          	mul	a3,a3,a0
80000788:	f35ff06f          	j	800006bc <__umoddi3+0xa8>
8000078c:	01000737          	lui	a4,0x1000
80000790:	01000693          	li	a3,16
80000794:	f8e666e3          	bltu	a2,a4,80000720 <__umoddi3+0x10c>
80000798:	01800693          	li	a3,24
8000079c:	f85ff06f          	j	80000720 <__umoddi3+0x10c>
800007a0:	01161833          	sll	a6,a2,a7
800007a4:	00e5d6b3          	srl	a3,a1,a4
800007a8:	011517b3          	sll	a5,a0,a7
800007ac:	011595b3          	sll	a1,a1,a7
800007b0:	00e55733          	srl	a4,a0,a4
800007b4:	01085513          	srli	a0,a6,0x10
800007b8:	00b76733          	or	a4,a4,a1
800007bc:	02a6d5b3          	divu	a1,a3,a0
800007c0:	01081313          	slli	t1,a6,0x10
800007c4:	01035313          	srli	t1,t1,0x10
800007c8:	02a6f6b3          	remu	a3,a3,a0
800007cc:	026585b3          	mul	a1,a1,t1
800007d0:	01069613          	slli	a2,a3,0x10
800007d4:	01075693          	srli	a3,a4,0x10
800007d8:	00c6e6b3          	or	a3,a3,a2
800007dc:	00b6fa63          	bgeu	a3,a1,800007f0 <__umoddi3+0x1dc>
800007e0:	00d806b3          	add	a3,a6,a3
800007e4:	0106e663          	bltu	a3,a6,800007f0 <__umoddi3+0x1dc>
800007e8:	00b6f463          	bgeu	a3,a1,800007f0 <__umoddi3+0x1dc>
800007ec:	010686b3          	add	a3,a3,a6
800007f0:	40b686b3          	sub	a3,a3,a1
800007f4:	02a6d633          	divu	a2,a3,a0
800007f8:	01071713          	slli	a4,a4,0x10
800007fc:	01075713          	srli	a4,a4,0x10
80000800:	02a6f6b3          	remu	a3,a3,a0
80000804:	02660633          	mul	a2,a2,t1
80000808:	01069693          	slli	a3,a3,0x10
8000080c:	00d76733          	or	a4,a4,a3
80000810:	00c77a63          	bgeu	a4,a2,80000824 <__umoddi3+0x210>
80000814:	00e80733          	add	a4,a6,a4
80000818:	01076663          	bltu	a4,a6,80000824 <__umoddi3+0x210>
8000081c:	00c77463          	bgeu	a4,a2,80000824 <__umoddi3+0x210>
80000820:	01070733          	add	a4,a4,a6
80000824:	40c70733          	sub	a4,a4,a2
80000828:	f19ff06f          	j	80000740 <__umoddi3+0x12c>
8000082c:	1cd5e463          	bltu	a1,a3,800009f4 <__umoddi3+0x3e0>
80000830:	00010837          	lui	a6,0x10
80000834:	0506fe63          	bgeu	a3,a6,80000890 <__umoddi3+0x27c>
80000838:	1006b813          	sltiu	a6,a3,256
8000083c:	00184813          	xori	a6,a6,1
80000840:	00381813          	slli	a6,a6,0x3
80000844:	800068b7          	lui	a7,0x80006
80000848:	0106d333          	srl	t1,a3,a6
8000084c:	53488893          	addi	a7,a7,1332 # 80006534 <CONFIG_SYSTEM_WORKQUEUE_PRIORITY+0x80006535>
80000850:	006888b3          	add	a7,a7,t1
80000854:	0008c883          	lbu	a7,0(a7)
80000858:	02000313          	li	t1,32
8000085c:	010888b3          	add	a7,a7,a6
80000860:	41130833          	sub	a6,t1,a7
80000864:	05131063          	bne	t1,a7,800008a4 <__umoddi3+0x290>
80000868:	00b6e463          	bltu	a3,a1,80000870 <__umoddi3+0x25c>
8000086c:	00c56c63          	bltu	a0,a2,80000884 <__umoddi3+0x270>
80000870:	40c50633          	sub	a2,a0,a2
80000874:	40d586b3          	sub	a3,a1,a3
80000878:	00c53733          	sltu	a4,a0,a2
8000087c:	00060793          	mv	a5,a2
80000880:	40e68733          	sub	a4,a3,a4
80000884:	00078513          	mv	a0,a5
80000888:	00070593          	mv	a1,a4
8000088c:	00008067          	ret
80000890:	010008b7          	lui	a7,0x1000
80000894:	01000813          	li	a6,16
80000898:	fb16e6e3          	bltu	a3,a7,80000844 <__umoddi3+0x230>
8000089c:	01800813          	li	a6,24
800008a0:	fa5ff06f          	j	80000844 <__umoddi3+0x230>
800008a4:	011657b3          	srl	a5,a2,a7
800008a8:	010696b3          	sll	a3,a3,a6
800008ac:	00d7e6b3          	or	a3,a5,a3
800008b0:	0115d733          	srl	a4,a1,a7
800008b4:	0106de13          	srli	t3,a3,0x10
800008b8:	03c75f33          	divu	t5,a4,t3
800008bc:	01069313          	slli	t1,a3,0x10
800008c0:	01035313          	srli	t1,t1,0x10
800008c4:	010597b3          	sll	a5,a1,a6
800008c8:	011555b3          	srl	a1,a0,a7
800008cc:	00f5e5b3          	or	a1,a1,a5
800008d0:	0105d793          	srli	a5,a1,0x10
800008d4:	01061633          	sll	a2,a2,a6
800008d8:	01051533          	sll	a0,a0,a6
800008dc:	03c77733          	remu	a4,a4,t3
800008e0:	03e30eb3          	mul	t4,t1,t5
800008e4:	01071713          	slli	a4,a4,0x10
800008e8:	00e7e7b3          	or	a5,a5,a4
800008ec:	000f0713          	mv	a4,t5
800008f0:	01d7fe63          	bgeu	a5,t4,8000090c <__umoddi3+0x2f8>
800008f4:	00f687b3          	add	a5,a3,a5
800008f8:	ffff0713          	addi	a4,t5,-1
800008fc:	00d7e863          	bltu	a5,a3,8000090c <__umoddi3+0x2f8>
80000900:	01d7f663          	bgeu	a5,t4,8000090c <__umoddi3+0x2f8>
80000904:	ffef0713          	addi	a4,t5,-2
80000908:	00d787b3          	add	a5,a5,a3
8000090c:	41d787b3          	sub	a5,a5,t4
80000910:	03c7deb3          	divu	t4,a5,t3
80000914:	01059593          	slli	a1,a1,0x10
80000918:	0105d593          	srli	a1,a1,0x10
8000091c:	03c7f7b3          	remu	a5,a5,t3
80000920:	000e8e13          	mv	t3,t4
80000924:	03d30333          	mul	t1,t1,t4
80000928:	01079793          	slli	a5,a5,0x10
8000092c:	00f5e5b3          	or	a1,a1,a5
80000930:	0065fe63          	bgeu	a1,t1,8000094c <__umoddi3+0x338>
80000934:	00b685b3          	add	a1,a3,a1
80000938:	fffe8e13          	addi	t3,t4,-1
8000093c:	00d5e863          	bltu	a1,a3,8000094c <__umoddi3+0x338>
80000940:	0065f663          	bgeu	a1,t1,8000094c <__umoddi3+0x338>
80000944:	ffee8e13          	addi	t3,t4,-2
80000948:	00d585b3          	add	a1,a1,a3
8000094c:	01071793          	slli	a5,a4,0x10
80000950:	00010f37          	lui	t5,0x10
80000954:	01c7e7b3          	or	a5,a5,t3
80000958:	406585b3          	sub	a1,a1,t1
8000095c:	ffff0313          	addi	t1,t5,-1 # ffff <CONFIG_SYS_CLOCK_HW_CYCLES_PER_SEC+0x7fff>
80000960:	0067f733          	and	a4,a5,t1
80000964:	01065e13          	srli	t3,a2,0x10
80000968:	0107d793          	srli	a5,a5,0x10
8000096c:	00667333          	and	t1,a2,t1
80000970:	02670eb3          	mul	t4,a4,t1
80000974:	02678333          	mul	t1,a5,t1
80000978:	03c70733          	mul	a4,a4,t3
8000097c:	03c787b3          	mul	a5,a5,t3
80000980:	00670e33          	add	t3,a4,t1
80000984:	010ed713          	srli	a4,t4,0x10
80000988:	01c70733          	add	a4,a4,t3
8000098c:	00677463          	bgeu	a4,t1,80000994 <__umoddi3+0x380>
80000990:	01e787b3          	add	a5,a5,t5
80000994:	01075313          	srli	t1,a4,0x10
80000998:	00f307b3          	add	a5,t1,a5
8000099c:	00010337          	lui	t1,0x10
800009a0:	fff30313          	addi	t1,t1,-1 # ffff <CONFIG_SYS_CLOCK_HW_CYCLES_PER_SEC+0x7fff>
800009a4:	00677733          	and	a4,a4,t1
800009a8:	01071713          	slli	a4,a4,0x10
800009ac:	006efeb3          	and	t4,t4,t1
800009b0:	01d70733          	add	a4,a4,t4
800009b4:	00f5e663          	bltu	a1,a5,800009c0 <__umoddi3+0x3ac>
800009b8:	00f59e63          	bne	a1,a5,800009d4 <__umoddi3+0x3c0>
800009bc:	00e57c63          	bgeu	a0,a4,800009d4 <__umoddi3+0x3c0>
800009c0:	40c70633          	sub	a2,a4,a2
800009c4:	00c73333          	sltu	t1,a4,a2
800009c8:	00d306b3          	add	a3,t1,a3
800009cc:	00060713          	mv	a4,a2
800009d0:	40d787b3          	sub	a5,a5,a3
800009d4:	40e50733          	sub	a4,a0,a4
800009d8:	00e53533          	sltu	a0,a0,a4
800009dc:	40f585b3          	sub	a1,a1,a5
800009e0:	40a585b3          	sub	a1,a1,a0
800009e4:	011598b3          	sll	a7,a1,a7
800009e8:	01075733          	srl	a4,a4,a6
800009ec:	00e8e533          	or	a0,a7,a4
800009f0:	0105d5b3          	srl	a1,a1,a6
800009f4:	00008067          	ret

800009f8 <memset>:
800009f8:	00050313          	mv	t1,a0
800009fc:	00060a63          	beqz	a2,80000a10 <memset+0x18>
80000a00:	00b30023          	sb	a1,0(t1)
80000a04:	fff60613          	addi	a2,a2,-1
80000a08:	00130313          	addi	t1,t1,1
80000a0c:	fe061ae3          	bnez	a2,80000a00 <memset+0x8>
80000a10:	00008067          	ret

80000a14 <main>:
#include <stdio.h>
void main()
{
80000a14:	ff010113          	addi	sp,sp,-16
80000a18:	00112623          	sw	ra,12(sp)
	printf("OHOOO");
80000a1c:	80006537          	lui	a0,0x80006
80000a20:	63450513          	addi	a0,a0,1588 # 80006634 <CONFIG_SYSTEM_WORKQUEUE_PRIORITY+0x80006635>
80000a24:	7b9030ef          	jal	ra,800049dc <iprintf>
	__asm__("ADDI x0, x0, 0");
80000a28:	00000013          	nop

}
80000a2c:	00c12083          	lw	ra,12(sp)
80000a30:	01010113          	addi	sp,sp,16
80000a34:	00008067          	ret

80000a38 <arch_printk_char_out>:
{
	ARG_UNUSED(c);

	/* do nothing */
	return 0;
}
80000a38:	00000513          	li	a0,0
80000a3c:	00008067          	ret

80000a40 <char_out>:

	return c;
}

static int char_out(int c, void *ctx_p)
{
80000a40:	ff010113          	addi	sp,sp,-16
80000a44:	00112623          	sw	ra,12(sp)
	(void) ctx_p;
	return _char_out(c);
80000a48:	800097b7          	lui	a5,0x80009
80000a4c:	1407a783          	lw	a5,320(a5) # 80009140 <CONFIG_SYSTEM_WORKQUEUE_PRIORITY+0x80009141>
80000a50:	000780e7          	jalr	a5
}
80000a54:	00c12083          	lw	ra,12(sp)
80000a58:	01010113          	addi	sp,sp,16
80000a5c:	00008067          	ret

80000a60 <__printk_hook_install>:
	_char_out = fn;
80000a60:	800097b7          	lui	a5,0x80009
80000a64:	14a7a023          	sw	a0,320(a5) # 80009140 <CONFIG_SYSTEM_WORKQUEUE_PRIORITY+0x80009141>
}
80000a68:	00008067          	ret

80000a6c <vprintk>:

void vprintk(const char *fmt, va_list ap)
{
80000a6c:	ff010113          	addi	sp,sp,-16
80000a70:	00112623          	sw	ra,12(sp)
80000a74:	00050613          	mv	a2,a0
80000a78:	00058693          	mv	a3,a1
int cbvprintf(cbprintf_cb out, void *ctx, const char *format, va_list ap);
#else
static inline
int cbvprintf(cbprintf_cb out, void *ctx, const char *format, va_list ap)
{
	return z_cbvprintf_impl(out, ctx, format, ap, 0);
80000a7c:	00000713          	li	a4,0
80000a80:	00000593          	li	a1,0
80000a84:	80001537          	lui	a0,0x80001
80000a88:	a4050513          	addi	a0,a0,-1472 # 80000a40 <CONFIG_SYSTEM_WORKQUEUE_PRIORITY+0x80000a41>
80000a8c:	1a1000ef          	jal	ra,8000142c <z_cbvprintf_impl>

#ifdef CONFIG_PRINTK_SYNC
		k_spin_unlock(&lock, key);
#endif
	}
}
80000a90:	00c12083          	lw	ra,12(sp)
80000a94:	01010113          	addi	sp,sp,16
80000a98:	00008067          	ret

80000a9c <printk>:
 *
 * @param fmt formatted string to output
 */

void printk(const char *fmt, ...)
{
80000a9c:	fc010113          	addi	sp,sp,-64
80000aa0:	00112e23          	sw	ra,28(sp)
80000aa4:	02b12223          	sw	a1,36(sp)
80000aa8:	02c12423          	sw	a2,40(sp)
80000aac:	02d12623          	sw	a3,44(sp)
80000ab0:	02e12823          	sw	a4,48(sp)
80000ab4:	02f12a23          	sw	a5,52(sp)
80000ab8:	03012c23          	sw	a6,56(sp)
80000abc:	03112e23          	sw	a7,60(sp)
	va_list ap;

	va_start(ap, fmt);
80000ac0:	02410593          	addi	a1,sp,36
80000ac4:	00b12623          	sw	a1,12(sp)

	vprintk(fmt, ap);
80000ac8:	fa5ff0ef          	jal	ra,80000a6c <vprintk>

	va_end(ap);
}
80000acc:	01c12083          	lw	ra,28(sp)
80000ad0:	04010113          	addi	sp,sp,64
80000ad4:	00008067          	ret

80000ad8 <z_thread_entry>:
 * This routine does not return, and is marked as such so the compiler won't
 * generate preamble code that is only used by functions that actually return.
 */
FUNC_NORETURN void z_thread_entry(k_thread_entry_t entry,
				 void *p1, void *p2, void *p3)
{
80000ad8:	ff010113          	addi	sp,sp,-16
80000adc:	00112623          	sw	ra,12(sp)
80000ae0:	00050793          	mv	a5,a0
80000ae4:	00058513          	mv	a0,a1
80000ae8:	00060593          	mv	a1,a2
#ifdef CONFIG_THREAD_LOCAL_STORAGE
	z_tls_current = z_current_get();
#endif
	entry(p1, p2, p3);
80000aec:	00068613          	mv	a2,a3
80000af0:	000780e7          	jalr	a5
	if (z_syscall_trap()) {
		return (k_tid_t) arch_syscall_invoke0(K_SYSCALL_Z_CURRENT_GET);
	}
#endif
	compiler_barrier();
	return z_impl_z_current_get();
80000af4:	61c030ef          	jal	ra,80004110 <z_impl_z_current_get>
		(void) arch_syscall_invoke1(parm0.x, K_SYSCALL_K_THREAD_ABORT);
		return;
	}
#endif
	compiler_barrier();
	z_impl_k_thread_abort(thread);
80000af8:	6cc030ef          	jal	ra,800041c4 <z_impl_k_thread_abort>

80000afc <extract_decimal>:
 * the referenced text.
 *
 * @return the decoded integer value.
 */
static size_t extract_decimal(const char **str)
{
80000afc:	00050613          	mv	a2,a0
	const char *sp = *str;
80000b00:	00052703          	lw	a4,0(a0)
	size_t val = 0;
80000b04:	00000513          	li	a0,0

	while (isdigit((int)(unsigned char)*sp)) {
80000b08:	01c0006f          	j	80000b24 <extract_decimal+0x28>
		val = 10U * val + *sp++ - '0';
80000b0c:	00251793          	slli	a5,a0,0x2
80000b10:	00a787b3          	add	a5,a5,a0
80000b14:	00179793          	slli	a5,a5,0x1
80000b18:	00170713          	addi	a4,a4,1 # 1000001 <CONFIG_SRAM_SIZE+0xf00001>
80000b1c:	00d787b3          	add	a5,a5,a3
80000b20:	fd078513          	addi	a0,a5,-48
	while (isdigit((int)(unsigned char)*sp)) {
80000b24:	00074683          	lbu	a3,0(a4)
80000b28:	800077b7          	lui	a5,0x80007
80000b2c:	95178793          	addi	a5,a5,-1711 # 80006951 <CONFIG_SYSTEM_WORKQUEUE_PRIORITY+0x80006952>
80000b30:	00f687b3          	add	a5,a3,a5
80000b34:	0007c783          	lbu	a5,0(a5)
80000b38:	0047f793          	andi	a5,a5,4
80000b3c:	fc0798e3          	bnez	a5,80000b0c <extract_decimal+0x10>
	}
	*str = sp;
80000b40:	00e62023          	sw	a4,0(a2)
	return val;
}
80000b44:	00008067          	ret

80000b48 <extract_flags>:
 *
 * @return a pointer the first character that follows the flags.
 */
static inline const char *extract_flags(struct conversion *conv,
					const char *sp)
{
80000b48:	00050613          	mv	a2,a0
80000b4c:	00058513          	mv	a0,a1
	bool loop = true;
80000b50:	00100693          	li	a3,1
80000b54:	0640006f          	j	80000bb8 <extract_flags+0x70>

	do {
		switch (*sp) {
		case '-':
			conv->flag_dash = true;
80000b58:	00065783          	lhu	a5,0(a2)
80000b5c:	0047e793          	ori	a5,a5,4
80000b60:	00f61023          	sh	a5,0(a2)
			conv->flag_zero = true;
			break;
		default:
			loop = false;
		}
		if (loop) {
80000b64:	04068863          	beqz	a3,80000bb4 <extract_flags+0x6c>
			++sp;
80000b68:	00150513          	addi	a0,a0,1
80000b6c:	0480006f          	j	80000bb4 <extract_flags+0x6c>
			conv->flag_plus = true;
80000b70:	00065783          	lhu	a5,0(a2)
80000b74:	0087e793          	ori	a5,a5,8
80000b78:	00f61023          	sh	a5,0(a2)
			break;
80000b7c:	fe9ff06f          	j	80000b64 <extract_flags+0x1c>
			conv->flag_space = true;
80000b80:	00065783          	lhu	a5,0(a2)
80000b84:	0107e793          	ori	a5,a5,16
80000b88:	00f61023          	sh	a5,0(a2)
			break;
80000b8c:	fd9ff06f          	j	80000b64 <extract_flags+0x1c>
			conv->flag_hash = true;
80000b90:	00065783          	lhu	a5,0(a2)
80000b94:	0207e793          	ori	a5,a5,32
80000b98:	00f61023          	sh	a5,0(a2)
			break;
80000b9c:	fc9ff06f          	j	80000b64 <extract_flags+0x1c>
			conv->flag_zero = true;
80000ba0:	00065783          	lhu	a5,0(a2)
80000ba4:	0407e793          	ori	a5,a5,64
80000ba8:	00f61023          	sh	a5,0(a2)
			break;
80000bac:	fb9ff06f          	j	80000b64 <extract_flags+0x1c>
		switch (*sp) {
80000bb0:	00000693          	li	a3,0
		}
	} while (loop);
80000bb4:	02068863          	beqz	a3,80000be4 <extract_flags+0x9c>
		switch (*sp) {
80000bb8:	00054783          	lbu	a5,0(a0)
80000bbc:	fe078793          	addi	a5,a5,-32
80000bc0:	0ff7f593          	zext.b	a1,a5
80000bc4:	01000713          	li	a4,16
80000bc8:	feb764e3          	bltu	a4,a1,80000bb0 <extract_flags+0x68>
80000bcc:	00259793          	slli	a5,a1,0x2
80000bd0:	80006737          	lui	a4,0x80006
80000bd4:	63c70713          	addi	a4,a4,1596 # 8000663c <CONFIG_SYSTEM_WORKQUEUE_PRIORITY+0x8000663d>
80000bd8:	00e787b3          	add	a5,a5,a4
80000bdc:	0007a783          	lw	a5,0(a5)
80000be0:	00078067          	jr	a5

	/* zero && dash => !zero */
	if (conv->flag_zero && conv->flag_dash) {
80000be4:	00062783          	lw	a5,0(a2)
80000be8:	0447f793          	andi	a5,a5,68
80000bec:	04400713          	li	a4,68
80000bf0:	00e78463          	beq	a5,a4,80000bf8 <extract_flags+0xb0>
	}

	/* space && plus => !plus, handled in emitter code */

	return sp;
}
80000bf4:	00008067          	ret
		conv->flag_zero = false;
80000bf8:	00065783          	lhu	a5,0(a2)
80000bfc:	fbf7f793          	andi	a5,a5,-65
80000c00:	00f61023          	sh	a5,0(a2)
80000c04:	ff1ff06f          	j	80000bf4 <extract_flags+0xac>

80000c08 <extract_width>:
 *
 * @return a pointer the first character that follows the width.
 */
static inline const char *extract_width(struct conversion *conv,
					const char *sp)
{
80000c08:	fe010113          	addi	sp,sp,-32
80000c0c:	00112e23          	sw	ra,28(sp)
80000c10:	00812c23          	sw	s0,24(sp)
80000c14:	00912a23          	sw	s1,20(sp)
80000c18:	00050413          	mv	s0,a0
80000c1c:	00b12623          	sw	a1,12(sp)
	conv->width_present = true;
80000c20:	00055783          	lhu	a5,0(a0)
80000c24:	0807e793          	ori	a5,a5,128
80000c28:	00f51023          	sh	a5,0(a0)

	if (*sp == '*') {
80000c2c:	00058493          	mv	s1,a1
80000c30:	0005c703          	lbu	a4,0(a1)
80000c34:	02a00793          	li	a5,42
80000c38:	06f70463          	beq	a4,a5,80000ca0 <extract_width+0x98>
		conv->width_star = true;
		return ++sp;
	}

	const char *wp = sp;
	size_t width = extract_decimal(&sp);
80000c3c:	00c10513          	addi	a0,sp,12
80000c40:	ebdff0ef          	jal	ra,80000afc <extract_decimal>

	if (sp != wp) {
80000c44:	00c12783          	lw	a5,12(sp)
80000c48:	04f48063          	beq	s1,a5,80000c88 <extract_width+0x80>
		conv->width_present = true;
80000c4c:	00045783          	lhu	a5,0(s0)
80000c50:	0807e793          	ori	a5,a5,128
80000c54:	00f41023          	sh	a5,0(s0)
		conv->width_value = width;
80000c58:	00a42223          	sw	a0,4(s0)
		conv->unsupported |= ((conv->width_value < 0)
80000c5c:	00042783          	lw	a5,0(s0)
80000c60:	0017d793          	srli	a5,a5,0x1
80000c64:	0017f793          	andi	a5,a5,1
				      || (width != (size_t)conv->width_value));
80000c68:	04054863          	bltz	a0,80000cb8 <extract_width+0xb0>
80000c6c:	00000713          	li	a4,0
		conv->unsupported |= ((conv->width_value < 0)
80000c70:	00e7e7b3          	or	a5,a5,a4
80000c74:	00179793          	slli	a5,a5,0x1
80000c78:	00045703          	lhu	a4,0(s0)
80000c7c:	ffd77713          	andi	a4,a4,-3
80000c80:	00f767b3          	or	a5,a4,a5
80000c84:	00f41023          	sh	a5,0(s0)
	}

	return sp;
80000c88:	00c12503          	lw	a0,12(sp)
}
80000c8c:	01c12083          	lw	ra,28(sp)
80000c90:	01812403          	lw	s0,24(sp)
80000c94:	01412483          	lw	s1,20(sp)
80000c98:	02010113          	addi	sp,sp,32
80000c9c:	00008067          	ret
		conv->width_star = true;
80000ca0:	00055783          	lhu	a5,0(a0)
80000ca4:	1007e793          	ori	a5,a5,256
80000ca8:	00f51023          	sh	a5,0(a0)
		return ++sp;
80000cac:	00158513          	addi	a0,a1,1
80000cb0:	00a12623          	sw	a0,12(sp)
80000cb4:	fd9ff06f          	j	80000c8c <extract_width+0x84>
				      || (width != (size_t)conv->width_value));
80000cb8:	00100713          	li	a4,1
80000cbc:	fb5ff06f          	j	80000c70 <extract_width+0x68>

80000cc0 <extract_prec>:
 *
 * @return a pointer the first character that follows the precision.
 */
static inline const char *extract_prec(struct conversion *conv,
				       const char *sp)
{
80000cc0:	fe010113          	addi	sp,sp,-32
80000cc4:	00112e23          	sw	ra,28(sp)
80000cc8:	00812c23          	sw	s0,24(sp)
80000ccc:	00b12623          	sw	a1,12(sp)
	conv->prec_present = (*sp == '.');
80000cd0:	0005c703          	lbu	a4,0(a1)
80000cd4:	fd270713          	addi	a4,a4,-46
80000cd8:	00173693          	seqz	a3,a4
80000cdc:	00969693          	slli	a3,a3,0x9
80000ce0:	00055783          	lhu	a5,0(a0)
80000ce4:	dff7f793          	andi	a5,a5,-513
80000ce8:	00d7e7b3          	or	a5,a5,a3
80000cec:	00f51023          	sh	a5,0(a0)

	if (!conv->prec_present) {
80000cf0:	06071663          	bnez	a4,80000d5c <extract_prec+0x9c>
80000cf4:	00050413          	mv	s0,a0
		return sp;
	}
	++sp;
80000cf8:	00c12783          	lw	a5,12(sp)
80000cfc:	00178713          	addi	a4,a5,1
80000d00:	00e12623          	sw	a4,12(sp)

	if (*sp == '*') {
80000d04:	0017c703          	lbu	a4,1(a5)
80000d08:	02a00793          	li	a5,42
80000d0c:	04f70c63          	beq	a4,a5,80000d64 <extract_prec+0xa4>
		conv->prec_star = true;
		return ++sp;
	}

	size_t prec = extract_decimal(&sp);
80000d10:	00c10513          	addi	a0,sp,12
80000d14:	de9ff0ef          	jal	ra,80000afc <extract_decimal>

	conv->prec_value = prec;
80000d18:	00a42423          	sw	a0,8(s0)
	conv->unsupported |= ((conv->prec_value < 0)
80000d1c:	00042783          	lw	a5,0(s0)
80000d20:	0017d793          	srli	a5,a5,0x1
80000d24:	0017f793          	andi	a5,a5,1
			      || (prec != (size_t)conv->prec_value));
80000d28:	04054c63          	bltz	a0,80000d80 <extract_prec+0xc0>
80000d2c:	00000713          	li	a4,0
	conv->unsupported |= ((conv->prec_value < 0)
80000d30:	00e7e7b3          	or	a5,a5,a4
80000d34:	00179793          	slli	a5,a5,0x1
80000d38:	00045703          	lhu	a4,0(s0)
80000d3c:	ffd77713          	andi	a4,a4,-3
80000d40:	00f767b3          	or	a5,a4,a5
80000d44:	00f41023          	sh	a5,0(s0)

	return sp;
80000d48:	00c12503          	lw	a0,12(sp)
}
80000d4c:	01c12083          	lw	ra,28(sp)
80000d50:	01812403          	lw	s0,24(sp)
80000d54:	02010113          	addi	sp,sp,32
80000d58:	00008067          	ret
		return sp;
80000d5c:	00058513          	mv	a0,a1
80000d60:	fedff06f          	j	80000d4c <extract_prec+0x8c>
		conv->prec_star = true;
80000d64:	00055783          	lhu	a5,0(a0)
80000d68:	4007e793          	ori	a5,a5,1024
80000d6c:	00f51023          	sh	a5,0(a0)
		return ++sp;
80000d70:	00c12503          	lw	a0,12(sp)
80000d74:	00150513          	addi	a0,a0,1
80000d78:	00a12623          	sw	a0,12(sp)
80000d7c:	fd1ff06f          	j	80000d4c <extract_prec+0x8c>
			      || (prec != (size_t)conv->prec_value));
80000d80:	00100713          	li	a4,1
80000d84:	fadff06f          	j	80000d30 <extract_prec+0x70>

80000d88 <extract_length>:
 *
 * @return a pointer the first character that follows the precision.
 */
static inline const char *extract_length(struct conversion *conv,
					 const char *sp)
{
80000d88:	00050613          	mv	a2,a0
	switch (*sp) {
80000d8c:	0005c783          	lbu	a5,0(a1)
80000d90:	fb478793          	addi	a5,a5,-76
80000d94:	0ff7f693          	zext.b	a3,a5
80000d98:	02e00713          	li	a4,46
80000d9c:	16d76a63          	bltu	a4,a3,80000f10 <extract_length+0x188>
80000da0:	00269793          	slli	a5,a3,0x2
80000da4:	80006737          	lui	a4,0x80006
80000da8:	68070713          	addi	a4,a4,1664 # 80006680 <CONFIG_SYSTEM_WORKQUEUE_PRIORITY+0x80006681>
80000dac:	00e787b3          	add	a5,a5,a4
80000db0:	0007a783          	lw	a5,0(a5)
80000db4:	00078067          	jr	a5
	case 'h':
		if (*++sp == 'h') {
80000db8:	00158513          	addi	a0,a1,1
80000dbc:	0015c703          	lbu	a4,1(a1)
80000dc0:	06800793          	li	a5,104
80000dc4:	02f70263          	beq	a4,a5,80000de8 <extract_length+0x60>
			conv->length_mod = LENGTH_HH;
			++sp;
		} else {
			conv->length_mod = LENGTH_H;
80000dc8:	00065783          	lhu	a5,0(a2)
80000dcc:	ffff8737          	lui	a4,0xffff8
80000dd0:	7ff70713          	addi	a4,a4,2047 # ffff87ff <CONFIG_SYSTEM_WORKQUEUE_PRIORITY+0xffff8800>
80000dd4:	00e7f7b3          	and	a5,a5,a4
80000dd8:	00001737          	lui	a4,0x1
80000ddc:	00e7e7b3          	or	a5,a5,a4
80000de0:	00f61023          	sh	a5,0(a2)
80000de4:	00008067          	ret
			conv->length_mod = LENGTH_HH;
80000de8:	00065783          	lhu	a5,0(a2)
80000dec:	ffff8737          	lui	a4,0xffff8
80000df0:	7ff70713          	addi	a4,a4,2047 # ffff87ff <CONFIG_SYSTEM_WORKQUEUE_PRIORITY+0xffff8800>
80000df4:	00e7f7b3          	and	a5,a5,a4
80000df8:	00001737          	lui	a4,0x1
80000dfc:	80070713          	addi	a4,a4,-2048 # 800 <CONFIG_NEWLIB_LIBC_MIN_REQUIRED_HEAP_SIZE>
80000e00:	00e7e7b3          	or	a5,a5,a4
80000e04:	00f61023          	sh	a5,0(a2)
			++sp;
80000e08:	00258513          	addi	a0,a1,2
80000e0c:	00008067          	ret
		}
		break;
	case 'l':
		if (*++sp == 'l') {
80000e10:	00158513          	addi	a0,a1,1
80000e14:	0015c703          	lbu	a4,1(a1)
80000e18:	06c00793          	li	a5,108
80000e1c:	02f70463          	beq	a4,a5,80000e44 <extract_length+0xbc>
			conv->length_mod = LENGTH_LL;
			++sp;
		} else {
			conv->length_mod = LENGTH_L;
80000e20:	00065783          	lhu	a5,0(a2)
80000e24:	ffff8737          	lui	a4,0xffff8
80000e28:	7ff70713          	addi	a4,a4,2047 # ffff87ff <CONFIG_SYSTEM_WORKQUEUE_PRIORITY+0xffff8800>
80000e2c:	00e7f7b3          	and	a5,a5,a4
80000e30:	00002737          	lui	a4,0x2
80000e34:	80070713          	addi	a4,a4,-2048 # 1800 <CONFIG_ISR_STACK_SIZE+0x800>
80000e38:	00e7e7b3          	or	a5,a5,a4
80000e3c:	00f61023          	sh	a5,0(a2)
80000e40:	00008067          	ret
			conv->length_mod = LENGTH_LL;
80000e44:	00065783          	lhu	a5,0(a2)
80000e48:	ffff8737          	lui	a4,0xffff8
80000e4c:	7ff70713          	addi	a4,a4,2047 # ffff87ff <CONFIG_SYSTEM_WORKQUEUE_PRIORITY+0xffff8800>
80000e50:	00e7f7b3          	and	a5,a5,a4
80000e54:	00002737          	lui	a4,0x2
80000e58:	00e7e7b3          	or	a5,a5,a4
80000e5c:	00f61023          	sh	a5,0(a2)
			++sp;
80000e60:	00258513          	addi	a0,a1,2
80000e64:	00008067          	ret
		}
		break;
	case 'j':
		conv->length_mod = LENGTH_J;
80000e68:	00055783          	lhu	a5,0(a0)
80000e6c:	ffff8737          	lui	a4,0xffff8
80000e70:	7ff70713          	addi	a4,a4,2047 # ffff87ff <CONFIG_SYSTEM_WORKQUEUE_PRIORITY+0xffff8800>
80000e74:	00e7f7b3          	and	a5,a5,a4
80000e78:	00003737          	lui	a4,0x3
80000e7c:	80070713          	addi	a4,a4,-2048 # 2800 <__kernel_ram_size+0x1b0>
80000e80:	00e7e7b3          	or	a5,a5,a4
80000e84:	00f51023          	sh	a5,0(a0)
		++sp;
80000e88:	00158513          	addi	a0,a1,1
		break;
80000e8c:	00008067          	ret
	case 'z':
		conv->length_mod = LENGTH_Z;
80000e90:	00055783          	lhu	a5,0(a0)
80000e94:	ffff8737          	lui	a4,0xffff8
80000e98:	7ff70713          	addi	a4,a4,2047 # ffff87ff <CONFIG_SYSTEM_WORKQUEUE_PRIORITY+0xffff8800>
80000e9c:	00e7f7b3          	and	a5,a5,a4
80000ea0:	00003737          	lui	a4,0x3
80000ea4:	00e7e7b3          	or	a5,a5,a4
80000ea8:	00f51023          	sh	a5,0(a0)
		++sp;
80000eac:	00158513          	addi	a0,a1,1
		break;
80000eb0:	00008067          	ret
	case 't':
		conv->length_mod = LENGTH_T;
80000eb4:	00055783          	lhu	a5,0(a0)
80000eb8:	ffff8737          	lui	a4,0xffff8
80000ebc:	7ff70713          	addi	a4,a4,2047 # ffff87ff <CONFIG_SYSTEM_WORKQUEUE_PRIORITY+0xffff8800>
80000ec0:	00e7f7b3          	and	a5,a5,a4
80000ec4:	00004737          	lui	a4,0x4
80000ec8:	80070713          	addi	a4,a4,-2048 # 3800 <__kernel_ram_size+0x11b0>
80000ecc:	00e7e7b3          	or	a5,a5,a4
80000ed0:	00f51023          	sh	a5,0(a0)
		++sp;
80000ed4:	00158513          	addi	a0,a1,1
		break;
80000ed8:	00008067          	ret
	case 'L':
		conv->length_mod = LENGTH_UPPER_L;
80000edc:	00055783          	lhu	a5,0(a0)
80000ee0:	ffff8737          	lui	a4,0xffff8
80000ee4:	7ff70713          	addi	a4,a4,2047 # ffff87ff <CONFIG_SYSTEM_WORKQUEUE_PRIORITY+0xffff8800>
80000ee8:	00e7f7b3          	and	a5,a5,a4
80000eec:	00004737          	lui	a4,0x4
80000ef0:	00e7e7b3          	or	a5,a5,a4
80000ef4:	00f51023          	sh	a5,0(a0)
		++sp;
80000ef8:	00158513          	addi	a0,a1,1

		/* We recognize and consume these, but can't format
		 * them.
		 */
		conv->unsupported = true;
80000efc:	01079793          	slli	a5,a5,0x10
80000f00:	0107d793          	srli	a5,a5,0x10
80000f04:	0027e793          	ori	a5,a5,2
80000f08:	00f61023          	sh	a5,0(a2)
		break;
80000f0c:	00008067          	ret
	default:
		conv->length_mod = LENGTH_NONE;
80000f10:	00065783          	lhu	a5,0(a2)
80000f14:	ffff8737          	lui	a4,0xffff8
80000f18:	7ff70713          	addi	a4,a4,2047 # ffff87ff <CONFIG_SYSTEM_WORKQUEUE_PRIORITY+0xffff8800>
80000f1c:	00e7f7b3          	and	a5,a5,a4
80000f20:	00f61023          	sh	a5,0(a2)
		break;
80000f24:	00058513          	mv	a0,a1
	}
	return sp;
}
80000f28:	00008067          	ret

80000f2c <extract_specifier>:
 *
 * @return a pointer the first character that follows the specifier.
 */
static inline const char *extract_specifier(struct conversion *conv,
					    const char *sp)
{
80000f2c:	00050713          	mv	a4,a0
	bool unsupported = false;

	conv->specifier = *sp++;
80000f30:	00158513          	addi	a0,a1,1
80000f34:	0005c783          	lbu	a5,0(a1)
80000f38:	00f701a3          	sb	a5,3(a4)

	switch (conv->specifier) {
80000f3c:	07800693          	li	a3,120
80000f40:	04f6ea63          	bltu	a3,a5,80000f94 <extract_specifier+0x68>
80000f44:	06e00693          	li	a3,110
80000f48:	08d7fa63          	bgeu	a5,a3,80000fdc <extract_specifier+0xb0>
80000f4c:	06900693          	li	a3,105
80000f50:	04f6e263          	bltu	a3,a5,80000f94 <extract_specifier+0x68>
80000f54:	05800693          	li	a3,88
80000f58:	04d7e863          	bltu	a5,a3,80000fa8 <extract_specifier+0x7c>
80000f5c:	fa878613          	addi	a2,a5,-88
80000f60:	00100693          	li	a3,1
80000f64:	00c696b3          	sll	a3,a3,a2
80000f68:	0000e637          	lui	a2,0xe
80000f6c:	20060613          	addi	a2,a2,512 # e200 <CONFIG_SYS_CLOCK_HW_CYCLES_PER_SEC+0x6200>
80000f70:	00c6f633          	and	a2,a3,a2
80000f74:	04061863          	bnez	a2,80000fc4 <extract_specifier+0x98>
80000f78:	00001637          	lui	a2,0x1
80000f7c:	80160613          	addi	a2,a2,-2047 # 801 <CONFIG_NEWLIB_LIBC_MIN_REQUIRED_HEAP_SIZE+0x1>
80000f80:	00c6f633          	and	a2,a3,a2
80000f84:	10061863          	bnez	a2,80001094 <extract_specifier+0x168>
80000f88:	00021637          	lui	a2,0x21
80000f8c:	00c6f6b3          	and	a3,a3,a2
80000f90:	0a069463          	bnez	a3,80001038 <extract_specifier+0x10c>
			unsupported = true;
		}
		break;

	default:
		conv->invalid = true;
80000f94:	00075783          	lhu	a5,0(a4)
80000f98:	0017e793          	ori	a5,a5,1
80000f9c:	00f71023          	sh	a5,0(a4)
	bool unsupported = false;
80000fa0:	00000793          	li	a5,0
		break;
80000fa4:	0c80006f          	j	8000106c <extract_specifier+0x140>
	switch (conv->specifier) {
80000fa8:	04100693          	li	a3,65
80000fac:	00d78c63          	beq	a5,a3,80000fc4 <extract_specifier+0x98>
80000fb0:	fed7e2e3          	bltu	a5,a3,80000f94 <extract_specifier+0x68>
80000fb4:	fbb78793          	addi	a5,a5,-69
80000fb8:	0ff7f793          	zext.b	a5,a5
80000fbc:	00200693          	li	a3,2
80000fc0:	fcf6eae3          	bltu	a3,a5,80000f94 <extract_specifier+0x68>
		conv->specifier_cat = SPECIFIER_FP;
80000fc4:	00274783          	lbu	a5,2(a4)
80000fc8:	ff87f793          	andi	a5,a5,-8
80000fcc:	0047e793          	ori	a5,a5,4
80000fd0:	00f70123          	sb	a5,2(a4)
			unsupported = true;
80000fd4:	00100793          	li	a5,1
			break;
80000fd8:	0940006f          	j	8000106c <extract_specifier+0x140>
	switch (conv->specifier) {
80000fdc:	f9278613          	addi	a2,a5,-110
80000fe0:	00100693          	li	a3,1
80000fe4:	00c696b3          	sll	a3,a3,a2
80000fe8:	4826f613          	andi	a2,a3,1154
80000fec:	00c035b3          	snez	a1,a2
80000ff0:	0a061263          	bnez	a2,80001094 <extract_specifier+0x168>
80000ff4:	0246f613          	andi	a2,a3,36
80000ff8:	00c037b3          	snez	a5,a2
80000ffc:	0c061a63          	bnez	a2,800010d0 <extract_specifier+0x1a4>
80001000:	0016f693          	andi	a3,a3,1
80001004:	f80688e3          	beqz	a3,80000f94 <extract_specifier+0x68>
		conv->specifier_cat = SPECIFIER_PTR;
80001008:	00274603          	lbu	a2,2(a4)
8000100c:	ff867613          	andi	a2,a2,-8
80001010:	00366613          	ori	a2,a2,3
80001014:	00c70123          	sb	a2,2(a4)
		if (conv->length_mod == LENGTH_UPPER_L) {
80001018:	00075603          	lhu	a2,0(a4)
8000101c:	000085b7          	lui	a1,0x8
80001020:	80058593          	addi	a1,a1,-2048 # 7800 <__rom_region_size+0xcb8>
80001024:	00b67633          	and	a2,a2,a1
80001028:	000045b7          	lui	a1,0x4
8000102c:	04b61063          	bne	a2,a1,8000106c <extract_specifier+0x140>
			unsupported = true;
80001030:	00068793          	mv	a5,a3
80001034:	0380006f          	j	8000106c <extract_specifier+0x140>
		conv->specifier_cat = SPECIFIER_SINT;
80001038:	00274683          	lbu	a3,2(a4)
8000103c:	ff86f693          	andi	a3,a3,-8
80001040:	0016e693          	ori	a3,a3,1
80001044:	00d70123          	sb	a3,2(a4)
		if (conv->length_mod == LENGTH_UPPER_L) {
80001048:	00075683          	lhu	a3,0(a4)
8000104c:	00008637          	lui	a2,0x8
80001050:	80060613          	addi	a2,a2,-2048 # 7800 <__rom_region_size+0xcb8>
80001054:	00c6f6b3          	and	a3,a3,a2
80001058:	00004637          	lui	a2,0x4
8000105c:	04c68663          	beq	a3,a2,800010a8 <extract_specifier+0x17c>
		if (conv->specifier == 'c') {
80001060:	06300693          	li	a3,99
80001064:	04d78a63          	beq	a5,a3,800010b8 <extract_specifier+0x18c>
	bool unsupported = false;
80001068:	00000793          	li	a5,0
	}

	conv->unsupported |= unsupported;
8000106c:	00072683          	lw	a3,0(a4)
80001070:	0016d693          	srli	a3,a3,0x1
80001074:	0016f693          	andi	a3,a3,1
80001078:	00d7e7b3          	or	a5,a5,a3
8000107c:	00179793          	slli	a5,a5,0x1
80001080:	00075683          	lhu	a3,0(a4)
80001084:	ffd6f693          	andi	a3,a3,-3
80001088:	00f6e7b3          	or	a5,a3,a5
8000108c:	00f71023          	sh	a5,0(a4)

	return sp;
}
80001090:	00008067          	ret
		conv->specifier_cat = SPECIFIER_UINT;
80001094:	00274683          	lbu	a3,2(a4)
80001098:	ff86f693          	andi	a3,a3,-8
8000109c:	0026e693          	ori	a3,a3,2
800010a0:	00d70123          	sb	a3,2(a4)
800010a4:	fa5ff06f          	j	80001048 <extract_specifier+0x11c>
			conv->invalid = true;
800010a8:	00075683          	lhu	a3,0(a4)
800010ac:	0016e693          	ori	a3,a3,1
800010b0:	00d71023          	sh	a3,0(a4)
800010b4:	fadff06f          	j	80001060 <extract_specifier+0x134>
			unsupported = (conv->length_mod != LENGTH_NONE);
800010b8:	00075783          	lhu	a5,0(a4)
800010bc:	000086b7          	lui	a3,0x8
800010c0:	80068693          	addi	a3,a3,-2048 # 7800 <__rom_region_size+0xcb8>
800010c4:	00d7f7b3          	and	a5,a5,a3
800010c8:	00f037b3          	snez	a5,a5
800010cc:	fa1ff06f          	j	8000106c <extract_specifier+0x140>
		conv->specifier_cat = SPECIFIER_PTR;
800010d0:	00274683          	lbu	a3,2(a4)
800010d4:	ff86f693          	andi	a3,a3,-8
800010d8:	0036e693          	ori	a3,a3,3
800010dc:	00d70123          	sb	a3,2(a4)
		if (conv->length_mod != LENGTH_NONE) {
800010e0:	00075683          	lhu	a3,0(a4)
800010e4:	00008637          	lui	a2,0x8
800010e8:	80060613          	addi	a2,a2,-2048 # 7800 <__rom_region_size+0xcb8>
800010ec:	00c6f6b3          	and	a3,a3,a2
800010f0:	f6069ee3          	bnez	a3,8000106c <extract_specifier+0x140>
	bool unsupported = false;
800010f4:	00058793          	mv	a5,a1
800010f8:	f75ff06f          	j	8000106c <extract_specifier+0x140>

800010fc <extract_conversion>:
 *
 * @return pointer to the first character that follows the specification.
 */
static inline const char *extract_conversion(struct conversion *conv,
					     const char *sp)
{
800010fc:	ff010113          	addi	sp,sp,-16
80001100:	00112623          	sw	ra,12(sp)
80001104:	00812423          	sw	s0,8(sp)
80001108:	00050413          	mv	s0,a0
	*conv = (struct conversion) {
8000110c:	00052023          	sw	zero,0(a0)
80001110:	00052223          	sw	zero,4(a0)
80001114:	00052423          	sw	zero,8(a0)
	/* Skip over the opening %.  If the conversion specifier is %,
	 * that's the only thing that should be there, so
	 * fast-exit.
	 */
	++sp;
	if (*sp == '%') {
80001118:	0015c783          	lbu	a5,1(a1) # 4001 <__kernel_ram_size+0x19b1>
8000111c:	02500713          	li	a4,37
80001120:	04e78863          	beq	a5,a4,80001170 <extract_conversion+0x74>
80001124:	00158593          	addi	a1,a1,1
		conv->specifier = *sp++;
		return sp;
	}

	sp = extract_flags(conv, sp);
80001128:	00040513          	mv	a0,s0
8000112c:	a1dff0ef          	jal	ra,80000b48 <extract_flags>
80001130:	00050593          	mv	a1,a0
	sp = extract_width(conv, sp);
80001134:	00040513          	mv	a0,s0
80001138:	ad1ff0ef          	jal	ra,80000c08 <extract_width>
8000113c:	00050593          	mv	a1,a0
	sp = extract_prec(conv, sp);
80001140:	00040513          	mv	a0,s0
80001144:	b7dff0ef          	jal	ra,80000cc0 <extract_prec>
80001148:	00050593          	mv	a1,a0
	sp = extract_length(conv, sp);
8000114c:	00040513          	mv	a0,s0
80001150:	c39ff0ef          	jal	ra,80000d88 <extract_length>
80001154:	00050593          	mv	a1,a0
	sp = extract_specifier(conv, sp);
80001158:	00040513          	mv	a0,s0
8000115c:	dd1ff0ef          	jal	ra,80000f2c <extract_specifier>

	return sp;
}
80001160:	00c12083          	lw	ra,12(sp)
80001164:	00812403          	lw	s0,8(sp)
80001168:	01010113          	addi	sp,sp,16
8000116c:	00008067          	ret
		conv->specifier = *sp++;
80001170:	00258513          	addi	a0,a1,2
80001174:	00f401a3          	sb	a5,3(s0)
		return sp;
80001178:	fe9ff06f          	j	80001160 <extract_conversion+0x64>

8000117c <conversion_radix>:
	return rval;
}

static inline size_t conversion_radix(char specifier)
{
	switch (specifier) {
8000117c:	06f00793          	li	a5,111
80001180:	02f50c63          	beq	a0,a5,800011b8 <conversion_radix+0x3c>
80001184:	00a7fe63          	bgeu	a5,a0,800011a0 <conversion_radix+0x24>
80001188:	07000793          	li	a5,112
8000118c:	02f50a63          	beq	a0,a5,800011c0 <conversion_radix+0x44>
80001190:	07800793          	li	a5,120
80001194:	02f51a63          	bne	a0,a5,800011c8 <conversion_radix+0x4c>
	case 'o':
		return 8;
	case 'p':
	case 'x':
	case 'X':
		return 16;
80001198:	01000513          	li	a0,16
8000119c:	00008067          	ret
	switch (specifier) {
800011a0:	05800793          	li	a5,88
800011a4:	00f50663          	beq	a0,a5,800011b0 <conversion_radix+0x34>
800011a8:	00a00513          	li	a0,10
800011ac:	00008067          	ret
		return 16;
800011b0:	01000513          	li	a0,16
800011b4:	00008067          	ret
		return 8;
800011b8:	00800513          	li	a0,8
800011bc:	00008067          	ret
		return 16;
800011c0:	01000513          	li	a0,16
800011c4:	00008067          	ret
	switch (specifier) {
800011c8:	00a00513          	li	a0,10
	}
}
800011cc:	00008067          	ret

800011d0 <encode_uint>:
 */
static char *encode_uint(uint_value_type value,
			 struct conversion *conv,
			 char *bps,
			 const char *bpe)
{
800011d0:	fd010113          	addi	sp,sp,-48
800011d4:	02112623          	sw	ra,44(sp)
800011d8:	02812423          	sw	s0,40(sp)
800011dc:	02912223          	sw	s1,36(sp)
800011e0:	03212023          	sw	s2,32(sp)
800011e4:	01312e23          	sw	s3,28(sp)
800011e8:	01412c23          	sw	s4,24(sp)
800011ec:	01512a23          	sw	s5,20(sp)
800011f0:	01612823          	sw	s6,16(sp)
800011f4:	01712623          	sw	s7,12(sp)
800011f8:	01812423          	sw	s8,8(sp)
800011fc:	00050993          	mv	s3,a0
80001200:	00058413          	mv	s0,a1
80001204:	00060c13          	mv	s8,a2
80001208:	00068a93          	mv	s5,a3
8000120c:	00070493          	mv	s1,a4
	bool upcase = isupper((int)conv->specifier);
80001210:	00364503          	lbu	a0,3(a2)
80001214:	800077b7          	lui	a5,0x80007
80001218:	95178793          	addi	a5,a5,-1711 # 80006951 <CONFIG_SYSTEM_WORKQUEUE_PRIORITY+0x80006952>
8000121c:	00f507b3          	add	a5,a0,a5
80001220:	0007cb83          	lbu	s7,0(a5)
80001224:	003bfb93          	andi	s7,s7,3
	const unsigned int radix = conversion_radix(conv->specifier);
80001228:	f55ff0ef          	jal	ra,8000117c <conversion_radix>
8000122c:	00050913          	mv	s2,a0
	char *bp = bps + (bpe - bps);
80001230:	0480006f          	j	80001278 <encode_uint+0xa8>

	do {
		unsigned int lsv = (unsigned int)(value % radix);

		*--bp = (lsv <= 9) ? ('0' + lsv)
80001234:	00100793          	li	a5,1
80001238:	06fb8a63          	beq	s7,a5,800012ac <encode_uint+0xdc>
			: upcase ? ('A' + lsv - 10) : ('a' + lsv - 10);
8000123c:	0ff57793          	zext.b	a5,a0
		*--bp = (lsv <= 9) ? ('0' + lsv)
80001240:	05778793          	addi	a5,a5,87
80001244:	0ff7f793          	zext.b	a5,a5
80001248:	fff48493          	addi	s1,s1,-1
8000124c:	00f48023          	sb	a5,0(s1)
		value /= radix;
80001250:	00090613          	mv	a2,s2
80001254:	00000693          	li	a3,0
80001258:	00098513          	mv	a0,s3
8000125c:	00040593          	mv	a1,s0
80001260:	f85fe0ef          	jal	ra,800001e4 <__udivdi3>
	} while ((value != 0) && (bps < bp));
80001264:	05446e63          	bltu	s0,s4,800012c0 <encode_uint+0xf0>
80001268:	048a0a63          	beq	s4,s0,800012bc <encode_uint+0xec>
8000126c:	049afa63          	bgeu	s5,s1,800012c0 <encode_uint+0xf0>
		value /= radix;
80001270:	00050993          	mv	s3,a0
80001274:	00058413          	mv	s0,a1
		unsigned int lsv = (unsigned int)(value % radix);
80001278:	00090b13          	mv	s6,s2
8000127c:	00000a13          	li	s4,0
80001280:	00090613          	mv	a2,s2
80001284:	00000693          	li	a3,0
80001288:	00098513          	mv	a0,s3
8000128c:	00040593          	mv	a1,s0
80001290:	b84ff0ef          	jal	ra,80000614 <__umoddi3>
		*--bp = (lsv <= 9) ? ('0' + lsv)
80001294:	00900793          	li	a5,9
80001298:	f8a7eee3          	bltu	a5,a0,80001234 <encode_uint+0x64>
8000129c:	0ff57793          	zext.b	a5,a0
800012a0:	03078793          	addi	a5,a5,48
800012a4:	0ff7f793          	zext.b	a5,a5
800012a8:	fa1ff06f          	j	80001248 <encode_uint+0x78>
			: upcase ? ('A' + lsv - 10) : ('a' + lsv - 10);
800012ac:	0ff57793          	zext.b	a5,a0
		*--bp = (lsv <= 9) ? ('0' + lsv)
800012b0:	03778793          	addi	a5,a5,55
800012b4:	0ff7f793          	zext.b	a5,a5
800012b8:	f91ff06f          	j	80001248 <encode_uint+0x78>
	} while ((value != 0) && (bps < bp));
800012bc:	fb69f8e3          	bgeu	s3,s6,8000126c <encode_uint+0x9c>

	/* Record required alternate forms.  This can be determined
	 * from the radix without re-checking specifier.
	 */
	if (conv->flag_hash) {
800012c0:	000c5783          	lhu	a5,0(s8)
800012c4:	0207f793          	andi	a5,a5,32
800012c8:	00078a63          	beqz	a5,800012dc <encode_uint+0x10c>
		if (radix == 8) {
800012cc:	00800793          	li	a5,8
800012d0:	04f90063          	beq	s2,a5,80001310 <encode_uint+0x140>
			conv->altform_0 = true;
		} else if (radix == 16) {
800012d4:	01000793          	li	a5,16
800012d8:	04f90463          	beq	s2,a5,80001320 <encode_uint+0x150>
			;
		}
	}

	return bp;
}
800012dc:	00048513          	mv	a0,s1
800012e0:	02c12083          	lw	ra,44(sp)
800012e4:	02812403          	lw	s0,40(sp)
800012e8:	02412483          	lw	s1,36(sp)
800012ec:	02012903          	lw	s2,32(sp)
800012f0:	01c12983          	lw	s3,28(sp)
800012f4:	01812a03          	lw	s4,24(sp)
800012f8:	01412a83          	lw	s5,20(sp)
800012fc:	01012b03          	lw	s6,16(sp)
80001300:	00c12b83          	lw	s7,12(sp)
80001304:	00812c03          	lw	s8,8(sp)
80001308:	03010113          	addi	sp,sp,48
8000130c:	00008067          	ret
			conv->altform_0 = true;
80001310:	002c4783          	lbu	a5,2(s8)
80001314:	0087e793          	ori	a5,a5,8
80001318:	00fc0123          	sb	a5,2(s8)
8000131c:	fc1ff06f          	j	800012dc <encode_uint+0x10c>
			conv->altform_0c = true;
80001320:	002c4783          	lbu	a5,2(s8)
80001324:	0107e793          	ori	a5,a5,16
80001328:	00fc0123          	sb	a5,2(s8)
8000132c:	fb1ff06f          	j	800012dc <encode_uint+0x10c>

80001330 <store_count>:
 */
static inline void store_count(const struct conversion *conv,
			       void *dp,
			       int count)
{
	switch ((enum length_mod_enum)conv->length_mod) {
80001330:	00052783          	lw	a5,0(a0)
80001334:	00b7d793          	srli	a5,a5,0xb
80001338:	00f7f793          	andi	a5,a5,15
8000133c:	00700713          	li	a4,7
80001340:	06f76463          	bltu	a4,a5,800013a8 <store_count+0x78>
80001344:	00279793          	slli	a5,a5,0x2
80001348:	80006737          	lui	a4,0x80006
8000134c:	73c70713          	addi	a4,a4,1852 # 8000673c <CONFIG_SYSTEM_WORKQUEUE_PRIORITY+0x8000673d>
80001350:	00e787b3          	add	a5,a5,a4
80001354:	0007a783          	lw	a5,0(a5)
80001358:	00078067          	jr	a5
	case LENGTH_NONE:
		*(int *)dp = count;
8000135c:	00c5a023          	sw	a2,0(a1)
		break;
80001360:	00008067          	ret
	case LENGTH_HH:
		*(signed char *)dp = (signed char)count;
80001364:	00c58023          	sb	a2,0(a1)
		break;
80001368:	00008067          	ret
	case LENGTH_H:
		*(short *)dp = (short)count;
8000136c:	00c59023          	sh	a2,0(a1)
		break;
80001370:	00008067          	ret
	case LENGTH_L:
		*(long *)dp = (long)count;
80001374:	00c5a023          	sw	a2,0(a1)
		break;
80001378:	00008067          	ret
	case LENGTH_LL:
		*(long long *)dp = (long long)count;
8000137c:	41f65793          	srai	a5,a2,0x1f
80001380:	00c5a023          	sw	a2,0(a1)
80001384:	00f5a223          	sw	a5,4(a1)
		break;
80001388:	00008067          	ret
	case LENGTH_J:
		*(intmax_t *)dp = (intmax_t)count;
8000138c:	41f65793          	srai	a5,a2,0x1f
80001390:	00c5a023          	sw	a2,0(a1)
80001394:	00f5a223          	sw	a5,4(a1)
		break;
80001398:	00008067          	ret
	case LENGTH_Z:
		*(size_t *)dp = (size_t)count;
8000139c:	00c5a023          	sw	a2,0(a1)
		break;
800013a0:	00008067          	ret
	case LENGTH_T:
		*(ptrdiff_t *)dp = (ptrdiff_t)count;
800013a4:	00c5a023          	sw	a2,0(a1)
		 * Static analysis tool won't raise a violation if default is empty,
		 * but has that comment.
		 */
		break;
	}
}
800013a8:	00008067          	ret

800013ac <outs>:
/* Outline function to emit all characters in [sp, ep). */
static int outs(cbprintf_cb out,
		void *ctx,
		const char *sp,
		const char *ep)
{
800013ac:	fe010113          	addi	sp,sp,-32
800013b0:	00112e23          	sw	ra,28(sp)
800013b4:	00812c23          	sw	s0,24(sp)
800013b8:	00912a23          	sw	s1,20(sp)
800013bc:	01212823          	sw	s2,16(sp)
800013c0:	01312623          	sw	s3,12(sp)
800013c4:	01412423          	sw	s4,8(sp)
800013c8:	00050a13          	mv	s4,a0
800013cc:	00058993          	mv	s3,a1
800013d0:	00068913          	mv	s2,a3
	size_t count = 0;
800013d4:	00000413          	li	s0,0

	while ((sp < ep) || ((ep == NULL) && *sp)) {
800013d8:	0200006f          	j	800013f8 <outs+0x4c>
		int rc = out((int)*sp++, ctx);
800013dc:	00160493          	addi	s1,a2,1
800013e0:	00098593          	mv	a1,s3
800013e4:	00064503          	lbu	a0,0(a2)
800013e8:	000a00e7          	jalr	s4

		if (rc < 0) {
800013ec:	02054063          	bltz	a0,8000140c <outs+0x60>
			return rc;
		}
		++count;
800013f0:	00140413          	addi	s0,s0,1
		int rc = out((int)*sp++, ctx);
800013f4:	00048613          	mv	a2,s1
	while ((sp < ep) || ((ep == NULL) && *sp)) {
800013f8:	ff2662e3          	bltu	a2,s2,800013dc <outs+0x30>
800013fc:	00091663          	bnez	s2,80001408 <outs+0x5c>
80001400:	00064783          	lbu	a5,0(a2)
80001404:	fc079ce3          	bnez	a5,800013dc <outs+0x30>
	}

	return (int)count;
80001408:	00040513          	mv	a0,s0
}
8000140c:	01c12083          	lw	ra,28(sp)
80001410:	01812403          	lw	s0,24(sp)
80001414:	01412483          	lw	s1,20(sp)
80001418:	01012903          	lw	s2,16(sp)
8000141c:	00c12983          	lw	s3,12(sp)
80001420:	00812a03          	lw	s4,8(sp)
80001424:	02010113          	addi	sp,sp,32
80001428:	00008067          	ret

8000142c <z_cbvprintf_impl>:

int z_cbvprintf_impl(cbprintf_cb out, void *ctx, const char *fp,
		     va_list ap, uint32_t flags)
{
8000142c:	f8010113          	addi	sp,sp,-128
80001430:	06112e23          	sw	ra,124(sp)
80001434:	06812c23          	sw	s0,120(sp)
80001438:	06912a23          	sw	s1,116(sp)
8000143c:	07212823          	sw	s2,112(sp)
80001440:	07312623          	sw	s3,108(sp)
80001444:	07412423          	sw	s4,104(sp)
80001448:	07512223          	sw	s5,100(sp)
8000144c:	07612023          	sw	s6,96(sp)
80001450:	05712e23          	sw	s7,92(sp)
80001454:	05812c23          	sw	s8,88(sp)
80001458:	00050913          	mv	s2,a0
8000145c:	00058493          	mv	s1,a1
80001460:	00060a93          	mv	s5,a2
80001464:	00d12623          	sw	a3,12(sp)
	char buf[CONVERTED_BUFLEN];
	size_t count = 0;
80001468:	00000413          	li	s0,0
		return rc; \
	} \
	count += rc; \
} while (false)

	while (*fp != 0) {
8000146c:	000ac503          	lbu	a0,0(s5)
80001470:	78050063          	beqz	a0,80001bf0 <z_cbvprintf_impl+0x7c4>
		if (*fp != '%') {
80001474:	02500793          	li	a5,37
80001478:	00f50e63          	beq	a0,a5,80001494 <z_cbvprintf_impl+0x68>
			OUTC(*fp++);
8000147c:	001a8a93          	addi	s5,s5,1
80001480:	00048593          	mv	a1,s1
80001484:	000900e7          	jalr	s2
80001488:	76054663          	bltz	a0,80001bf4 <z_cbvprintf_impl+0x7c8>
8000148c:	00140413          	addi	s0,s0,1
			continue;
80001490:	fddff06f          	j	8000146c <z_cbvprintf_impl+0x40>
		 * mitigate LLVM code generation bug.
		 */
		struct {
			union argument_value value;
			struct conversion conv;
		} state = {
80001494:	00012823          	sw	zero,16(sp)
80001498:	00012a23          	sw	zero,20(sp)
8000149c:	00012c23          	sw	zero,24(sp)
800014a0:	00012e23          	sw	zero,28(sp)
800014a4:	02012023          	sw	zero,32(sp)
800014a8:	02012223          	sw	zero,36(sp)
800014ac:	02012423          	sw	zero,40(sp)
800014b0:	02012623          	sw	zero,44(sp)
		int precision = -1;
		const char *bps = NULL;
		const char *bpe = buf + sizeof(buf);
		char sign = 0;

		fp = extract_conversion(conv, sp);
800014b4:	000a8593          	mv	a1,s5
800014b8:	02010513          	addi	a0,sp,32
800014bc:	c41ff0ef          	jal	ra,800010fc <extract_conversion>
800014c0:	00050993          	mv	s3,a0

		/* If dynamic width is specified, process it,
		 * otherwise set width if present.
		 */
		if (conv->width_star) {
800014c4:	02015783          	lhu	a5,32(sp)
800014c8:	1007f713          	andi	a4,a5,256
800014cc:	0c070263          	beqz	a4,80001590 <z_cbvprintf_impl+0x164>
			width = va_arg(ap, int);
800014d0:	00c12783          	lw	a5,12(sp)
800014d4:	00478713          	addi	a4,a5,4
800014d8:	00e12623          	sw	a4,12(sp)
800014dc:	0007aa03          	lw	s4,0(a5)

			if (width < 0) {
800014e0:	080a4e63          	bltz	s4,8000157c <z_cbvprintf_impl+0x150>

		/* If dynamic precision is specified, process it, otherwise
		 * set precision if present.  For floating point where
		 * precision is not present use 6.
		 */
		if (conv->prec_star) {
800014e4:	02015783          	lhu	a5,32(sp)
800014e8:	4007f713          	andi	a4,a5,1024
800014ec:	0c070863          	beqz	a4,800015bc <z_cbvprintf_impl+0x190>
			int arg = va_arg(ap, int);
800014f0:	00c12783          	lw	a5,12(sp)
800014f4:	00478713          	addi	a4,a5,4
800014f8:	00e12623          	sw	a4,12(sp)
800014fc:	0007ab03          	lw	s6,0(a5)

			if (arg < 0) {
80001500:	0a0b4463          	bltz	s6,800015a8 <z_cbvprintf_impl+0x17c>
		}

		/* Reuse width and precision memory in conv for value
		 * padding counts.
		 */
		conv->pad0_value = 0;
80001504:	02012223          	sw	zero,36(sp)
		conv->pad0_pre_exp = 0;
80001508:	02012423          	sw	zero,40(sp)
		 * This can't be extracted to a helper function because
		 * passing a pointer to va_list doesn't work on x86_64.  See
		 * https://stackoverflow.com/a/8048892.
		 */
		enum specifier_cat_enum specifier_cat
			= (enum specifier_cat_enum)conv->specifier_cat;
8000150c:	02012783          	lw	a5,32(sp)
80001510:	0107d713          	srli	a4,a5,0x10
80001514:	00777713          	andi	a4,a4,7
		enum length_mod_enum length_mod
			= (enum length_mod_enum)conv->length_mod;
80001518:	00b7d793          	srli	a5,a5,0xb
8000151c:	00f7f793          	andi	a5,a5,15
		enum length_mod_enum length_mod
80001520:	00078693          	mv	a3,a5
		/* Extract the value based on the argument category and length.
		 *
		 * Note that the length modifier doesn't affect the value of a
		 * pointer argument.
		 */
		if (specifier_cat == SPECIFIER_SINT) {
80001524:	00100613          	li	a2,1
80001528:	0ac70663          	beq	a4,a2,800015d4 <z_cbvprintf_impl+0x1a8>
			if (length_mod == LENGTH_HH) {
				value->sint = (signed char)value->sint;
			} else if (length_mod == LENGTH_H) {
				value->sint = (short)value->sint;
			}
		} else if (specifier_cat == SPECIFIER_UINT) {
8000152c:	00200613          	li	a2,2
80001530:	1ec70063          	beq	a4,a2,80001710 <z_cbvprintf_impl+0x2e4>
			if (length_mod == LENGTH_HH) {
				value->uint = (unsigned char)value->uint;
			} else if (length_mod == LENGTH_H) {
				value->uint = (unsigned short)value->uint;
			}
		} else if (specifier_cat == SPECIFIER_FP) {
80001534:	00400793          	li	a5,4
80001538:	2cf70a63          	beq	a4,a5,8000180c <z_cbvprintf_impl+0x3e0>
			if (length_mod == LENGTH_UPPER_L) {
				value->ldbl = va_arg(ap, long double);
			} else {
				value->dbl = va_arg(ap, double);
			}
		} else if (specifier_cat == SPECIFIER_PTR) {
8000153c:	00300793          	li	a5,3
80001540:	32f70863          	beq	a4,a5,80001870 <z_cbvprintf_impl+0x444>
		/* We've now consumed all arguments related to this
		 * specification.  If the conversion is invalid, or is
		 * something we don't support, then output the original
		 * specification and move on.
		 */
		if (conv->invalid || conv->unsupported) {
80001544:	02012783          	lw	a5,32(sp)
80001548:	0037f793          	andi	a5,a5,3
8000154c:	32079e63          	bnez	a5,80001888 <z_cbvprintf_impl+0x45c>
		}

		/* Do formatting, either into the buffer or
		 * referencing external data.
		 */
		switch (conv->specifier) {
80001550:	02314783          	lbu	a5,35(sp)
80001554:	fdb78793          	addi	a5,a5,-37
80001558:	0ff7f693          	zext.b	a3,a5
8000155c:	05300713          	li	a4,83
80001560:	4cd76a63          	bltu	a4,a3,80001a34 <z_cbvprintf_impl+0x608>
80001564:	00269793          	slli	a5,a3,0x2
80001568:	80006737          	lui	a4,0x80006
8000156c:	76470713          	addi	a4,a4,1892 # 80006764 <CONFIG_SYSTEM_WORKQUEUE_PRIORITY+0x80006765>
80001570:	00e787b3          	add	a5,a5,a4
80001574:	0007a783          	lw	a5,0(a5)
80001578:	00078067          	jr	a5
				conv->flag_dash = true;
8000157c:	02015783          	lhu	a5,32(sp)
80001580:	0047e793          	ori	a5,a5,4
80001584:	02f11023          	sh	a5,32(sp)
				width = -width;
80001588:	41400a33          	neg	s4,s4
8000158c:	f59ff06f          	j	800014e4 <z_cbvprintf_impl+0xb8>
		} else if (conv->width_present) {
80001590:	0807f793          	andi	a5,a5,128
80001594:	00078663          	beqz	a5,800015a0 <z_cbvprintf_impl+0x174>
			width = conv->width_value;
80001598:	02412a03          	lw	s4,36(sp)
8000159c:	f49ff06f          	j	800014e4 <z_cbvprintf_impl+0xb8>
		int width = -1;
800015a0:	fff00a13          	li	s4,-1
800015a4:	f41ff06f          	j	800014e4 <z_cbvprintf_impl+0xb8>
				conv->prec_present = false;
800015a8:	02015783          	lhu	a5,32(sp)
800015ac:	dff7f793          	andi	a5,a5,-513
800015b0:	02f11023          	sh	a5,32(sp)
		int precision = -1;
800015b4:	fff00b13          	li	s6,-1
800015b8:	f4dff06f          	j	80001504 <z_cbvprintf_impl+0xd8>
		} else if (conv->prec_present) {
800015bc:	2007f793          	andi	a5,a5,512
800015c0:	00078663          	beqz	a5,800015cc <z_cbvprintf_impl+0x1a0>
			precision = conv->prec_value;
800015c4:	02812b03          	lw	s6,40(sp)
800015c8:	f3dff06f          	j	80001504 <z_cbvprintf_impl+0xd8>
		int precision = -1;
800015cc:	fff00b13          	li	s6,-1
800015d0:	f35ff06f          	j	80001504 <z_cbvprintf_impl+0xd8>
			switch (length_mod) {
800015d4:	00500713          	li	a4,5
800015d8:	0ee78e63          	beq	a5,a4,800016d4 <z_cbvprintf_impl+0x2a8>
800015dc:	02f76e63          	bltu	a4,a5,80001618 <z_cbvprintf_impl+0x1ec>
800015e0:	00300713          	li	a4,3
800015e4:	0ae78263          	beq	a5,a4,80001688 <z_cbvprintf_impl+0x25c>
800015e8:	00400713          	li	a4,4
800015ec:	04e79e63          	bne	a5,a4,80001648 <z_cbvprintf_impl+0x21c>
					(sint_value_type)va_arg(ap, long long);
800015f0:	00c12783          	lw	a5,12(sp)
800015f4:	00778793          	addi	a5,a5,7
800015f8:	ff87f793          	andi	a5,a5,-8
800015fc:	00878713          	addi	a4,a5,8
80001600:	00e12623          	sw	a4,12(sp)
80001604:	0007a703          	lw	a4,0(a5)
80001608:	0047a783          	lw	a5,4(a5)
				value->sint =
8000160c:	00e12823          	sw	a4,16(sp)
80001610:	00f12a23          	sw	a5,20(sp)
				break;
80001614:	0500006f          	j	80001664 <z_cbvprintf_impl+0x238>
			switch (length_mod) {
80001618:	00a78793          	addi	a5,a5,10
8000161c:	00f7f793          	andi	a5,a5,15
80001620:	00100713          	li	a4,1
80001624:	02f76263          	bltu	a4,a5,80001648 <z_cbvprintf_impl+0x21c>
					(sint_value_type)va_arg(ap, ptrdiff_t);
80001628:	00c12783          	lw	a5,12(sp)
8000162c:	00478713          	addi	a4,a5,4
80001630:	00e12623          	sw	a4,12(sp)
80001634:	0007a783          	lw	a5,0(a5)
80001638:	41f7d713          	srai	a4,a5,0x1f
				value->sint =
8000163c:	00f12823          	sw	a5,16(sp)
80001640:	00e12a23          	sw	a4,20(sp)
				break;
80001644:	0200006f          	j	80001664 <z_cbvprintf_impl+0x238>
				value->sint = va_arg(ap, int);
80001648:	00c12783          	lw	a5,12(sp)
8000164c:	00478713          	addi	a4,a5,4
80001650:	00e12623          	sw	a4,12(sp)
80001654:	0007a783          	lw	a5,0(a5)
80001658:	41f7d713          	srai	a4,a5,0x1f
8000165c:	00f12823          	sw	a5,16(sp)
80001660:	00e12a23          	sw	a4,20(sp)
			if (length_mod == LENGTH_HH) {
80001664:	00100793          	li	a5,1
80001668:	08f68a63          	beq	a3,a5,800016fc <z_cbvprintf_impl+0x2d0>
			} else if (length_mod == LENGTH_H) {
8000166c:	00200793          	li	a5,2
80001670:	ecf69ae3          	bne	a3,a5,80001544 <z_cbvprintf_impl+0x118>
				value->sint = (short)value->sint;
80001674:	01011783          	lh	a5,16(sp)
80001678:	41f7d713          	srai	a4,a5,0x1f
8000167c:	00f12823          	sw	a5,16(sp)
80001680:	00e12a23          	sw	a4,20(sp)
80001684:	ec1ff06f          	j	80001544 <z_cbvprintf_impl+0x118>
				    && (conv->specifier == 'c')) {
80001688:	02314703          	lbu	a4,35(sp)
				if (WCHAR_IS_SIGNED
8000168c:	06300793          	li	a5,99
80001690:	02f70263          	beq	a4,a5,800016b4 <z_cbvprintf_impl+0x288>
					value->sint = va_arg(ap, long);
80001694:	00c12783          	lw	a5,12(sp)
80001698:	00478713          	addi	a4,a5,4
8000169c:	00e12623          	sw	a4,12(sp)
800016a0:	0007a783          	lw	a5,0(a5)
800016a4:	41f7d713          	srai	a4,a5,0x1f
800016a8:	00f12823          	sw	a5,16(sp)
800016ac:	00e12a23          	sw	a4,20(sp)
800016b0:	fb5ff06f          	j	80001664 <z_cbvprintf_impl+0x238>
					value->sint = (wchar_t)va_arg(ap,
800016b4:	00c12783          	lw	a5,12(sp)
800016b8:	00478713          	addi	a4,a5,4
800016bc:	00e12623          	sw	a4,12(sp)
800016c0:	0007a783          	lw	a5,0(a5)
800016c4:	41f7d713          	srai	a4,a5,0x1f
800016c8:	00f12823          	sw	a5,16(sp)
800016cc:	00e12a23          	sw	a4,20(sp)
800016d0:	f95ff06f          	j	80001664 <z_cbvprintf_impl+0x238>
					(sint_value_type)va_arg(ap, intmax_t);
800016d4:	00c12783          	lw	a5,12(sp)
800016d8:	00778793          	addi	a5,a5,7
800016dc:	ff87f793          	andi	a5,a5,-8
800016e0:	00878713          	addi	a4,a5,8
800016e4:	00e12623          	sw	a4,12(sp)
800016e8:	0007a703          	lw	a4,0(a5)
800016ec:	0047a783          	lw	a5,4(a5)
				value->sint =
800016f0:	00e12823          	sw	a4,16(sp)
800016f4:	00f12a23          	sw	a5,20(sp)
				break;
800016f8:	f6dff06f          	j	80001664 <z_cbvprintf_impl+0x238>
				value->sint = (signed char)value->sint;
800016fc:	01010783          	lb	a5,16(sp)
80001700:	41f7d713          	srai	a4,a5,0x1f
80001704:	00f12823          	sw	a5,16(sp)
80001708:	00e12a23          	sw	a4,20(sp)
8000170c:	e39ff06f          	j	80001544 <z_cbvprintf_impl+0x118>
			switch (length_mod) {
80001710:	00500713          	li	a4,5
80001714:	0ce78063          	beq	a5,a4,800017d4 <z_cbvprintf_impl+0x3a8>
80001718:	02f76e63          	bltu	a4,a5,80001754 <z_cbvprintf_impl+0x328>
8000171c:	00300713          	li	a4,3
80001720:	08e78c63          	beq	a5,a4,800017b8 <z_cbvprintf_impl+0x38c>
80001724:	00400713          	li	a4,4
80001728:	04e79c63          	bne	a5,a4,80001780 <z_cbvprintf_impl+0x354>
					(uint_value_type)va_arg(ap,
8000172c:	00c12783          	lw	a5,12(sp)
80001730:	00778793          	addi	a5,a5,7
80001734:	ff87f793          	andi	a5,a5,-8
80001738:	00878713          	addi	a4,a5,8
8000173c:	00e12623          	sw	a4,12(sp)
80001740:	0007a703          	lw	a4,0(a5)
80001744:	0047a783          	lw	a5,4(a5)
				value->uint =
80001748:	00e12823          	sw	a4,16(sp)
8000174c:	00f12a23          	sw	a5,20(sp)
				break;
80001750:	0480006f          	j	80001798 <z_cbvprintf_impl+0x36c>
			switch (length_mod) {
80001754:	00a78793          	addi	a5,a5,10
80001758:	00f7f793          	andi	a5,a5,15
8000175c:	00100713          	li	a4,1
80001760:	02f76063          	bltu	a4,a5,80001780 <z_cbvprintf_impl+0x354>
					(uint_value_type)va_arg(ap, size_t);
80001764:	00c12783          	lw	a5,12(sp)
80001768:	00478713          	addi	a4,a5,4
8000176c:	00e12623          	sw	a4,12(sp)
80001770:	0007a783          	lw	a5,0(a5)
				value->uint =
80001774:	00f12823          	sw	a5,16(sp)
80001778:	00012a23          	sw	zero,20(sp)
				break;
8000177c:	01c0006f          	j	80001798 <z_cbvprintf_impl+0x36c>
				value->uint = va_arg(ap, unsigned int);
80001780:	00c12783          	lw	a5,12(sp)
80001784:	00478713          	addi	a4,a5,4
80001788:	00e12623          	sw	a4,12(sp)
8000178c:	0007a783          	lw	a5,0(a5)
80001790:	00f12823          	sw	a5,16(sp)
80001794:	00012a23          	sw	zero,20(sp)
			if (length_mod == LENGTH_HH) {
80001798:	00100793          	li	a5,1
8000179c:	06f68063          	beq	a3,a5,800017fc <z_cbvprintf_impl+0x3d0>
			} else if (length_mod == LENGTH_H) {
800017a0:	00200793          	li	a5,2
800017a4:	daf690e3          	bne	a3,a5,80001544 <z_cbvprintf_impl+0x118>
				value->uint = (unsigned short)value->uint;
800017a8:	01015783          	lhu	a5,16(sp)
800017ac:	00f12823          	sw	a5,16(sp)
800017b0:	00012a23          	sw	zero,20(sp)
800017b4:	d91ff06f          	j	80001544 <z_cbvprintf_impl+0x118>
					value->uint = va_arg(ap, unsigned long);
800017b8:	00c12783          	lw	a5,12(sp)
800017bc:	00478713          	addi	a4,a5,4
800017c0:	00e12623          	sw	a4,12(sp)
800017c4:	0007a783          	lw	a5,0(a5)
800017c8:	00f12823          	sw	a5,16(sp)
800017cc:	00012a23          	sw	zero,20(sp)
				break;
800017d0:	fc9ff06f          	j	80001798 <z_cbvprintf_impl+0x36c>
					(uint_value_type)va_arg(ap,
800017d4:	00c12783          	lw	a5,12(sp)
800017d8:	00778793          	addi	a5,a5,7
800017dc:	ff87f793          	andi	a5,a5,-8
800017e0:	00878713          	addi	a4,a5,8
800017e4:	00e12623          	sw	a4,12(sp)
800017e8:	0007a703          	lw	a4,0(a5)
800017ec:	0047a783          	lw	a5,4(a5)
				value->uint =
800017f0:	00e12823          	sw	a4,16(sp)
800017f4:	00f12a23          	sw	a5,20(sp)
				break;
800017f8:	fa1ff06f          	j	80001798 <z_cbvprintf_impl+0x36c>
				value->uint = (unsigned char)value->uint;
800017fc:	01014783          	lbu	a5,16(sp)
80001800:	00f12823          	sw	a5,16(sp)
80001804:	00012a23          	sw	zero,20(sp)
80001808:	d3dff06f          	j	80001544 <z_cbvprintf_impl+0x118>
			if (length_mod == LENGTH_UPPER_L) {
8000180c:	00800793          	li	a5,8
80001810:	02f68663          	beq	a3,a5,8000183c <z_cbvprintf_impl+0x410>
				value->dbl = va_arg(ap, double);
80001814:	00c12783          	lw	a5,12(sp)
80001818:	00778793          	addi	a5,a5,7
8000181c:	ff87f793          	andi	a5,a5,-8
80001820:	00878713          	addi	a4,a5,8
80001824:	00e12623          	sw	a4,12(sp)
80001828:	0007a703          	lw	a4,0(a5)
8000182c:	0047a783          	lw	a5,4(a5)
80001830:	00e12823          	sw	a4,16(sp)
80001834:	00f12a23          	sw	a5,20(sp)
80001838:	d0dff06f          	j	80001544 <z_cbvprintf_impl+0x118>
				value->ldbl = va_arg(ap, long double);
8000183c:	00c12783          	lw	a5,12(sp)
80001840:	00478713          	addi	a4,a5,4
80001844:	00e12623          	sw	a4,12(sp)
80001848:	0007a783          	lw	a5,0(a5)
8000184c:	0007a603          	lw	a2,0(a5)
80001850:	0047a683          	lw	a3,4(a5)
80001854:	0087a703          	lw	a4,8(a5)
80001858:	00c7a783          	lw	a5,12(a5)
8000185c:	00c12823          	sw	a2,16(sp)
80001860:	00d12a23          	sw	a3,20(sp)
80001864:	00e12c23          	sw	a4,24(sp)
80001868:	00f12e23          	sw	a5,28(sp)
8000186c:	cd9ff06f          	j	80001544 <z_cbvprintf_impl+0x118>
			value->ptr = va_arg(ap, void *);
80001870:	00c12783          	lw	a5,12(sp)
80001874:	00478713          	addi	a4,a5,4
80001878:	00e12623          	sw	a4,12(sp)
8000187c:	0007a783          	lw	a5,0(a5)
80001880:	00f12823          	sw	a5,16(sp)
80001884:	cc1ff06f          	j	80001544 <z_cbvprintf_impl+0x118>
			OUTS(sp, fp);
80001888:	00098693          	mv	a3,s3
8000188c:	000a8613          	mv	a2,s5
80001890:	00048593          	mv	a1,s1
80001894:	00090513          	mv	a0,s2
80001898:	b15ff0ef          	jal	ra,800013ac <outs>
8000189c:	34054c63          	bltz	a0,80001bf4 <z_cbvprintf_impl+0x7c8>
800018a0:	00a40433          	add	s0,s0,a0
		fp = extract_conversion(conv, sp);
800018a4:	00098a93          	mv	s5,s3
			continue;
800018a8:	bc5ff06f          	j	8000146c <z_cbvprintf_impl+0x40>
		case '%':
			OUTC('%');
800018ac:	00048593          	mv	a1,s1
800018b0:	02500513          	li	a0,37
800018b4:	000900e7          	jalr	s2
800018b8:	32054e63          	bltz	a0,80001bf4 <z_cbvprintf_impl+0x7c8>
800018bc:	00140413          	addi	s0,s0,1
		char sign = 0;
800018c0:	00000b93          	li	s7,0
		const char *bpe = buf + sizeof(buf);
800018c4:	04e10b13          	addi	s6,sp,78
		const char *bps = NULL;
800018c8:	00000a93          	li	s5,0
			break;
800018cc:	1740006f          	j	80001a40 <z_cbvprintf_impl+0x614>
		case 's': {
			bps = (const char *)value->ptr;
800018d0:	01012a83          	lw	s5,16(sp)

			size_t len;

			if (precision >= 0) {
800018d4:	000b4e63          	bltz	s6,800018f0 <z_cbvprintf_impl+0x4c4>
				len = strnlen(bps, precision);
800018d8:	000b0593          	mv	a1,s6
800018dc:	000a8513          	mv	a0,s5
800018e0:	1d0030ef          	jal	ra,80004ab0 <strnlen>
			} else {
				len = strlen(bps);
			}

			bpe = bps + len;
800018e4:	00aa8b33          	add	s6,s5,a0
		char sign = 0;
800018e8:	00000b93          	li	s7,0
			precision = -1;

			break;
800018ec:	1540006f          	j	80001a40 <z_cbvprintf_impl+0x614>
				len = strlen(bps);
800018f0:	000a8513          	mv	a0,s5
800018f4:	1a0030ef          	jal	ra,80004a94 <strlen>
800018f8:	fedff06f          	j	800018e4 <z_cbvprintf_impl+0x4b8>
		}
		case 'c':
			bps = buf;
			buf[0] = CHAR_IS_SIGNED ? value->sint : value->uint;
800018fc:	01012783          	lw	a5,16(sp)
80001900:	02f10c23          	sb	a5,56(sp)
		char sign = 0;
80001904:	00000b93          	li	s7,0
			bpe = buf + 1;
80001908:	03910b13          	addi	s6,sp,57
			bps = buf;
8000190c:	03810a93          	addi	s5,sp,56
			break;
80001910:	1300006f          	j	80001a40 <z_cbvprintf_impl+0x614>
		case 'd':
		case 'i':
			if (conv->flag_plus) {
80001914:	02015783          	lhu	a5,32(sp)
80001918:	0087f713          	andi	a4,a5,8
8000191c:	00071a63          	bnez	a4,80001930 <z_cbvprintf_impl+0x504>
				sign = '+';
			} else if (conv->flag_space) {
80001920:	0107f793          	andi	a5,a5,16
80001924:	02079463          	bnez	a5,8000194c <z_cbvprintf_impl+0x520>
		char sign = 0;
80001928:	00000b93          	li	s7,0
8000192c:	0080006f          	j	80001934 <z_cbvprintf_impl+0x508>
				sign = '+';
80001930:	02b00b93          	li	s7,43

			/* sint/uint overlay in the union, and so
			 * can't appear in read and write operations
			 * in the same statement.
			 */
			sint = value->sint;
80001934:	01012703          	lw	a4,16(sp)
80001938:	01412783          	lw	a5,20(sp)
			if (sint < 0) {
8000193c:	0007cc63          	bltz	a5,80001954 <z_cbvprintf_impl+0x528>
				sign = '-';
				value->uint = (uint_value_type)-sint;
			} else {
				value->uint = (uint_value_type)sint;
80001940:	00e12823          	sw	a4,16(sp)
80001944:	00f12a23          	sw	a5,20(sp)
80001948:	0300006f          	j	80001978 <z_cbvprintf_impl+0x54c>
				sign = ' ';
8000194c:	02000b93          	li	s7,32
80001950:	fe5ff06f          	j	80001934 <z_cbvprintf_impl+0x508>
				value->uint = (uint_value_type)-sint;
80001954:	40e006b3          	neg	a3,a4
80001958:	00e03733          	snez	a4,a4
8000195c:	40f007b3          	neg	a5,a5
80001960:	40e787b3          	sub	a5,a5,a4
80001964:	00d12823          	sw	a3,16(sp)
80001968:	00f12a23          	sw	a5,20(sp)
				sign = '-';
8000196c:	02d00b93          	li	s7,45
80001970:	0080006f          	j	80001978 <z_cbvprintf_impl+0x54c>
		switch (conv->specifier) {
80001974:	00000b93          	li	s7,0
			__fallthrough;
		case 'o':
		case 'u':
		case 'x':
		case 'X':
			bps = encode_uint(value->uint, conv, buf, bpe);
80001978:	04e10713          	addi	a4,sp,78
8000197c:	03810693          	addi	a3,sp,56
80001980:	02010613          	addi	a2,sp,32
80001984:	01012503          	lw	a0,16(sp)
80001988:	01412583          	lw	a1,20(sp)
8000198c:	845ff0ef          	jal	ra,800011d0 <encode_uint>
80001990:	00050a93          	mv	s5,a0
			/* Update pad0 values based on precision and converted
			 * length.  Note that a non-empty sign is not in the
			 * converted sequence, but it does not affect the
			 * padding size.
			 */
			if (precision >= 0) {
80001994:	120b4663          	bltz	s6,80001ac0 <z_cbvprintf_impl+0x694>
				size_t len = bpe - bps;
80001998:	04e10793          	addi	a5,sp,78
8000199c:	415787b3          	sub	a5,a5,s5

				/* Zero-padding flag is ignored for integer
				 * conversions with precision.
				 */
				conv->flag_zero = false;
800019a0:	02015703          	lhu	a4,32(sp)
800019a4:	fbf77713          	andi	a4,a4,-65
800019a8:	02e11023          	sh	a4,32(sp)

				/* Set pad0_value to satisfy precision */
				if (len < (size_t)precision) {
800019ac:	1167fe63          	bgeu	a5,s6,80001ac8 <z_cbvprintf_impl+0x69c>
					conv->pad0_value = precision - (int)len;
800019b0:	40fb07b3          	sub	a5,s6,a5
800019b4:	02f12223          	sw	a5,36(sp)
		const char *bpe = buf + sizeof(buf);
800019b8:	04e10b13          	addi	s6,sp,78
800019bc:	0840006f          	j	80001a40 <z_cbvprintf_impl+0x614>
		case 'p':
			/* Implementation-defined: null is "(nil)", non-null
			 * has 0x prefix followed by significant address hex
			 * digits, no leading zeros.
			 */
			if (value->ptr != NULL) {
800019c0:	01012503          	lw	a0,16(sp)
800019c4:	00051e63          	bnez	a0,800019e0 <z_cbvprintf_impl+0x5b4>
		char sign = 0;
800019c8:	00000b93          	li	s7,0

				goto prec_int_pad0;
			}

			bps = "(nil)";
			bpe = bps + 5;
800019cc:	80006b37          	lui	s6,0x80006
800019d0:	761b0b13          	addi	s6,s6,1889 # 80006761 <CONFIG_SYSTEM_WORKQUEUE_PRIORITY+0x80006762>
			bps = "(nil)";
800019d4:	80006ab7          	lui	s5,0x80006
800019d8:	75ca8a93          	addi	s5,s5,1884 # 8000675c <CONFIG_SYSTEM_WORKQUEUE_PRIORITY+0x8000675d>
800019dc:	0640006f          	j	80001a40 <z_cbvprintf_impl+0x614>
				bps = encode_uint((uintptr_t)value->ptr, conv,
800019e0:	04e10713          	addi	a4,sp,78
800019e4:	03810693          	addi	a3,sp,56
800019e8:	02010613          	addi	a2,sp,32
800019ec:	00000593          	li	a1,0
800019f0:	fe0ff0ef          	jal	ra,800011d0 <encode_uint>
800019f4:	00050a93          	mv	s5,a0
				conv->altform_0c = true;
800019f8:	02214783          	lbu	a5,34(sp)
800019fc:	0107e793          	ori	a5,a5,16
80001a00:	02f10123          	sb	a5,34(sp)
				conv->specifier = 'x';
80001a04:	07800793          	li	a5,120
80001a08:	02f101a3          	sb	a5,35(sp)
		char sign = 0;
80001a0c:	00000b93          	li	s7,0
				goto prec_int_pad0;
80001a10:	f85ff06f          	j	80001994 <z_cbvprintf_impl+0x568>

			break;
		case 'n':
			if (IS_ENABLED(CONFIG_CBPRINTF_N_SPECIFIER)) {
				store_count(conv, value->ptr, count);
80001a14:	00040613          	mv	a2,s0
80001a18:	01012583          	lw	a1,16(sp)
80001a1c:	02010513          	addi	a0,sp,32
80001a20:	911ff0ef          	jal	ra,80001330 <store_count>
		char sign = 0;
80001a24:	00000b93          	li	s7,0
		const char *bpe = buf + sizeof(buf);
80001a28:	04e10b13          	addi	s6,sp,78
		const char *bps = NULL;
80001a2c:	00000a93          	li	s5,0
			}

			break;
80001a30:	0100006f          	j	80001a40 <z_cbvprintf_impl+0x614>
		switch (conv->specifier) {
80001a34:	00000b93          	li	s7,0
80001a38:	04e10b13          	addi	s6,sp,78
80001a3c:	00000a93          	li	s5,0
		}

		/* If we don't have a converted value to emit, move
		 * on.
		 */
		if (bps == NULL) {
80001a40:	1a0a8463          	beqz	s5,80001be8 <z_cbvprintf_impl+0x7bc>
		 *   * any exponent content from the converted value
		 * * for non-FP:
		 *   * any pad0_prefix
		 *   * the converted value
		 */
		size_t nj_len = (bpe - bps);
80001a44:	415b06b3          	sub	a3,s6,s5
		int pad_len = 0;

		if (sign != 0) {
80001a48:	000b8463          	beqz	s7,80001a50 <z_cbvprintf_impl+0x624>
			nj_len += 1U;
80001a4c:	00168693          	addi	a3,a3,1
		}

		if (conv->altform_0c) {
80001a50:	02214783          	lbu	a5,34(sp)
80001a54:	0107f713          	andi	a4,a5,16
80001a58:	06070c63          	beqz	a4,80001ad0 <z_cbvprintf_impl+0x6a4>
			nj_len += 2U;
80001a5c:	00268693          	addi	a3,a3,2
		} else if (conv->altform_0) {
			nj_len += 1U;
		}

		nj_len += conv->pad0_value;
80001a60:	02412703          	lw	a4,36(sp)
80001a64:	00d70733          	add	a4,a4,a3
		if (conv->pad_fp) {
80001a68:	0407f793          	andi	a5,a5,64
80001a6c:	00078663          	beqz	a5,80001a78 <z_cbvprintf_impl+0x64c>
			nj_len += conv->pad0_pre_exp;
80001a70:	02812783          	lw	a5,40(sp)
80001a74:	00f70733          	add	a4,a4,a5
		 * result in no padding.
		 *
		 * If a non-negative padding width is present and we're doing
		 * right-justification, emit the padding now.
		 */
		if (width > 0) {
80001a78:	09405e63          	blez	s4,80001b14 <z_cbvprintf_impl+0x6e8>
			width -= (int)nj_len;
80001a7c:	40ea0a33          	sub	s4,s4,a4

			if (!conv->flag_dash) {
80001a80:	02012783          	lw	a5,32(sp)
80001a84:	0027d793          	srli	a5,a5,0x2
80001a88:	0017f793          	andi	a5,a5,1
80001a8c:	08079463          	bnez	a5,80001b14 <z_cbvprintf_impl+0x6e8>
				char pad = ' ';

				/* If we're zero-padding we have to emit the
				 * sign first.
				 */
				if (conv->flag_zero) {
80001a90:	02015783          	lhu	a5,32(sp)
80001a94:	0407f793          	andi	a5,a5,64
80001a98:	04078463          	beqz	a5,80001ae0 <z_cbvprintf_impl+0x6b4>
					if (sign != 0) {
80001a9c:	040b8663          	beqz	s7,80001ae8 <z_cbvprintf_impl+0x6bc>
						OUTC(sign);
80001aa0:	00048593          	mv	a1,s1
80001aa4:	000b8513          	mv	a0,s7
80001aa8:	000900e7          	jalr	s2
80001aac:	14054463          	bltz	a0,80001bf4 <z_cbvprintf_impl+0x7c8>
80001ab0:	00140413          	addi	s0,s0,1
						sign = 0;
					}
					pad = '0';
80001ab4:	03000c13          	li	s8,48
						sign = 0;
80001ab8:	00000b93          	li	s7,0
80001abc:	0300006f          	j	80001aec <z_cbvprintf_impl+0x6c0>
		const char *bpe = buf + sizeof(buf);
80001ac0:	04e10b13          	addi	s6,sp,78
80001ac4:	f7dff06f          	j	80001a40 <z_cbvprintf_impl+0x614>
80001ac8:	04e10b13          	addi	s6,sp,78
80001acc:	f75ff06f          	j	80001a40 <z_cbvprintf_impl+0x614>
		} else if (conv->altform_0) {
80001ad0:	0087f713          	andi	a4,a5,8
80001ad4:	f80706e3          	beqz	a4,80001a60 <z_cbvprintf_impl+0x634>
			nj_len += 1U;
80001ad8:	00168693          	addi	a3,a3,1
80001adc:	f85ff06f          	j	80001a60 <z_cbvprintf_impl+0x634>
				char pad = ' ';
80001ae0:	02000c13          	li	s8,32
80001ae4:	0080006f          	j	80001aec <z_cbvprintf_impl+0x6c0>
					pad = '0';
80001ae8:	03000c13          	li	s8,48
80001aec:	000a0793          	mv	a5,s4
				}

				while (width-- > 0) {
80001af0:	fff78a13          	addi	s4,a5,-1
80001af4:	02f05063          	blez	a5,80001b14 <z_cbvprintf_impl+0x6e8>
					OUTC(pad);
80001af8:	00048593          	mv	a1,s1
80001afc:	000c0513          	mv	a0,s8
80001b00:	000900e7          	jalr	s2
80001b04:	0e054863          	bltz	a0,80001bf4 <z_cbvprintf_impl+0x7c8>
80001b08:	00140413          	addi	s0,s0,1
				while (width-- > 0) {
80001b0c:	000a0793          	mv	a5,s4
80001b10:	fe1ff06f          	j	80001af0 <z_cbvprintf_impl+0x6c4>
		}

		/* If we have a sign that hasn't been emitted, now's the
		 * time....
		 */
		if (sign != 0) {
80001b14:	000b8c63          	beqz	s7,80001b2c <z_cbvprintf_impl+0x700>
			OUTC(sign);
80001b18:	00048593          	mv	a1,s1
80001b1c:	000b8513          	mv	a0,s7
80001b20:	000900e7          	jalr	s2
80001b24:	0c054863          	bltz	a0,80001bf4 <z_cbvprintf_impl+0x7c8>
80001b28:	00140413          	addi	s0,s0,1
				OUTC('0');
			}

			OUTS(cp, bpe);
		} else {
			if (conv->altform_0c | conv->altform_0) {
80001b2c:	02012783          	lw	a5,32(sp)
80001b30:	0147d713          	srli	a4,a5,0x14
80001b34:	00177713          	andi	a4,a4,1
80001b38:	0137d793          	srli	a5,a5,0x13
80001b3c:	0017f793          	andi	a5,a5,1
80001b40:	00f767b3          	or	a5,a4,a5
80001b44:	00078c63          	beqz	a5,80001b5c <z_cbvprintf_impl+0x730>
				OUTC('0');
80001b48:	00048593          	mv	a1,s1
80001b4c:	03000513          	li	a0,48
80001b50:	000900e7          	jalr	s2
80001b54:	0a054063          	bltz	a0,80001bf4 <z_cbvprintf_impl+0x7c8>
80001b58:	00140413          	addi	s0,s0,1
			}

			if (conv->altform_0c) {
80001b5c:	02214783          	lbu	a5,34(sp)
80001b60:	0107f793          	andi	a5,a5,16
80001b64:	00078c63          	beqz	a5,80001b7c <z_cbvprintf_impl+0x750>
				OUTC(conv->specifier);
80001b68:	00048593          	mv	a1,s1
80001b6c:	02314503          	lbu	a0,35(sp)
80001b70:	000900e7          	jalr	s2
80001b74:	08054063          	bltz	a0,80001bf4 <z_cbvprintf_impl+0x7c8>
80001b78:	00140413          	addi	s0,s0,1
			}

			pad_len = conv->pad0_value;
80001b7c:	02412783          	lw	a5,36(sp)
			while (pad_len-- > 0) {
80001b80:	fff78b93          	addi	s7,a5,-1
80001b84:	02f05063          	blez	a5,80001ba4 <z_cbvprintf_impl+0x778>
				OUTC('0');
80001b88:	00048593          	mv	a1,s1
80001b8c:	03000513          	li	a0,48
80001b90:	000900e7          	jalr	s2
80001b94:	06054063          	bltz	a0,80001bf4 <z_cbvprintf_impl+0x7c8>
80001b98:	00140413          	addi	s0,s0,1
			while (pad_len-- > 0) {
80001b9c:	000b8793          	mv	a5,s7
80001ba0:	fe1ff06f          	j	80001b80 <z_cbvprintf_impl+0x754>
			}

			OUTS(bps, bpe);
80001ba4:	000b0693          	mv	a3,s6
80001ba8:	000a8613          	mv	a2,s5
80001bac:	00048593          	mv	a1,s1
80001bb0:	00090513          	mv	a0,s2
80001bb4:	ff8ff0ef          	jal	ra,800013ac <outs>
80001bb8:	02054e63          	bltz	a0,80001bf4 <z_cbvprintf_impl+0x7c8>
80001bbc:	00a40433          	add	s0,s0,a0
		}

		/* Finish left justification */
		while (width > 0) {
80001bc0:	03405063          	blez	s4,80001be0 <z_cbvprintf_impl+0x7b4>
			OUTC(' ');
80001bc4:	00048593          	mv	a1,s1
80001bc8:	02000513          	li	a0,32
80001bcc:	000900e7          	jalr	s2
80001bd0:	02054263          	bltz	a0,80001bf4 <z_cbvprintf_impl+0x7c8>
80001bd4:	00140413          	addi	s0,s0,1
			--width;
80001bd8:	fffa0a13          	addi	s4,s4,-1
80001bdc:	fe5ff06f          	j	80001bc0 <z_cbvprintf_impl+0x794>
		fp = extract_conversion(conv, sp);
80001be0:	00098a93          	mv	s5,s3
80001be4:	889ff06f          	j	8000146c <z_cbvprintf_impl+0x40>
80001be8:	00098a93          	mv	s5,s3
80001bec:	881ff06f          	j	8000146c <z_cbvprintf_impl+0x40>
		}
	}

	return count;
80001bf0:	00040513          	mv	a0,s0
#undef OUTS
#undef OUTC
}
80001bf4:	07c12083          	lw	ra,124(sp)
80001bf8:	07812403          	lw	s0,120(sp)
80001bfc:	07412483          	lw	s1,116(sp)
80001c00:	07012903          	lw	s2,112(sp)
80001c04:	06c12983          	lw	s3,108(sp)
80001c08:	06812a03          	lw	s4,104(sp)
80001c0c:	06412a83          	lw	s5,100(sp)
80001c10:	06012b03          	lw	s6,96(sp)
80001c14:	05c12b83          	lw	s7,92(sp)
80001c18:	05812c03          	lw	s8,88(sp)
80001c1c:	08010113          	addi	sp,sp,128
80001c20:	00008067          	ret

80001c24 <_ConfigAbsSyms>:
GEN_ABSOLUTE_SYM_KCONFIG(CONFIG_BUILD_OUTPUT_BIN, 1);
GEN_ABSOLUTE_SYM_KCONFIG(CONFIG_WARN_DEPRECATED, 1);
GEN_ABSOLUTE_SYM_KCONFIG(CONFIG_ENFORCE_ZEPHYR_STDINT, 1);
GEN_ABSOLUTE_SYM_KCONFIG(CONFIG_COMPAT_INCLUDES, 1);

GEN_ABS_SYM_END
80001c24:	00008067          	ret

80001c28 <arch_cpu_idle>:
 * This function will be called by the kernel idle loop or possibly within
 * an implementation of _pm_save_idle in the kernel when the
 * '_pm_save_flag' variable is non-zero.
 */
void arch_cpu_idle(void)
{
80001c28:	ff010113          	addi	sp,sp,-16
80001c2c:	00112623          	sw	ra,12(sp)
	sys_trace_idle();
80001c30:	090000ef          	jal	ra,80001cc0 <sys_trace_idle>
 * use atomic instruction csrs to unlock global irq
 * csrs: atomic set bits in CSR register
 */
static ALWAYS_INLINE void arch_irq_unlock(unsigned int key)
{
	__asm__ volatile ("csrs mstatus, %0"
80001c34:	00800793          	li	a5,8
80001c38:	3007a073          	csrs	mstatus,a5
	__asm__ volatile("wfi");
80001c3c:	10500073          	wfi
	riscv_idle(MSTATUS_IEN);
}
80001c40:	00c12083          	lw	ra,12(sp)
80001c44:	01010113          	addi	sp,sp,16
80001c48:	00008067          	ret

80001c4c <arch_irq_enable>:
{
#if defined(CONFIG_3RD_LEVEL_INTERRUPTS)
	return ((irq >> 16) & 0xFF) != 0 ? 3 :
		(((irq >> 8) & 0xFF) == 0 ? 1 : 2);
#elif defined(CONFIG_2ND_LEVEL_INTERRUPTS)
	return ((irq >> 8) & 0xFF) == 0 ? 1 : 2;
80001c4c:	00855793          	srli	a5,a0,0x8
80001c50:	0ff7f713          	zext.b	a4,a5
80001c54:	00071a63          	bnez	a4,80001c68 <arch_irq_enable+0x1c>
	 * CSR mie register is updated using atomic instruction csrrs
	 * (atomic read and set bits in CSR register)
	 */
	__asm__ volatile ("csrrs %0, mie, %1\n"
			  : "=r" (mie)
			  : "r" (1 << irq));
80001c58:	00100793          	li	a5,1
80001c5c:	00a797b3          	sll	a5,a5,a0
	__asm__ volatile ("csrrs %0, mie, %1\n"
80001c60:	3047a7f3          	csrrs	a5,mie,a5
80001c64:	00008067          	ret
{
80001c68:	ff010113          	addi	sp,sp,-16
80001c6c:	00112623          	sw	ra,12(sp)
		riscv_plic_irq_enable(irq);
80001c70:	fff78513          	addi	a0,a5,-1
80001c74:	530000ef          	jal	ra,800021a4 <riscv_plic_irq_enable>
}
80001c78:	00c12083          	lw	ra,12(sp)
80001c7c:	01010113          	addi	sp,sp,16
80001c80:	00008067          	ret

80001c84 <z_riscv_irq_priority_set>:
80001c84:	00855513          	srli	a0,a0,0x8
80001c88:	0ff57793          	zext.b	a5,a0
80001c8c:	00079463          	bnez	a5,80001c94 <z_riscv_irq_priority_set+0x10>
80001c90:	00008067          	ret
	return !!(mie & (1 << irq));
}

#if defined(CONFIG_RISCV_HAS_PLIC)
void z_riscv_irq_priority_set(unsigned int irq, unsigned int prio, uint32_t flags)
{
80001c94:	ff010113          	addi	sp,sp,-16
80001c98:	00112623          	sw	ra,12(sp)
	unsigned int level = irq_get_level(irq);

	if (level == 2) {
		irq = irq_from_level_2(irq);
		riscv_plic_set_priority(irq, prio);
80001c9c:	fff50513          	addi	a0,a0,-1
80001ca0:	538000ef          	jal	ra,800021d8 <riscv_plic_set_priority>
	}
}
80001ca4:	00c12083          	lw	ra,12(sp)
80001ca8:	01010113          	addi	sp,sp,16
80001cac:	00008067          	ret

80001cb0 <soc_interrupt_init>:
	__asm__ volatile ("csrrc %0, mstatus, %1"
80001cb0:	300477f3          	csrrci	a5,mstatus,8
__weak void soc_interrupt_init(void)
{
	/* ensure that all interrupts are disabled */
	(void)arch_irq_lock();

	__asm__ volatile ("csrwi mie, 0\n"
80001cb4:	30405073          	csrwi	mie,0
80001cb8:	34405073          	csrwi	mip,0
			  "csrwi mip, 0\n");
}
80001cbc:	00008067          	ret

80001cc0 <sys_trace_idle>:

void sys_trace_isr_exit(void) {}

void sys_trace_isr_exit_to_scheduler(void) {}

void sys_trace_idle(void) {}
80001cc0:	00008067          	ret

80001cc4 <bad_stack_pointer>:
		return true;
	}
#endif

	return false;
}
80001cc4:	00000513          	li	a0,0
80001cc8:	00008067          	ret

80001ccc <z_riscv_fatal_error>:
{
80001ccc:	ff010113          	addi	sp,sp,-16
80001cd0:	00112623          	sw	ra,12(sp)
	z_fatal_error(reason, esf);
80001cd4:	51d000ef          	jal	ra,800029f0 <z_fatal_error>

80001cd8 <_Fault>:

void _Fault(z_arch_esf_t *esf)
{
80001cd8:	ff010113          	addi	sp,sp,-16
80001cdc:	00112623          	sw	ra,12(sp)
80001ce0:	00812423          	sw	s0,8(sp)
80001ce4:	00050413          	mv	s0,a0
	}
#endif /* CONFIG_USERSPACE */

	unsigned long mcause;

	__asm__ volatile("csrr %0, mcause" : "=r" (mcause));
80001ce8:	342027f3          	csrr	a5,mcause

#ifndef CONFIG_SOC_OPENISA_RV32M1_RISCV32
	unsigned long mtval;
	__asm__ volatile("csrr %0, mtval" : "=r" (mtval));
80001cec:	343027f3          	csrr	a5,mtval
	LOG_ERR("  mtval: %lx", mtval);
#endif

	unsigned int reason = K_ERR_CPU_EXCEPTION;

	if (bad_stack_pointer(esf)) {
80001cf0:	fd5ff0ef          	jal	ra,80001cc4 <bad_stack_pointer>
80001cf4:	00050463          	beqz	a0,80001cfc <_Fault+0x24>
		reason = K_ERR_STACK_CHK_FAIL;
80001cf8:	00200513          	li	a0,2
	}

	z_riscv_fatal_error(reason, esf);
80001cfc:	00040593          	mv	a1,s0
80001d00:	fcdff0ef          	jal	ra,80001ccc <z_riscv_fatal_error>

80001d04 <z_irq_spurious>:
#include <kernel_internal.h>
#include <zephyr/logging/log.h>
LOG_MODULE_DECLARE(os, CONFIG_KERNEL_LOG_LEVEL);

FUNC_NORETURN void z_irq_spurious(const void *unused)
{
80001d04:	ff010113          	addi	sp,sp,-16
80001d08:	00112623          	sw	ra,12(sp)
	unsigned long mcause;

	ARG_UNUSED(unused);

	__asm__ volatile("csrr %0, mcause" : "=r" (mcause));
80001d0c:	342027f3          	csrr	a5,mcause
	if (mcause == RISCV_MACHINE_EXT_IRQ) {
		LOG_ERR("PLIC interrupt line causing the IRQ: %d",
			riscv_plic_get_irq());
	}
#endif
	z_riscv_fatal_error(K_ERR_SPURIOUS_IRQ, NULL);
80001d10:	00000593          	li	a1,0
80001d14:	00100513          	li	a0,1
80001d18:	fb5ff0ef          	jal	ra,80001ccc <z_riscv_fatal_error>

80001d1c <_PrepC>:
 *
 * This routine prepares for the execution of and runs C code.
 */

void _PrepC(void)
{
80001d1c:	ff010113          	addi	sp,sp,-16
80001d20:	00112623          	sw	ra,12(sp)
	z_bss_zero();
80001d24:	6cd000ef          	jal	ra,80002bf0 <z_bss_zero>
	z_data_copy();
#if defined(CONFIG_RISCV_SOC_INTERRUPT_INIT)
	soc_interrupt_init();
80001d28:	f89ff0ef          	jal	ra,80001cb0 <soc_interrupt_init>
#endif
	z_cstart();
80001d2c:	024010ef          	jal	ra,80002d50 <z_cstart>

80001d30 <__initialize>:
/*
 * Remainder of asm-land initialization code before we can jump into
 * the C domain
 */
SECTION_FUNC(TEXT, __initialize)
	csrr a0, mhartid
80001d30:	f1402573          	csrr	a0,mhartid
	beqz a0, boot_first_core
80001d34:	00050a63          	beqz	a0,80001d48 <boot_first_core>

	li t0, CONFIG_MP_NUM_CPUS
80001d38:	00100293          	li	t0,1
	blt a0, t0, boot_secondary_core
80001d3c:	04554263          	blt	a0,t0,80001d80 <boot_secondary_core>

80001d40 <loop_unconfigured_cores>:

loop_unconfigured_cores:
	wfi
80001d40:	10500073          	wfi
	j loop_unconfigured_cores
80001d44:	ffdff06f          	j	80001d40 <loop_unconfigured_cores>

80001d48 <boot_first_core>:
	fscsr zero
#endif

#ifdef CONFIG_INIT_STACKS
	/* Pre-populate all bytes in z_interrupt_stacks with 0xAA */
	la t0, z_interrupt_stacks
80001d48:	00005297          	auipc	t0,0x5
80001d4c:	f8828293          	addi	t0,t0,-120 # 80006cd0 <z_interrupt_stacks>
	li t1, __z_interrupt_stack_SIZEOF
80001d50:	00001337          	lui	t1,0x1
	add t1, t1, t0
80001d54:	00530333          	add	t1,t1,t0

	/* Populate z_interrupt_stacks with 0xaaaaaaaa */
	li t2, 0xaaaaaaaa
80001d58:	aaaab3b7          	lui	t2,0xaaaab
80001d5c:	aaa38393          	addi	t2,t2,-1366 # aaaaaaaa <CONFIG_SYSTEM_WORKQUEUE_PRIORITY+0xaaaaaaab>

80001d60 <aa_loop>:
aa_loop:
	sw t2, 0x00(t0)
80001d60:	0072a023          	sw	t2,0(t0)
	addi t0, t0, 4
80001d64:	00428293          	addi	t0,t0,4
	blt t0, t1, aa_loop
80001d68:	fe62cce3          	blt	t0,t1,80001d60 <aa_loop>

	/*
	 * Initially, setup stack pointer to
	 * z_interrupt_stacks + __z_interrupt_stack_SIZEOF
	 */
	la sp, z_interrupt_stacks
80001d6c:	00005117          	auipc	sp,0x5
80001d70:	f6410113          	addi	sp,sp,-156 # 80006cd0 <z_interrupt_stacks>
	li t0, __z_interrupt_stack_SIZEOF
80001d74:	000012b7          	lui	t0,0x1
	add sp, sp, t0
80001d78:	00510133          	add	sp,sp,t0

	/*
	 * Jump into C domain. _PrepC zeroes BSS, copies rw data into RAM,
	 * and then enters kernel z_cstart
	 */
	call _PrepC
80001d7c:	fa1ff0ef          	jal	ra,80001d1c <_PrepC>

80001d80 <boot_secondary_core>:

boot_secondary_core:
	la t0, riscv_cpu_wake_flag
80001d80:	00005297          	auipc	t0,0x5
80001d84:	ddc28293          	addi	t0,t0,-548 # 80006b5c <riscv_cpu_wake_flag>
	lr t0, 0(t0)
80001d88:	0002a283          	lw	t0,0(t0)
	bne a0, t0, boot_secondary_core
80001d8c:	fe551ae3          	bne	a0,t0,80001d80 <boot_secondary_core>

	/* Set up stack */
	la t0, riscv_cpu_sp
80001d90:	00005297          	auipc	t0,0x5
80001d94:	dc828293          	addi	t0,t0,-568 # 80006b58 <riscv_cpu_sp>
	lr sp, 0(t0)
80001d98:	0002a103          	lw	sp,0(t0)

	la t0, riscv_cpu_wake_flag
80001d9c:	00005297          	auipc	t0,0x5
80001da0:	dc028293          	addi	t0,t0,-576 # 80006b5c <riscv_cpu_wake_flag>
	sr zero, 0(t0)
80001da4:	0002a023          	sw	zero,0(t0)
	j z_riscv_secondary_cpu_init
80001da8:	07c0006f          	j	80001e24 <z_riscv_secondary_cpu_init>

80001dac <z_riscv_switch>:

/* void z_riscv_switch(k_thread_t *switch_to, k_thread_t *switch_from) */
SECTION_FUNC(TEXT, z_riscv_switch)

	/* Save the old thread's callee-saved registers */
	DO_CALLEE_SAVED(sr, a1)
80001dac:	0215aa23          	sw	ra,52(a1)
80001db0:	0285ac23          	sw	s0,56(a1)
80001db4:	0295ae23          	sw	s1,60(a1)
80001db8:	0525a023          	sw	s2,64(a1)
80001dbc:	0535a223          	sw	s3,68(a1)
80001dc0:	0545a423          	sw	s4,72(a1)
80001dc4:	0555a623          	sw	s5,76(a1)
80001dc8:	0565a823          	sw	s6,80(a1)
80001dcc:	0575aa23          	sw	s7,84(a1)
80001dd0:	0585ac23          	sw	s8,88(a1)
80001dd4:	0595ae23          	sw	s9,92(a1)
80001dd8:	07a5a023          	sw	s10,96(a1)
80001ddc:	07b5a223          	sw	s11,100(a1)
	DO_FP_CALLEE_SAVED(fsr, a1)
skip_store_fp_callee_saved:
#endif /* CONFIG_FPU && CONFIG_FPU_SHARING */

	/* Save the old thread's stack pointer */
	sr sp, _thread_offset_to_sp(a1)
80001de0:	0225a823          	sw	sp,48(a1)

	/* Set thread->switch_handle = thread to mark completion */
	sr a1, ___thread_t_switch_handle_OFFSET(a1)
80001de4:	06b5ae23          	sw	a1,124(a1)

	/* Get the new thread's stack pointer */
	lr sp, _thread_offset_to_sp(a0)
80001de8:	03052103          	lw	sp,48(a0)
	call z_thread_mark_switched_in
	mv a0, s0
#endif

	/* Restore the new thread's callee-saved registers */
	DO_CALLEE_SAVED(lr, a0)
80001dec:	03452083          	lw	ra,52(a0)
80001df0:	03852403          	lw	s0,56(a0)
80001df4:	03c52483          	lw	s1,60(a0)
80001df8:	04052903          	lw	s2,64(a0)
80001dfc:	04452983          	lw	s3,68(a0)
80001e00:	04852a03          	lw	s4,72(a0)
80001e04:	04c52a83          	lw	s5,76(a0)
80001e08:	05052b03          	lw	s6,80(a0)
80001e0c:	05452b83          	lw	s7,84(a0)
80001e10:	05852c03          	lw	s8,88(a0)
80001e14:	05c52c83          	lw	s9,92(a0)
80001e18:	06052d03          	lw	s10,96(a0)
80001e1c:	06452d83          	lw	s11,100(a0)
	csrc mstatus, t1
1:
#endif /* CONFIG_FPU && CONFIG_FPU_SHARING */

	/* Return to arch_switch() or _irq_wrapper() */
	ret
80001e20:	00008067          	ret

80001e24 <z_riscv_secondary_cpu_init>:
		;
	}
}

void z_riscv_secondary_cpu_init(int cpu_num)
{
80001e24:	ff010113          	addi	sp,sp,-16
80001e28:	00112623          	sw	ra,12(sp)
80001e2c:	00812423          	sw	s0,8(sp)
80001e30:	00050413          	mv	s0,a0
#ifdef CONFIG_THREAD_LOCAL_STORAGE
	__asm__("mv tp, %0" : : "r" (z_idle_threads[cpu_num].tls));
#endif
#if defined(CONFIG_RISCV_SOC_INTERRUPT_INIT)
	soc_interrupt_init();
80001e34:	e7dff0ef          	jal	ra,80001cb0 <soc_interrupt_init>
	z_riscv_pmp_init();
#endif
#ifdef CONFIG_SMP
	irq_enable(RISCV_MACHINE_SOFT_IRQ);
#endif
	riscv_cpu_init[cpu_num].fn(riscv_cpu_init[cpu_num].arg);
80001e38:	800077b7          	lui	a5,0x80007
80001e3c:	00341413          	slli	s0,s0,0x3
80001e40:	b6078793          	addi	a5,a5,-1184 # 80006b60 <CONFIG_SYSTEM_WORKQUEUE_PRIORITY+0x80006b61>
80001e44:	008787b3          	add	a5,a5,s0
80001e48:	0007a703          	lw	a4,0(a5)
80001e4c:	0047a503          	lw	a0,4(a5)
80001e50:	000700e7          	jalr	a4

80001e54 <arch_new_thread>:
#ifdef CONFIG_RISCV_SOC_CONTEXT_SAVE
	const struct soc_esf soc_esf_init = {SOC_ESF_INIT};
#endif

	/* Initial stack frame for thread */
	stack_init = (struct __esf *)Z_STACK_PTR_ALIGN(
80001e54:	fb060613          	addi	a2,a2,-80
 * @param ptr Proposed stack pointer address
 * @return Properly aligned stack pointer address
 */
static inline char *z_stack_ptr_align(char *ptr)
{
	return (char *)ROUND_DOWN(ptr, ARCH_STACK_PTR_ALIGN);
80001e58:	ff067613          	andi	a2,a2,-16
				Z_STACK_PTR_TO_FRAME(struct __esf, stack_ptr)
				);

	/* Setup the initial stack frame */
	stack_init->a0 = (unsigned long)entry;
80001e5c:	02d62023          	sw	a3,32(a2)
	stack_init->a1 = (unsigned long)p1;
80001e60:	02e62223          	sw	a4,36(a2)
	stack_init->a2 = (unsigned long)p2;
80001e64:	02f62423          	sw	a5,40(a2)
	stack_init->a3 = (unsigned long)p3;
80001e68:	03062623          	sw	a6,44(a2)
	 *    restored following the MSTATUS value set within the thread stack;
	 * 2) the core will jump to z_thread_entry, as the program
	 *    counter will be restored following the MEPC value set within the
	 *    thread stack.
	 */
	stack_init->mstatus = MSTATUS_DEF_RESTORE;
80001e6c:	000027b7          	lui	a5,0x2
80001e70:	88078793          	addi	a5,a5,-1920 # 1880 <CONFIG_ISR_STACK_SIZE+0x880>
80001e74:	04f62223          	sw	a5,68(a2)
		/* User thread */
		stack_init->mepc = (unsigned long)k_thread_user_mode_enter;

	} else {
		/* Supervisor thread */
		stack_init->mepc = (unsigned long)z_thread_entry;
80001e78:	800017b7          	lui	a5,0x80001
80001e7c:	ad878793          	addi	a5,a5,-1320 # 80000ad8 <CONFIG_SYSTEM_WORKQUEUE_PRIORITY+0x80000ad9>
80001e80:	04f62023          	sw	a5,64(a2)

#ifdef CONFIG_RISCV_SOC_CONTEXT_SAVE
	stack_init->soc_context = soc_esf_init;
#endif

	thread->callee_saved.sp = (unsigned long)stack_init;
80001e84:	02c52823          	sw	a2,48(a0)

	/* where to go when returning from z_riscv_switch() */
	thread->callee_saved.ra = (unsigned long)z_riscv_thread_start;
80001e88:	800007b7          	lui	a5,0x80000
80001e8c:	15c78793          	addi	a5,a5,348 # 8000015c <CONFIG_SYSTEM_WORKQUEUE_PRIORITY+0x8000015d>
80001e90:	02f52a23          	sw	a5,52(a0)

	/* our switch handle is the thread pointer itself */
	thread->switch_handle = thread;
80001e94:	06a52e23          	sw	a0,124(a0)
}
80001e98:	00008067          	ret

80001e9c <malloc_prepare>:
		 "memory space available for newlib heap is less than the "
		 "minimum required size specified by "
		 "CONFIG_NEWLIB_LIBC_MIN_REQUIRED_HEAP_SIZE");

	return 0;
}
80001e9c:	00000513          	li	a0,0
80001ea0:	00008067          	ret

80001ea4 <_stdout_hook_default>:
static int _stdout_hook_default(int c)
{
	(void)(c);  /* Prevent warning about unused argument */

	return EOF;
}
80001ea4:	fff00513          	li	a0,-1
80001ea8:	00008067          	ret

80001eac <_stdin_hook_default>:
}

static unsigned char _stdin_hook_default(void)
{
	return 0;
}
80001eac:	00000513          	li	a0,0
80001eb0:	00008067          	ret

80001eb4 <__stdout_hook_install>:
	_stdout_hook = hook;
80001eb4:	80a1a423          	sw	a0,-2040(gp) # 80009148 <_stdout_hook>
}
80001eb8:	00008067          	ret

80001ebc <z_impl_zephyr_read_stdin>:
{
	_stdin_hook = hook;
}

int z_impl_zephyr_read_stdin(char *buf, int nbytes)
{
80001ebc:	fe010113          	addi	sp,sp,-32
80001ec0:	00112e23          	sw	ra,28(sp)
80001ec4:	00812c23          	sw	s0,24(sp)
80001ec8:	00912a23          	sw	s1,20(sp)
80001ecc:	01212823          	sw	s2,16(sp)
80001ed0:	01312623          	sw	s3,12(sp)
80001ed4:	00050993          	mv	s3,a0
80001ed8:	00058913          	mv	s2,a1
	int i = 0;

	for (i = 0; i < nbytes; i++) {
80001edc:	00000413          	li	s0,0
80001ee0:	0080006f          	j	80001ee8 <z_impl_zephyr_read_stdin+0x2c>
80001ee4:	00140413          	addi	s0,s0,1
80001ee8:	03245663          	bge	s0,s2,80001f14 <z_impl_zephyr_read_stdin+0x58>
		*(buf + i) = _stdin_hook();
80001eec:	008984b3          	add	s1,s3,s0
80001ef0:	800097b7          	lui	a5,0x80009
80001ef4:	1447a783          	lw	a5,324(a5) # 80009144 <CONFIG_SYSTEM_WORKQUEUE_PRIORITY+0x80009145>
80001ef8:	000780e7          	jalr	a5
80001efc:	00a48023          	sb	a0,0(s1)
		if ((*(buf + i) == '\n') || (*(buf + i) == '\r')) {
80001f00:	00a00793          	li	a5,10
80001f04:	00f50663          	beq	a0,a5,80001f10 <z_impl_zephyr_read_stdin+0x54>
80001f08:	00d00793          	li	a5,13
80001f0c:	fcf51ce3          	bne	a0,a5,80001ee4 <z_impl_zephyr_read_stdin+0x28>
			i++;
80001f10:	00140413          	addi	s0,s0,1
			break;
		}
	}
	return i;
}
80001f14:	00040513          	mv	a0,s0
80001f18:	01c12083          	lw	ra,28(sp)
80001f1c:	01812403          	lw	s0,24(sp)
80001f20:	01412483          	lw	s1,20(sp)
80001f24:	01012903          	lw	s2,16(sp)
80001f28:	00c12983          	lw	s3,12(sp)
80001f2c:	02010113          	addi	sp,sp,32
80001f30:	00008067          	ret

80001f34 <z_impl_zephyr_write_stdout>:
}
#include <syscalls/zephyr_read_stdin_mrsh.c>
#endif

int z_impl_zephyr_write_stdout(const void *buffer, int nbytes)
{
80001f34:	fe010113          	addi	sp,sp,-32
80001f38:	00112e23          	sw	ra,28(sp)
80001f3c:	00812c23          	sw	s0,24(sp)
80001f40:	00912a23          	sw	s1,20(sp)
80001f44:	01212823          	sw	s2,16(sp)
80001f48:	01312623          	sw	s3,12(sp)
80001f4c:	00050993          	mv	s3,a0
80001f50:	00058913          	mv	s2,a1
	const char *buf = buffer;
	int i;

	for (i = 0; i < nbytes; i++) {
80001f54:	00000413          	li	s0,0
80001f58:	0140006f          	j	80001f6c <z_impl_zephyr_write_stdout+0x38>
		if (*(buf + i) == '\n') {
			_stdout_hook('\r');
		}
		_stdout_hook(*(buf + i));
80001f5c:	8081a783          	lw	a5,-2040(gp) # 80009148 <_stdout_hook>
80001f60:	0004c503          	lbu	a0,0(s1)
80001f64:	000780e7          	jalr	a5
	for (i = 0; i < nbytes; i++) {
80001f68:	00140413          	addi	s0,s0,1
80001f6c:	03245263          	bge	s0,s2,80001f90 <z_impl_zephyr_write_stdout+0x5c>
		if (*(buf + i) == '\n') {
80001f70:	008984b3          	add	s1,s3,s0
80001f74:	0004c703          	lbu	a4,0(s1)
80001f78:	00a00793          	li	a5,10
80001f7c:	fef710e3          	bne	a4,a5,80001f5c <z_impl_zephyr_write_stdout+0x28>
			_stdout_hook('\r');
80001f80:	8081a783          	lw	a5,-2040(gp) # 80009148 <_stdout_hook>
80001f84:	00d00513          	li	a0,13
80001f88:	000780e7          	jalr	a5
80001f8c:	fd1ff06f          	j	80001f5c <z_impl_zephyr_write_stdout+0x28>
	}
	return nbytes;
}
80001f90:	00090513          	mv	a0,s2
80001f94:	01c12083          	lw	ra,28(sp)
80001f98:	01812403          	lw	s0,24(sp)
80001f9c:	01412483          	lw	s1,20(sp)
80001fa0:	01012903          	lw	s2,16(sp)
80001fa4:	00c12983          	lw	s3,12(sp)
80001fa8:	02010113          	addi	sp,sp,32
80001fac:	00008067          	ret

80001fb0 <_read>:
#include <syscalls/zephyr_write_stdout_mrsh.c>
#endif

#ifndef CONFIG_POSIX_API
int _read(int fd, char *buf, int nbytes)
{
80001fb0:	ff010113          	addi	sp,sp,-16
80001fb4:	00112623          	sw	ra,12(sp)
80001fb8:	00058513          	mv	a0,a1
80001fbc:	00060593          	mv	a1,a2
		union { uintptr_t x; int val; } parm1 = { .val = nbytes };
		return (int) arch_syscall_invoke2(parm0.x, parm1.x, K_SYSCALL_ZEPHYR_READ_STDIN);
	}
#endif
	compiler_barrier();
	return z_impl_zephyr_read_stdin(buf, nbytes);
80001fc0:	efdff0ef          	jal	ra,80001ebc <z_impl_zephyr_read_stdin>
	ARG_UNUSED(fd);

	return zephyr_read_stdin(buf, nbytes);
}
80001fc4:	00c12083          	lw	ra,12(sp)
80001fc8:	01010113          	addi	sp,sp,16
80001fcc:	00008067          	ret

80001fd0 <_write>:
__weak FUNC_ALIAS(_read, read, int);

int _write(int fd, const void *buf, int nbytes)
{
80001fd0:	ff010113          	addi	sp,sp,-16
80001fd4:	00112623          	sw	ra,12(sp)
80001fd8:	00058513          	mv	a0,a1
80001fdc:	00060593          	mv	a1,a2
		union { uintptr_t x; int val; } parm1 = { .val = nbytes };
		return (int) arch_syscall_invoke2(parm0.x, parm1.x, K_SYSCALL_ZEPHYR_WRITE_STDOUT);
	}
#endif
	compiler_barrier();
	return z_impl_zephyr_write_stdout(buf, nbytes);
80001fe0:	f55ff0ef          	jal	ra,80001f34 <z_impl_zephyr_write_stdout>
	ARG_UNUSED(fd);

	return zephyr_write_stdout(buf, nbytes);
}
80001fe4:	00c12083          	lw	ra,12(sp)
80001fe8:	01010113          	addi	sp,sp,16
80001fec:	00008067          	ret

80001ff0 <_close>:
__weak FUNC_ALIAS(_open, open, int);

int _close(int file)
{
	return -1;
}
80001ff0:	fff00513          	li	a0,-1
80001ff4:	00008067          	ret

80001ff8 <_lseek>:
__weak FUNC_ALIAS(_close, close, int);

int _lseek(int file, int ptr, int dir)
{
	return 0;
}
80001ff8:	00000513          	li	a0,0
80001ffc:	00008067          	ret

80002000 <_isatty>:
#endif

int _isatty(int file)
{
	return file <= 2;
}
80002000:	00352513          	slti	a0,a0,3
80002004:	00008067          	ret

80002008 <_fstat>:
}
__weak FUNC_ALIAS(_getpid, getpid, int);

int _fstat(int file, struct stat *st)
{
	st->st_mode = S_IFCHR;
80002008:	000027b7          	lui	a5,0x2
8000200c:	00f5a223          	sw	a5,4(a1)
	return 0;
}
80002010:	00000513          	li	a0,0
80002014:	00008067          	ret

80002018 <_sbrk>:
		;
	}
}

void *_sbrk(intptr_t count)
{
80002018:	00050713          	mv	a4,a0
	void *ret, *ptr;

	ptr = ((char *)HEAP_BASE) + heap_sz;
8000201c:	800077b7          	lui	a5,0x80007
80002020:	b687a683          	lw	a3,-1176(a5) # 80006b68 <CONFIG_SYSTEM_WORKQUEUE_PRIORITY+0x80006b69>
80002024:	85818793          	addi	a5,gp,-1960 # 80009198 <__data_region_end>
80002028:	00f68533          	add	a0,a3,a5

	if ((heap_sz + count) < MAX_HEAP_SIZE) {
8000202c:	00d70733          	add	a4,a4,a3
80002030:	c00006b7          	lui	a3,0xc0000
80002034:	40f687b3          	sub	a5,a3,a5
80002038:	00f77863          	bgeu	a4,a5,80002048 <_sbrk+0x30>
		heap_sz += count;
8000203c:	800077b7          	lui	a5,0x80007
80002040:	b6e7a423          	sw	a4,-1176(a5) # 80006b68 <CONFIG_SYSTEM_WORKQUEUE_PRIORITY+0x80006b69>
		ret = ptr;
80002044:	00008067          	ret

#ifdef CONFIG_NEWLIB_LIBC_HEAP_LISTENER
		heap_listener_notify_resize(HEAP_ID_LIBC, ptr, (char *)ptr + count);
#endif
	} else {
		ret = (void *)-1;
80002048:	fff00513          	li	a0,-1
	}

	return ret;
}
8000204c:	00008067          	ret

80002050 <__retarget_lock_init_recursive>:
	k_sem_init((struct k_sem *)*lock, 1, 1);
}

/* Create a new dynamic recursive lock */
void __retarget_lock_init_recursive(_LOCK_T *lock)
{
80002050:	ff010113          	addi	sp,sp,-16
80002054:	00112623          	sw	ra,12(sp)
80002058:	00812423          	sw	s0,8(sp)
8000205c:	00050413          	mv	s0,a0
	__ASSERT_NO_MSG(lock != NULL);

	/* Allocate mutex object */
#ifndef CONFIG_USERSPACE
	*lock = malloc(sizeof(struct k_mutex));
80002060:	01400513          	li	a0,20
80002064:	720020ef          	jal	ra,80004784 <malloc>
80002068:	00a42023          	sw	a0,0(s0)
		union { uintptr_t x; struct k_mutex * val; } parm0 = { .val = mutex };
		return (int) arch_syscall_invoke1(parm0.x, K_SYSCALL_K_MUTEX_INIT);
	}
#endif
	compiler_barrier();
	return z_impl_k_mutex_init(mutex);
8000206c:	000010ef          	jal	ra,8000306c <z_impl_k_mutex_init>
	*lock = k_object_alloc(K_OBJ_MUTEX);
#endif /* !CONFIG_USERSPACE */
	__ASSERT(*lock != NULL, "recursive lock allocation failed");

	k_mutex_init((struct k_mutex *)*lock);
}
80002070:	00c12083          	lw	ra,12(sp)
80002074:	00812403          	lw	s0,8(sp)
80002078:	01010113          	addi	sp,sp,16
8000207c:	00008067          	ret

80002080 <__retarget_lock_acquire_recursive>:
	k_sem_take((struct k_sem *)lock, K_FOREVER);
}

/* Acquiure recursive lock */
void __retarget_lock_acquire_recursive(_LOCK_T lock)
{
80002080:	ff010113          	addi	sp,sp,-16
80002084:	00112623          	sw	ra,12(sp)
		union { struct { uintptr_t lo, hi; } split; k_timeout_t val; } parm1 = { .val = timeout };
		return (int) arch_syscall_invoke3(parm0.x, parm1.split.lo, parm1.split.hi, K_SYSCALL_K_MUTEX_LOCK);
	}
#endif
	compiler_barrier();
	return z_impl_k_mutex_lock(mutex, timeout);
80002088:	fff00593          	li	a1,-1
8000208c:	fff00613          	li	a2,-1
80002090:	7f5000ef          	jal	ra,80003084 <z_impl_k_mutex_lock>
	__ASSERT_NO_MSG(lock != NULL);
	k_mutex_lock((struct k_mutex *)lock, K_FOREVER);
}
80002094:	00c12083          	lw	ra,12(sp)
80002098:	01010113          	addi	sp,sp,16
8000209c:	00008067          	ret

800020a0 <__retarget_lock_release_recursive>:
	k_sem_give((struct k_sem *)lock);
}

/* Release recursive lock */
void __retarget_lock_release_recursive(_LOCK_T lock)
{
800020a0:	ff010113          	addi	sp,sp,-16
800020a4:	00112623          	sw	ra,12(sp)
		union { uintptr_t x; struct k_mutex * val; } parm0 = { .val = mutex };
		return (int) arch_syscall_invoke1(parm0.x, K_SYSCALL_K_MUTEX_UNLOCK);
	}
#endif
	compiler_barrier();
	return z_impl_k_mutex_unlock(mutex);
800020a8:	158010ef          	jal	ra,80003200 <z_impl_k_mutex_unlock>
	__ASSERT_NO_MSG(lock != NULL);
	k_mutex_unlock((struct k_mutex *)lock);
}
800020ac:	00c12083          	lw	ra,12(sp)
800020b0:	01010113          	addi	sp,sp,16
800020b4:	00008067          	ret

800020b8 <plic_init>:
 * @brief Initialize the Platform Level Interrupt Controller
 *
 * @retval 0 on success.
 */
static int plic_init(const struct device *dev)
{
800020b8:	ff010113          	addi	sp,sp,-16
800020bc:	00112623          	sw	ra,12(sp)
	volatile struct plic_regs_t *regs =
	    (volatile struct plic_regs_t *)PLIC_REG;
	int i;

	/* Ensure that all interrupts are disabled initially */
	for (i = 0; i < PLIC_EN_SIZE; i++) {
800020c0:	00000793          	li	a5,0
	volatile uint32_t *en = (volatile uint32_t *)PLIC_IRQ_EN;
800020c4:	0c002737          	lui	a4,0xc002
	for (i = 0; i < PLIC_EN_SIZE; i++) {
800020c8:	0100006f          	j	800020d8 <plic_init+0x20>
		*en = 0U;
800020cc:	00072023          	sw	zero,0(a4) # c002000 <CONFIG_SRAM_SIZE+0xbf02000>
		en++;
800020d0:	00470713          	addi	a4,a4,4
	for (i = 0; i < PLIC_EN_SIZE; i++) {
800020d4:	00178793          	addi	a5,a5,1
800020d8:	00100693          	li	a3,1
800020dc:	fef6d8e3          	bge	a3,a5,800020cc <plic_init+0x14>
	}

	/* Set priority of each interrupt line to 0 initially */
	for (i = 0; i < PLIC_IRQS; i++) {
800020e0:	00000793          	li	a5,0
	volatile uint32_t *prio = (volatile uint32_t *)PLIC_PRIO;
800020e4:	0c000737          	lui	a4,0xc000
800020e8:	0100006f          	j	800020f8 <plic_init+0x40>
		*prio = 0U;
800020ec:	00072023          	sw	zero,0(a4) # c000000 <CONFIG_SRAM_SIZE+0xbf00000>
		prio++;
800020f0:	00470713          	addi	a4,a4,4
	for (i = 0; i < PLIC_IRQS; i++) {
800020f4:	00178793          	addi	a5,a5,1
800020f8:	03300693          	li	a3,51
800020fc:	fef6d8e3          	bge	a3,a5,800020ec <plic_init+0x34>
	}

	/* Set threshold priority to 0 */
	regs->threshold_prio = 0U;
80002100:	0c2007b7          	lui	a5,0xc200
80002104:	0007a023          	sw	zero,0(a5) # c200000 <CONFIG_SRAM_SIZE+0xc100000>

	/* Setup IRQ handler for PLIC driver */
	IRQ_CONNECT(RISCV_MACHINE_EXT_IRQ,
80002108:	00000613          	li	a2,0
8000210c:	00000593          	li	a1,0
80002110:	00b00513          	li	a0,11
80002114:	b71ff0ef          	jal	ra,80001c84 <z_riscv_irq_priority_set>
		    plic_irq_handler,
		    NULL,
		    0);

	/* Enable IRQ for PLIC driver */
	irq_enable(RISCV_MACHINE_EXT_IRQ);
80002118:	00b00513          	li	a0,11
8000211c:	b31ff0ef          	jal	ra,80001c4c <arch_irq_enable>

	return 0;
}
80002120:	00000513          	li	a0,0
80002124:	00c12083          	lw	ra,12(sp)
80002128:	01010113          	addi	sp,sp,16
8000212c:	00008067          	ret

80002130 <plic_irq_handler>:
{
80002130:	ff010113          	addi	sp,sp,-16
80002134:	00112623          	sw	ra,12(sp)
80002138:	00812423          	sw	s0,8(sp)
	irq = regs->claim_complete;
8000213c:	0c2007b7          	lui	a5,0xc200
80002140:	0047a403          	lw	s0,4(a5) # c200004 <CONFIG_SRAM_SIZE+0xc100004>
	save_irq = irq;
80002144:	800077b7          	lui	a5,0x80007
80002148:	b687a623          	sw	s0,-1172(a5) # 80006b6c <CONFIG_SYSTEM_WORKQUEUE_PRIORITY+0x80006b6d>
	if (irq == 0U || irq >= PLIC_IRQS)
8000214c:	fff40713          	addi	a4,s0,-1
80002150:	03200793          	li	a5,50
80002154:	04e7e263          	bltu	a5,a4,80002198 <plic_irq_handler+0x68>
	irq += CONFIG_2ND_LVL_ISR_TBL_OFFSET;
80002158:	00c40413          	addi	s0,s0,12
	ite->isr(ite->arg);
8000215c:	800067b7          	lui	a5,0x80006
80002160:	00341413          	slli	s0,s0,0x3
80002164:	32878793          	addi	a5,a5,808 # 80006328 <CONFIG_SYSTEM_WORKQUEUE_PRIORITY+0x80006329>
80002168:	008787b3          	add	a5,a5,s0
8000216c:	0047a703          	lw	a4,4(a5)
80002170:	0007a503          	lw	a0,0(a5)
80002174:	000700e7          	jalr	a4
	regs->claim_complete = save_irq;
80002178:	800077b7          	lui	a5,0x80007
8000217c:	b6c7a703          	lw	a4,-1172(a5) # 80006b6c <CONFIG_SYSTEM_WORKQUEUE_PRIORITY+0x80006b6d>
80002180:	0c2007b7          	lui	a5,0xc200
80002184:	00e7a223          	sw	a4,4(a5) # c200004 <CONFIG_SRAM_SIZE+0xc100004>
}
80002188:	00c12083          	lw	ra,12(sp)
8000218c:	00812403          	lw	s0,8(sp)
80002190:	01010113          	addi	sp,sp,16
80002194:	00008067          	ret
		z_irq_spurious(NULL);
80002198:	00000513          	li	a0,0
8000219c:	b69ff0ef          	jal	ra,80001d04 <z_irq_spurious>
800021a0:	fb9ff06f          	j	80002158 <plic_irq_handler+0x28>

800021a4 <riscv_plic_irq_enable>:
800021a4:	30047773          	csrrci	a4,mstatus,8
	en += (irq >> 5);
800021a8:	00555693          	srli	a3,a0,0x5
800021ac:	00269693          	slli	a3,a3,0x2
800021b0:	0c0027b7          	lui	a5,0xc002
800021b4:	00d787b3          	add	a5,a5,a3
	*en |= (1 << (irq & 31));
800021b8:	0007a683          	lw	a3,0(a5) # c002000 <CONFIG_SRAM_SIZE+0xbf02000>
800021bc:	00100613          	li	a2,1
800021c0:	00a61633          	sll	a2,a2,a0
800021c4:	00c6e6b3          	or	a3,a3,a2
800021c8:	00d7a023          	sw	a3,0(a5)
			  :
			  : "r" (key & MSTATUS_IEN)
800021cc:	00877793          	andi	a5,a4,8
	__asm__ volatile ("csrs mstatus, %0"
800021d0:	3007a073          	csrs	mstatus,a5
}
800021d4:	00008067          	ret

800021d8 <riscv_plic_set_priority>:
	if (priority > PLIC_MAX_PRIO)
800021d8:	00700793          	li	a5,7
800021dc:	00b7f463          	bgeu	a5,a1,800021e4 <riscv_plic_set_priority+0xc>
		priority = PLIC_MAX_PRIO;
800021e0:	00700593          	li	a1,7
	prio += irq;
800021e4:	00251513          	slli	a0,a0,0x2
800021e8:	0c0007b7          	lui	a5,0xc000
800021ec:	00a787b3          	add	a5,a5,a0
	*prio = priority;
800021f0:	00b7a023          	sw	a1,0(a5) # c000000 <CONFIG_SRAM_SIZE+0xbf00000>
}
800021f4:	00008067          	ret

800021f8 <console_out>:
 *
 * @return The character passed as input.
 */

static int console_out(int c)
{
800021f8:	ff010113          	addi	sp,sp,-16
800021fc:	00112623          	sw	ra,12(sp)
80002200:	00812423          	sw	s0,8(sp)
80002204:	00050413          	mv	s0,a0
		return c;
	}

#endif  /* CONFIG_UART_CONSOLE_DEBUG_SERVER_HOOKS */

	if ('\n' == c) {
80002208:	00a00793          	li	a5,10
8000220c:	02f50a63          	beq	a0,a5,80002240 <console_out+0x48>
		uart_poll_out(uart_console_dev, '\r');
	}
	uart_poll_out(uart_console_dev, c);
80002210:	0ff47593          	zext.b	a1,s0
			     unsigned char out_char);

static inline void z_impl_uart_poll_out(const struct device *dev,
					unsigned char out_char)
{
	const struct uart_driver_api *api =
80002214:	80006537          	lui	a0,0x80006
80002218:	31050793          	addi	a5,a0,784 # 80006310 <CONFIG_SYSTEM_WORKQUEUE_PRIORITY+0x80006311>
8000221c:	0087a783          	lw	a5,8(a5)
		(const struct uart_driver_api *)dev->api;

	api->poll_out(dev, out_char);
80002220:	0047a783          	lw	a5,4(a5)
80002224:	31050513          	addi	a0,a0,784
80002228:	000780e7          	jalr	a5

	return c;
}
8000222c:	00040513          	mv	a0,s0
80002230:	00c12083          	lw	ra,12(sp)
80002234:	00812403          	lw	s0,8(sp)
80002238:	01010113          	addi	sp,sp,16
8000223c:	00008067          	ret
	const struct uart_driver_api *api =
80002240:	80006537          	lui	a0,0x80006
80002244:	31050793          	addi	a5,a0,784 # 80006310 <CONFIG_SYSTEM_WORKQUEUE_PRIORITY+0x80006311>
80002248:	0087a783          	lw	a5,8(a5)
	api->poll_out(dev, out_char);
8000224c:	0047a783          	lw	a5,4(a5)
80002250:	00d00593          	li	a1,13
80002254:	31050513          	addi	a0,a0,784
80002258:	000780e7          	jalr	a5
		return;
	}
#endif
	compiler_barrier();
	z_impl_uart_poll_out(dev, out_char);
}
8000225c:	fb5ff06f          	j	80002210 <console_out+0x18>

80002260 <uart_console_hook_install>:
/**
 * @brief Install printk/stdout hook for UART console output
 */

static void uart_console_hook_install(void)
{
80002260:	ff010113          	addi	sp,sp,-16
80002264:	00112623          	sw	ra,12(sp)
80002268:	00812423          	sw	s0,8(sp)
#if defined(CONFIG_STDOUT_CONSOLE)
	__stdout_hook_install(console_out);
8000226c:	80002437          	lui	s0,0x80002
80002270:	1f840513          	addi	a0,s0,504 # 800021f8 <CONFIG_SYSTEM_WORKQUEUE_PRIORITY+0x800021f9>
80002274:	c41ff0ef          	jal	ra,80001eb4 <__stdout_hook_install>
#endif
#if defined(CONFIG_PRINTK)
	__printk_hook_install(console_out);
80002278:	1f840513          	addi	a0,s0,504
8000227c:	fe4fe0ef          	jal	ra,80000a60 <__printk_hook_install>
#endif
}
80002280:	00c12083          	lw	ra,12(sp)
80002284:	00812403          	lw	s0,8(sp)
80002288:	01010113          	addi	sp,sp,16
8000228c:	00008067          	ret

80002290 <uart_console_init>:
 * @brief Initialize one UART as the console/debug port
 *
 * @return 0 if successful, otherwise failed.
 */
static int uart_console_init(const struct device *arg)
{
80002290:	ff010113          	addi	sp,sp,-16
80002294:	00112623          	sw	ra,12(sp)
 */
__syscall bool device_is_ready(const struct device *dev);

static inline bool z_impl_device_is_ready(const struct device *dev)
{
	return z_device_is_ready(dev);
80002298:	80006537          	lui	a0,0x80006
8000229c:	31050513          	addi	a0,a0,784 # 80006310 <CONFIG_SYSTEM_WORKQUEUE_PRIORITY+0x80006311>
800022a0:	718000ef          	jal	ra,800029b8 <z_device_is_ready>

	ARG_UNUSED(arg);

	if (!device_is_ready(uart_console_dev)) {
800022a4:	00050c63          	beqz	a0,800022bc <uart_console_init+0x2c>
		return -ENODEV;
	}

	uart_console_hook_install();
800022a8:	fb9ff0ef          	jal	ra,80002260 <uart_console_hook_install>

	return 0;
800022ac:	00000513          	li	a0,0
}
800022b0:	00c12083          	lw	ra,12(sp)
800022b4:	01010113          	addi	sp,sp,16
800022b8:	00008067          	ret
		return -ENODEV;
800022bc:	fed00513          	li	a0,-19
800022c0:	ff1ff06f          	j	800022b0 <uart_console_init+0x20>

800022c4 <clock_control_get_rate>:
 */
static inline int clock_control_get_rate(const struct device *dev,
					 clock_control_subsys_t sys,
					 uint32_t *rate)
{
	const struct clock_control_driver_api *api =
800022c4:	00852783          	lw	a5,8(a0)
		(const struct clock_control_driver_api *)dev->api;

	if (api->get_rate == NULL) {
800022c8:	00c7a783          	lw	a5,12(a5)
800022cc:	00078e63          	beqz	a5,800022e8 <clock_control_get_rate+0x24>
{
800022d0:	ff010113          	addi	sp,sp,-16
800022d4:	00112623          	sw	ra,12(sp)
		return -ENOSYS;
	}

	return api->get_rate(dev, sys, rate);
800022d8:	000780e7          	jalr	a5
}
800022dc:	00c12083          	lw	ra,12(sp)
800022e0:	01010113          	addi	sp,sp,16
800022e4:	00008067          	ret
		return -ENOSYS;
800022e8:	fa800513          	li	a0,-88
}
800022ec:	00008067          	ret

800022f0 <set_baud_rate>:
#endif
}

static void set_baud_rate(const struct device *dev, uint32_t baud_rate, uint32_t pclk)
{
	struct uart_ns16550_dev_data * const dev_data = dev->data;
800022f0:	01052703          	lw	a4,16(a0)
	uint32_t divisor; /* baud rate divisor */
	uint8_t lcr_cache;

	if ((baud_rate != 0U) && (pclk != 0U)) {
800022f4:	08058263          	beqz	a1,80002378 <set_baud_rate+0x88>
800022f8:	08060063          	beqz	a2,80002378 <set_baud_rate+0x88>
		/*
		 * calculate baud rate divisor. a variant of
		 * (uint32_t)(pclk / (16.0 * baud_rate) + 0.5)
		 */
		divisor = (pclk / (baud_rate << 4));
800022fc:	00459793          	slli	a5,a1,0x4
80002300:	02f65633          	divu	a2,a2,a5
	return DEVICE_MMIO_GET(dev);
80002304:	00452783          	lw	a5,4(a0)
80002308:	0007a803          	lw	a6,0(a5)
	return config->reg_interval;
8000230c:	0107c683          	lbu	a3,16(a5)

		/* set the DLAB to access the baud rate divisor registers */
		lcr_cache = INBYTE(LCR(dev));
80002310:	00169793          	slli	a5,a3,0x1
80002314:	00d787b3          	add	a5,a5,a3
80002318:	010787b3          	add	a5,a5,a6
extern "C" {
#endif

static ALWAYS_INLINE uint8_t sys_read8(mem_addr_t addr)
{
	return *(volatile uint8_t *)addr;
8000231c:	0007c683          	lbu	a3,0(a5)
80002320:	0ff6f813          	zext.b	a6,a3
		OUTBYTE(LCR(dev), LCR_DLAB | lcr_cache);
80002324:	0806e693          	ori	a3,a3,128
}

static ALWAYS_INLINE void sys_write8(uint8_t data, mem_addr_t addr)
{
	*(volatile uint8_t *)addr = data;
80002328:	00d78023          	sb	a3,0(a5)
		OUTBYTE(BRDL(dev), (unsigned char)(divisor & 0xff));
8000232c:	0ff67693          	zext.b	a3,a2
	const struct uart_ns16550_device_config *config = dev->config;
80002330:	00452783          	lw	a5,4(a0)
	return DEVICE_MMIO_GET(dev);
80002334:	0007a783          	lw	a5,0(a5)
80002338:	00d78023          	sb	a3,0(a5)
		OUTBYTE(BRDH(dev), (unsigned char)((divisor >> 8) & 0xff));
8000233c:	00865613          	srli	a2,a2,0x8
80002340:	0ff67613          	zext.b	a2,a2
	return DEVICE_MMIO_GET(dev);
80002344:	00452783          	lw	a5,4(a0)
80002348:	0007a683          	lw	a3,0(a5)
	return config->reg_interval;
8000234c:	0107c783          	lbu	a5,16(a5)
		OUTBYTE(BRDH(dev), (unsigned char)((divisor >> 8) & 0xff));
80002350:	00d787b3          	add	a5,a5,a3
80002354:	00c78023          	sb	a2,0(a5)
	return DEVICE_MMIO_GET(dev);
80002358:	00452783          	lw	a5,4(a0)
8000235c:	0007a603          	lw	a2,0(a5)
	return config->reg_interval;
80002360:	0107c683          	lbu	a3,16(a5)

		/* restore the DLAB to access the baud rate divisor registers */
		OUTBYTE(LCR(dev), lcr_cache);
80002364:	00169793          	slli	a5,a3,0x1
80002368:	00d787b3          	add	a5,a5,a3
8000236c:	00c787b3          	add	a5,a5,a2
80002370:	01078023          	sb	a6,0(a5)

		dev_data->uart_config.baudrate = baud_rate;
80002374:	00b72023          	sw	a1,0(a4)
	}
}
80002378:	00008067          	ret

8000237c <uart_ns16550_config_get>:

#ifdef CONFIG_UART_USE_RUNTIME_CONFIGURE
static int uart_ns16550_config_get(const struct device *dev,
				   struct uart_config *cfg)
{
	struct uart_ns16550_dev_data *data = dev->data;
8000237c:	01052783          	lw	a5,16(a0)

	cfg->baudrate = data->uart_config.baudrate;
80002380:	0007a703          	lw	a4,0(a5)
80002384:	00e5a023          	sw	a4,0(a1)
	cfg->parity = data->uart_config.parity;
80002388:	0047c703          	lbu	a4,4(a5)
8000238c:	00e58223          	sb	a4,4(a1)
	cfg->stop_bits = data->uart_config.stop_bits;
80002390:	0057c703          	lbu	a4,5(a5)
80002394:	00e582a3          	sb	a4,5(a1)
	cfg->data_bits = data->uart_config.data_bits;
80002398:	0067c703          	lbu	a4,6(a5)
8000239c:	00e58323          	sb	a4,6(a1)
	cfg->flow_ctrl = data->uart_config.flow_ctrl;
800023a0:	0077c783          	lbu	a5,7(a5)
800023a4:	00f583a3          	sb	a5,7(a1)

	return 0;
}
800023a8:	00000513          	li	a0,0
800023ac:	00008067          	ret

800023b0 <uart_ns16550_poll_in>:
	__asm__ volatile ("csrrc %0, mstatus, %1"
800023b0:	30047773          	csrrci	a4,mstatus,8
	return DEVICE_MMIO_GET(dev);
800023b4:	00452783          	lw	a5,4(a0)
800023b8:	0007a603          	lw	a2,0(a5)
	return config->reg_interval;
800023bc:	0107c683          	lbu	a3,16(a5)
{
	struct uart_ns16550_dev_data *data = dev->data;
	int ret = -1;
	k_spinlock_key_t key = k_spin_lock(&data->lock);

	if ((INBYTE(LSR(dev)) & LSR_RXRDY) != 0) {
800023c0:	00269793          	slli	a5,a3,0x2
800023c4:	00d787b3          	add	a5,a5,a3
800023c8:	00c787b3          	add	a5,a5,a2
	return *(volatile uint8_t *)addr;
800023cc:	0007c783          	lbu	a5,0(a5)
800023d0:	0017f793          	andi	a5,a5,1
800023d4:	00078e63          	beqz	a5,800023f0 <uart_ns16550_poll_in+0x40>
800023d8:	00064783          	lbu	a5,0(a2)
		/* got a character */
		*c = INBYTE(RDR(dev));
800023dc:	00f58023          	sb	a5,0(a1)
		ret = 0;
800023e0:	00000513          	li	a0,0
	__asm__ volatile ("csrs mstatus, %0"
800023e4:	00877793          	andi	a5,a4,8
800023e8:	3007a073          	csrs	mstatus,a5
	}

	k_spin_unlock(&data->lock, key);

	return ret;
}
800023ec:	00008067          	ret
	int ret = -1;
800023f0:	fff00513          	li	a0,-1
800023f4:	ff1ff06f          	j	800023e4 <uart_ns16550_poll_in+0x34>

800023f8 <uart_ns16550_poll_out>:
	__asm__ volatile ("csrrc %0, mstatus, %1"
800023f8:	30047673          	csrrci	a2,mstatus,8
	return DEVICE_MMIO_GET(dev);
800023fc:	00452783          	lw	a5,4(a0)
80002400:	0007a683          	lw	a3,0(a5)
	return config->reg_interval;
80002404:	0107c703          	lbu	a4,16(a5)
					   unsigned char c)
{
	struct uart_ns16550_dev_data *data = dev->data;
	k_spinlock_key_t key = k_spin_lock(&data->lock);

	while ((INBYTE(LSR(dev)) & LSR_THRE) == 0) {
80002408:	00271793          	slli	a5,a4,0x2
8000240c:	00e787b3          	add	a5,a5,a4
80002410:	00d787b3          	add	a5,a5,a3
80002414:	0007c783          	lbu	a5,0(a5)
80002418:	0207f793          	andi	a5,a5,32
8000241c:	fe0780e3          	beqz	a5,800023fc <uart_ns16550_poll_out+0x4>
	*(volatile uint8_t *)addr = data;
80002420:	00b68023          	sb	a1,0(a3) # c0000000 <CONFIG_SYSTEM_WORKQUEUE_PRIORITY+0xc0000001>
	__asm__ volatile ("csrs mstatus, %0"
80002424:	00867793          	andi	a5,a2,8
80002428:	3007a073          	csrs	mstatus,a5
	}

	OUTBYTE(THR(dev), c);

	k_spin_unlock(&data->lock, key);
}
8000242c:	00008067          	ret

80002430 <uart_ns16550_err_check>:
	__asm__ volatile ("csrrc %0, mstatus, %1"
80002430:	30047773          	csrrci	a4,mstatus,8
	return DEVICE_MMIO_GET(dev);
80002434:	00452783          	lw	a5,4(a0)
80002438:	0007a603          	lw	a2,0(a5)
	return config->reg_interval;
8000243c:	0107c683          	lbu	a3,16(a5)
 */
static int uart_ns16550_err_check(const struct device *dev)
{
	struct uart_ns16550_dev_data *data = dev->data;
	k_spinlock_key_t key = k_spin_lock(&data->lock);
	int check = (INBYTE(LSR(dev)) & LSR_EOB_MASK);
80002440:	00269793          	slli	a5,a3,0x2
80002444:	00d787b3          	add	a5,a5,a3
80002448:	00c787b3          	add	a5,a5,a2
	return *(volatile uint8_t *)addr;
8000244c:	0007c503          	lbu	a0,0(a5)
80002450:	01e57513          	andi	a0,a0,30
	__asm__ volatile ("csrs mstatus, %0"
80002454:	00877793          	andi	a5,a4,8
80002458:	3007a073          	csrs	mstatus,a5

	k_spin_unlock(&data->lock, key);

	return check >> 1;
}
8000245c:	40155513          	srai	a0,a0,0x1
80002460:	00008067          	ret

80002464 <uart_ns16550_configure>:
{
80002464:	fd010113          	addi	sp,sp,-48
80002468:	02112623          	sw	ra,44(sp)
8000246c:	02812423          	sw	s0,40(sp)
80002470:	02912223          	sw	s1,36(sp)
80002474:	03212023          	sw	s2,32(sp)
80002478:	01312e23          	sw	s3,28(sp)
8000247c:	01412c23          	sw	s4,24(sp)
80002480:	00050413          	mv	s0,a0
80002484:	00058493          	mv	s1,a1
	struct uart_ns16550_dev_data * const dev_data = dev->data;
80002488:	01052a03          	lw	s4,16(a0)
	const struct uart_ns16550_device_config * const dev_cfg = dev->config;
8000248c:	00452983          	lw	s3,4(a0)
	uint32_t pclk = 0U;
80002490:	00012623          	sw	zero,12(sp)
	__asm__ volatile ("csrrc %0, mstatus, %1"
80002494:	30047973          	csrrci	s2,mstatus,8
	if (dev_cfg->sys_clk_freq != 0U) {
80002498:	0049a783          	lw	a5,4(s3)
8000249c:	04078063          	beqz	a5,800024dc <uart_ns16550_configure+0x78>
		pclk = dev_cfg->sys_clk_freq;
800024a0:	00f12623          	sw	a5,12(sp)
	set_baud_rate(dev, cfg->baudrate, pclk);
800024a4:	00c12603          	lw	a2,12(sp)
800024a8:	0004a583          	lw	a1,0(s1)
800024ac:	00040513          	mv	a0,s0
800024b0:	e41ff0ef          	jal	ra,800022f0 <set_baud_rate>
	switch (cfg->data_bits) {
800024b4:	0064c783          	lbu	a5,6(s1)
800024b8:	00200713          	li	a4,2
800024bc:	0ae78463          	beq	a5,a4,80002564 <uart_ns16550_configure+0x100>
800024c0:	04f76263          	bltu	a4,a5,80002504 <uart_ns16550_configure+0xa0>
800024c4:	04078e63          	beqz	a5,80002520 <uart_ns16550_configure+0xbc>
800024c8:	00100713          	li	a4,1
800024cc:	02e79863          	bne	a5,a4,800024fc <uart_ns16550_configure+0x98>
		uart_cfg.data_bits = LCR_CS6;
800024d0:	00100793          	li	a5,1
800024d4:	00f10523          	sb	a5,10(sp)
		break;
800024d8:	04c0006f          	j	80002524 <uart_ns16550_configure+0xc0>
		if (!device_is_ready(dev_cfg->clock_dev)) {
800024dc:	0089a503          	lw	a0,8(s3)
800024e0:	4d8000ef          	jal	ra,800029b8 <z_device_is_ready>
800024e4:	18050a63          	beqz	a0,80002678 <uart_ns16550_configure+0x214>
		clock_control_get_rate(dev_cfg->clock_dev, dev_cfg->clock_subsys,
800024e8:	00c10613          	addi	a2,sp,12
800024ec:	00c9a583          	lw	a1,12(s3)
800024f0:	0089a503          	lw	a0,8(s3)
800024f4:	dd1ff0ef          	jal	ra,800022c4 <clock_control_get_rate>
800024f8:	fadff06f          	j	800024a4 <uart_ns16550_configure+0x40>
	switch (cfg->data_bits) {
800024fc:	f7a00513          	li	a0,-134
80002500:	03c0006f          	j	8000253c <uart_ns16550_configure+0xd8>
80002504:	00300713          	li	a4,3
80002508:	00e79863          	bne	a5,a4,80002518 <uart_ns16550_configure+0xb4>
		uart_cfg.data_bits = LCR_CS8;
8000250c:	00300793          	li	a5,3
80002510:	00f10523          	sb	a5,10(sp)
		break;
80002514:	0100006f          	j	80002524 <uart_ns16550_configure+0xc0>
	switch (cfg->data_bits) {
80002518:	f7a00513          	li	a0,-134
8000251c:	0200006f          	j	8000253c <uart_ns16550_configure+0xd8>
		uart_cfg.data_bits = LCR_CS5;
80002520:	00010523          	sb	zero,10(sp)
	switch (cfg->stop_bits) {
80002524:	0054c783          	lbu	a5,5(s1)
80002528:	00100713          	li	a4,1
8000252c:	04e78263          	beq	a5,a4,80002570 <uart_ns16550_configure+0x10c>
80002530:	00300713          	li	a4,3
80002534:	04e78c63          	beq	a5,a4,8000258c <uart_ns16550_configure+0x128>
80002538:	f7a00513          	li	a0,-134
			  : "r" (key & MSTATUS_IEN)
8000253c:	00897913          	andi	s2,s2,8
	__asm__ volatile ("csrs mstatus, %0"
80002540:	30092073          	csrs	mstatus,s2
};
80002544:	02c12083          	lw	ra,44(sp)
80002548:	02812403          	lw	s0,40(sp)
8000254c:	02412483          	lw	s1,36(sp)
80002550:	02012903          	lw	s2,32(sp)
80002554:	01c12983          	lw	s3,28(sp)
80002558:	01812a03          	lw	s4,24(sp)
8000255c:	03010113          	addi	sp,sp,48
80002560:	00008067          	ret
		uart_cfg.data_bits = LCR_CS7;
80002564:	00200793          	li	a5,2
80002568:	00f10523          	sb	a5,10(sp)
		break;
8000256c:	fb9ff06f          	j	80002524 <uart_ns16550_configure+0xc0>
		uart_cfg.stop_bits = LCR_1_STB;
80002570:	000104a3          	sb	zero,9(sp)
	switch (cfg->parity) {
80002574:	0044c783          	lbu	a5,4(s1)
80002578:	02078063          	beqz	a5,80002598 <uart_ns16550_configure+0x134>
8000257c:	00200713          	li	a4,2
80002580:	0ee78063          	beq	a5,a4,80002660 <uart_ns16550_configure+0x1fc>
80002584:	f7a00513          	li	a0,-134
80002588:	fb5ff06f          	j	8000253c <uart_ns16550_configure+0xd8>
		uart_cfg.stop_bits = LCR_2_STB;
8000258c:	00400793          	li	a5,4
80002590:	00f104a3          	sb	a5,9(sp)
		break;
80002594:	fe1ff06f          	j	80002574 <uart_ns16550_configure+0x110>
		uart_cfg.parity = LCR_PDIS;
80002598:	00010423          	sb	zero,8(sp)
	dev_data->uart_config = *cfg;
8000259c:	0004a783          	lw	a5,0(s1)
800025a0:	00fa2023          	sw	a5,0(s4)
800025a4:	0044a783          	lw	a5,4(s1)
800025a8:	00fa2223          	sw	a5,4(s4)
	OUTBYTE(LCR(dev),
800025ac:	00a14783          	lbu	a5,10(sp)
800025b0:	00914683          	lbu	a3,9(sp)
800025b4:	00814703          	lbu	a4,8(sp)
800025b8:	00d7e7b3          	or	a5,a5,a3
800025bc:	00f76733          	or	a4,a4,a5
	return DEVICE_MMIO_GET(dev);
800025c0:	00442783          	lw	a5,4(s0)
800025c4:	0007a603          	lw	a2,0(a5)
	return config->reg_interval;
800025c8:	0107c683          	lbu	a3,16(a5)
	OUTBYTE(LCR(dev),
800025cc:	00169793          	slli	a5,a3,0x1
800025d0:	00d787b3          	add	a5,a5,a3
800025d4:	00c787b3          	add	a5,a5,a2
	*(volatile uint8_t *)addr = data;
800025d8:	00e78023          	sb	a4,0(a5)
	return DEVICE_MMIO_GET(dev);
800025dc:	00442783          	lw	a5,4(s0)
800025e0:	0007a703          	lw	a4,0(a5)
	return config->reg_interval;
800025e4:	0107c783          	lbu	a5,16(a5)
	OUTBYTE(MDC(dev), mdc);
800025e8:	00279793          	slli	a5,a5,0x2
800025ec:	00e787b3          	add	a5,a5,a4
800025f0:	00b00713          	li	a4,11
800025f4:	00e78023          	sb	a4,0(a5)
	return DEVICE_MMIO_GET(dev);
800025f8:	00442783          	lw	a5,4(s0)
800025fc:	0007a703          	lw	a4,0(a5)
	return config->reg_interval;
80002600:	0107c783          	lbu	a5,16(a5)
	OUTBYTE(FCR(dev),
80002604:	00179793          	slli	a5,a5,0x1
80002608:	00e787b3          	add	a5,a5,a4
8000260c:	f8700713          	li	a4,-121
80002610:	00e78023          	sb	a4,0(a5)
	return DEVICE_MMIO_GET(dev);
80002614:	00442783          	lw	a5,4(s0)
80002618:	0007a703          	lw	a4,0(a5)
	return config->reg_interval;
8000261c:	0107c783          	lbu	a5,16(a5)
	if ((INBYTE(IIR(dev)) & IIR_FE) == IIR_FE) {
80002620:	00179793          	slli	a5,a5,0x1
80002624:	00e787b3          	add	a5,a5,a4
	return *(volatile uint8_t *)addr;
80002628:	0007c783          	lbu	a5,0(a5)
8000262c:	0c07f793          	andi	a5,a5,192
80002630:	0c000713          	li	a4,192
80002634:	02e78c63          	beq	a5,a4,8000266c <uart_ns16550_configure+0x208>
		dev_data->fifo_size = 1;
80002638:	00100793          	li	a5,1
8000263c:	00fa0423          	sb	a5,8(s4)
	const struct uart_ns16550_device_config *config = dev->config;
80002640:	00442703          	lw	a4,4(s0)
	return config->reg_interval;
80002644:	01074783          	lbu	a5,16(a4)
	return DEVICE_MMIO_GET(dev);
80002648:	00072703          	lw	a4,0(a4)
8000264c:	00074683          	lbu	a3,0(a4)
	OUTBYTE(IER(dev), 0x00);
80002650:	00e787b3          	add	a5,a5,a4
	*(volatile uint8_t *)addr = data;
80002654:	00078023          	sb	zero,0(a5)
	int ret = 0;
80002658:	00000513          	li	a0,0
}
8000265c:	ee1ff06f          	j	8000253c <uart_ns16550_configure+0xd8>
		uart_cfg.parity = LCR_EPS;
80002660:	01000793          	li	a5,16
80002664:	00f10423          	sb	a5,8(sp)
		break;
80002668:	f35ff06f          	j	8000259c <uart_ns16550_configure+0x138>
		dev_data->fifo_size = 16;
8000266c:	01000793          	li	a5,16
80002670:	00fa0423          	sb	a5,8(s4)
80002674:	fcdff06f          	j	80002640 <uart_ns16550_configure+0x1dc>
			ret = -EINVAL;
80002678:	fea00513          	li	a0,-22
8000267c:	ec1ff06f          	j	8000253c <uart_ns16550_configure+0xd8>

80002680 <uart_ns16550_init>:
{
80002680:	ff010113          	addi	sp,sp,-16
80002684:	00112623          	sw	ra,12(sp)
	ret = uart_ns16550_configure(dev, &data->uart_config);
80002688:	01052583          	lw	a1,16(a0)
8000268c:	dd9ff0ef          	jal	ra,80002464 <uart_ns16550_configure>
}
80002690:	00c12083          	lw	ra,12(sp)
80002694:	01010113          	addi	sp,sp,16
80002698:	00008067          	ret

8000269c <get_hart_mtimecmp>:
const int32_t z_sys_timer_irq_for_test = TIMER_IRQN;
#endif

static uint64_t get_hart_mtimecmp(void)
{
	return MTIMECMP_REG + (_current_cpu->id * 8);
8000269c:	800077b7          	lui	a5,0x80007
800026a0:	ca078793          	addi	a5,a5,-864 # 80006ca0 <CONFIG_SYSTEM_WORKQUEUE_PRIORITY+0x80006ca1>
800026a4:	0147c783          	lbu	a5,20(a5)
800026a8:	00379793          	slli	a5,a5,0x3
}
800026ac:	02004537          	lui	a0,0x2004
800026b0:	00a78533          	add	a0,a5,a0
800026b4:	00000593          	li	a1,0
800026b8:	00008067          	ret

800026bc <set_mtimecmp>:

static void set_mtimecmp(uint64_t time)
{
800026bc:	ff010113          	addi	sp,sp,-16
800026c0:	00112623          	sw	ra,12(sp)
800026c4:	00812423          	sw	s0,8(sp)
800026c8:	00912223          	sw	s1,4(sp)
800026cc:	00050493          	mv	s1,a0
800026d0:	00058413          	mv	s0,a1
#ifdef CONFIG_64BIT
	*(volatile uint64_t *)get_hart_mtimecmp() = time;
#else
	volatile uint32_t *r = (uint32_t *)(uint32_t)get_hart_mtimecmp();
800026d4:	fc9ff0ef          	jal	ra,8000269c <get_hart_mtimecmp>
	 * but are NOT internally latched for multiword transfers.  So
	 * we have to be careful about sequencing to avoid triggering
	 * spurious interrupts: always set the high word to a max
	 * value first.
	 */
	r[1] = 0xffffffff;
800026d8:	fff00793          	li	a5,-1
800026dc:	00f52223          	sw	a5,4(a0) # 2004004 <CONFIG_SRAM_SIZE+0x1f04004>
	r[0] = (uint32_t)time;
800026e0:	00952023          	sw	s1,0(a0)
	r[1] = (uint32_t)(time >> 32);
800026e4:	00852223          	sw	s0,4(a0)
#endif
}
800026e8:	00c12083          	lw	ra,12(sp)
800026ec:	00812403          	lw	s0,8(sp)
800026f0:	00412483          	lw	s1,4(sp)
800026f4:	01010113          	addi	sp,sp,16
800026f8:	00008067          	ret

800026fc <mtime>:
	volatile uint32_t *r = (uint32_t *)MTIME_REG;
	uint32_t lo, hi;

	/* Likewise, must guard against rollover when reading */
	do {
		hi = r[1];
800026fc:	0200c7b7          	lui	a5,0x200c
80002700:	ffc7a583          	lw	a1,-4(a5) # 200bffc <CONFIG_SRAM_SIZE+0x1f0bffc>
		lo = r[0];
80002704:	ff87a503          	lw	a0,-8(a5)
	} while (r[1] != hi);
80002708:	ffc7a783          	lw	a5,-4(a5)
8000270c:	feb798e3          	bne	a5,a1,800026fc <mtime>

	return (((uint64_t)hi) << 32) | lo;
#endif
}
80002710:	00008067          	ret

80002714 <sys_clock_driver_init>:
{
	return (mtime() << CONFIG_RISCV_MACHINE_TIMER_SYSTEM_CLOCK_DIVIDER);
}

static int sys_clock_driver_init(const struct device *dev)
{
80002714:	ff010113          	addi	sp,sp,-16
80002718:	00112623          	sw	ra,12(sp)
	ARG_UNUSED(dev);

	IRQ_CONNECT(TIMER_IRQN, 0, timer_isr, NULL, 0);
8000271c:	00000613          	li	a2,0
80002720:	00000593          	li	a1,0
80002724:	00700513          	li	a0,7
80002728:	d5cff0ef          	jal	ra,80001c84 <z_riscv_irq_priority_set>
	last_count = mtime();
8000272c:	fd1ff0ef          	jal	ra,800026fc <mtime>
80002730:	00050793          	mv	a5,a0
80002734:	80007737          	lui	a4,0x80007
80002738:	b4a72423          	sw	a0,-1208(a4) # 80006b48 <CONFIG_SYSTEM_WORKQUEUE_PRIORITY+0x80006b49>
8000273c:	b4b72623          	sw	a1,-1204(a4)
	set_mtimecmp(last_count + CYC_PER_TICK);
80002740:	10050513          	addi	a0,a0,256
80002744:	00f537b3          	sltu	a5,a0,a5
80002748:	00b785b3          	add	a1,a5,a1
8000274c:	f71ff0ef          	jal	ra,800026bc <set_mtimecmp>
	irq_enable(TIMER_IRQN);
80002750:	00700513          	li	a0,7
80002754:	cf8ff0ef          	jal	ra,80001c4c <arch_irq_enable>
	return 0;
}
80002758:	00000513          	li	a0,0
8000275c:	00c12083          	lw	ra,12(sp)
80002760:	01010113          	addi	sp,sp,16
80002764:	00008067          	ret

80002768 <timer_isr>:
{
80002768:	ff010113          	addi	sp,sp,-16
8000276c:	00112623          	sw	ra,12(sp)
80002770:	00812423          	sw	s0,8(sp)
	__asm__ volatile ("csrrc %0, mstatus, %1"
80002774:	30047473          	csrrci	s0,mstatus,8
	uint64_t now = mtime();
80002778:	f85ff0ef          	jal	ra,800026fc <mtime>
8000277c:	00050693          	mv	a3,a0
	uint32_t dticks = (uint32_t)((now - last_count) / CYC_PER_TICK);
80002780:	80007637          	lui	a2,0x80007
80002784:	b4862783          	lw	a5,-1208(a2) # 80006b48 <CONFIG_SYSTEM_WORKQUEUE_PRIORITY+0x80006b49>
80002788:	b4c62703          	lw	a4,-1204(a2)
8000278c:	40f507b3          	sub	a5,a0,a5
80002790:	00f53533          	sltu	a0,a0,a5
80002794:	40e58733          	sub	a4,a1,a4
80002798:	40a70733          	sub	a4,a4,a0
8000279c:	01871713          	slli	a4,a4,0x18
800027a0:	0087d513          	srli	a0,a5,0x8
800027a4:	00a76533          	or	a0,a4,a0
	last_count = now;
800027a8:	b4d62423          	sw	a3,-1208(a2)
800027ac:	b4b62623          	sw	a1,-1204(a2)
	__asm__ volatile ("csrs mstatus, %0"
800027b0:	00847413          	andi	s0,s0,8
800027b4:	30042073          	csrs	mstatus,s0
	sys_clock_announce(IS_ENABLED(CONFIG_TICKLESS_KERNEL) ? dticks : 1);
800027b8:	649010ef          	jal	ra,80004600 <sys_clock_announce>
}
800027bc:	00c12083          	lw	ra,12(sp)
800027c0:	00812403          	lw	s0,8(sp)
800027c4:	01010113          	addi	sp,sp,16
800027c8:	00008067          	ret

800027cc <sys_clock_set_timeout>:
	if (idle) {
800027cc:	0c059c63          	bnez	a1,800028a4 <sys_clock_set_timeout+0xd8>
{
800027d0:	ff010113          	addi	sp,sp,-16
800027d4:	00112623          	sw	ra,12(sp)
800027d8:	00812423          	sw	s0,8(sp)
800027dc:	00912223          	sw	s1,4(sp)
	ticks = ticks == K_TICKS_FOREVER ? MAX_TICKS : ticks;
800027e0:	fff00793          	li	a5,-1
800027e4:	04f50a63          	beq	a0,a5,80002838 <sys_clock_set_timeout+0x6c>
	ticks = CLAMP(ticks - 1, 0, (int32_t)MAX_TICKS);
800027e8:	00100793          	li	a5,1
800027ec:	04a7dc63          	bge	a5,a0,80002844 <sys_clock_set_timeout+0x78>
800027f0:	008007b7          	lui	a5,0x800
800027f4:	ffe78793          	addi	a5,a5,-2 # 7ffffe <CONFIG_SRAM_SIZE+0x6ffffe>
800027f8:	04a7ca63          	blt	a5,a0,8000284c <sys_clock_set_timeout+0x80>
800027fc:	fff50413          	addi	s0,a0,-1
	__asm__ volatile ("csrrc %0, mstatus, %1"
80002800:	300474f3          	csrrci	s1,mstatus,8
	uint64_t now = mtime();
80002804:	ef9ff0ef          	jal	ra,800026fc <mtime>
	uint32_t adj, cyc = ticks * CYC_PER_TICK;
80002808:	00841793          	slli	a5,s0,0x8
	adj = (uint32_t)(now - last_count) + (CYC_PER_TICK - 1);
8000280c:	800076b7          	lui	a3,0x80007
80002810:	b486a703          	lw	a4,-1208(a3) # 80006b48 <CONFIG_SYSTEM_WORKQUEUE_PRIORITY+0x80006b49>
80002814:	b4c6a583          	lw	a1,-1204(a3)
80002818:	40e50633          	sub	a2,a0,a4
8000281c:	0ff60613          	addi	a2,a2,255
	if (cyc <= MAX_CYC - adj) {
80002820:	800006b7          	lui	a3,0x80000
80002824:	fff6c693          	not	a3,a3
80002828:	40c686b3          	sub	a3,a3,a2
8000282c:	02f6e663          	bltu	a3,a5,80002858 <sys_clock_set_timeout+0x8c>
		cyc += adj;
80002830:	00c787b3          	add	a5,a5,a2
80002834:	02c0006f          	j	80002860 <sys_clock_set_timeout+0x94>
	ticks = ticks == K_TICKS_FOREVER ? MAX_TICKS : ticks;
80002838:	00800537          	lui	a0,0x800
8000283c:	ffe50513          	addi	a0,a0,-2 # 7ffffe <CONFIG_SRAM_SIZE+0x6ffffe>
80002840:	fb1ff06f          	j	800027f0 <sys_clock_set_timeout+0x24>
	ticks = CLAMP(ticks - 1, 0, (int32_t)MAX_TICKS);
80002844:	00000413          	li	s0,0
80002848:	fb9ff06f          	j	80002800 <sys_clock_set_timeout+0x34>
8000284c:	00800537          	lui	a0,0x800
80002850:	ffe50413          	addi	s0,a0,-2 # 7ffffe <CONFIG_SRAM_SIZE+0x6ffffe>
80002854:	fadff06f          	j	80002800 <sys_clock_set_timeout+0x34>
		cyc = MAX_CYC;
80002858:	800007b7          	lui	a5,0x80000
8000285c:	fff7c793          	not	a5,a5
	cyc = (cyc / CYC_PER_TICK) * CYC_PER_TICK;
80002860:	f007f793          	andi	a5,a5,-256
	if ((int32_t)(cyc + last_count - now) < MIN_DELAY) {
80002864:	00f706b3          	add	a3,a4,a5
80002868:	40a686b3          	sub	a3,a3,a0
8000286c:	06300613          	li	a2,99
80002870:	00d64463          	blt	a2,a3,80002878 <sys_clock_set_timeout+0xac>
		cyc += CYC_PER_TICK;
80002874:	10078793          	addi	a5,a5,256 # 80000100 <CONFIG_SYSTEM_WORKQUEUE_PRIORITY+0x80000101>
	set_mtimecmp(cyc + last_count);
80002878:	00e78533          	add	a0,a5,a4
8000287c:	00f537b3          	sltu	a5,a0,a5
80002880:	00b785b3          	add	a1,a5,a1
80002884:	e39ff0ef          	jal	ra,800026bc <set_mtimecmp>
	__asm__ volatile ("csrs mstatus, %0"
80002888:	0084f493          	andi	s1,s1,8
8000288c:	3004a073          	csrs	mstatus,s1
}
80002890:	00c12083          	lw	ra,12(sp)
80002894:	00812403          	lw	s0,8(sp)
80002898:	00412483          	lw	s1,4(sp)
8000289c:	01010113          	addi	sp,sp,16
800028a0:	00008067          	ret
800028a4:	00008067          	ret

800028a8 <sys_clock_elapsed>:
{
800028a8:	ff010113          	addi	sp,sp,-16
800028ac:	00112623          	sw	ra,12(sp)
800028b0:	00812423          	sw	s0,8(sp)
	__asm__ volatile ("csrrc %0, mstatus, %1"
800028b4:	30047473          	csrrci	s0,mstatus,8
	uint32_t ret = ((uint32_t)mtime() - (uint32_t)last_count) / CYC_PER_TICK;
800028b8:	e45ff0ef          	jal	ra,800026fc <mtime>
800028bc:	800077b7          	lui	a5,0x80007
800028c0:	b487a783          	lw	a5,-1208(a5) # 80006b48 <CONFIG_SYSTEM_WORKQUEUE_PRIORITY+0x80006b49>
800028c4:	40f50533          	sub	a0,a0,a5
800028c8:	00855513          	srli	a0,a0,0x8
	__asm__ volatile ("csrs mstatus, %0"
800028cc:	00847413          	andi	s0,s0,8
800028d0:	30042073          	csrs	mstatus,s0
}
800028d4:	00c12083          	lw	ra,12(sp)
800028d8:	00812403          	lw	s0,8(sp)
800028dc:	01010113          	addi	sp,sp,16
800028e0:	00008067          	ret

800028e4 <z_device_state_init>:
 * The state object is always zero-initialized, but this may not be
 * sufficient.
 */
void z_device_state_init(void)
{
	const struct device *dev = __device_start;
800028e4:	80006737          	lui	a4,0x80006
800028e8:	31070713          	addi	a4,a4,784 # 80006310 <CONFIG_SYSTEM_WORKQUEUE_PRIORITY+0x80006311>

	while (dev < __device_end) {
800028ec:	0080006f          	j	800028f4 <z_device_state_init+0x10>
		z_object_init(dev);
		++dev;
800028f0:	01870713          	addi	a4,a4,24
	while (dev < __device_end) {
800028f4:	800067b7          	lui	a5,0x80006
800028f8:	32878793          	addi	a5,a5,808 # 80006328 <CONFIG_SYSTEM_WORKQUEUE_PRIORITY+0x80006329>
800028fc:	fef76ae3          	bltu	a4,a5,800028f0 <z_device_state_init+0xc>
	}
}
80002900:	00008067          	ret

80002904 <z_sys_init_run_level>:
 * off and the next one begins.
 *
 * @param level init level to run.
 */
void z_sys_init_run_level(int32_t level)
{
80002904:	ff010113          	addi	sp,sp,-16
80002908:	00112623          	sw	ra,12(sp)
8000290c:	00812423          	sw	s0,8(sp)
80002910:	00912223          	sw	s1,4(sp)
80002914:	01212023          	sw	s2,0(sp)
80002918:	00050913          	mv	s2,a0
		/* End marker */
		__init_end,
	};
	const struct init_entry *entry;

	for (entry = levels[level]; entry < levels[level+1]; entry++) {
8000291c:	800077b7          	lui	a5,0x80007
80002920:	00251713          	slli	a4,a0,0x2
80002924:	8ec78793          	addi	a5,a5,-1812 # 800068ec <CONFIG_SYSTEM_WORKQUEUE_PRIORITY+0x800068ed>
80002928:	00e787b3          	add	a5,a5,a4
8000292c:	0007a403          	lw	s0,0(a5)
80002930:	0280006f          	j	80002958 <z_sys_init_run_level+0x54>
			/* Mark device initialized.  If initialization
			 * failed, record the error condition.
			 */
			if (rc != 0) {
				if (rc < 0) {
					rc = -rc;
80002934:	40a00533          	neg	a0,a0
80002938:	0580006f          	j	80002990 <z_sys_init_run_level+0x8c>
				}
				if (rc > UINT8_MAX) {
					rc = UINT8_MAX;
				}
				dev->state->init_res = rc;
8000293c:	00c4a783          	lw	a5,12(s1)
80002940:	00a78023          	sb	a0,0(a5)
			}
			dev->state->initialized = true;
80002944:	00c4a703          	lw	a4,12(s1)
80002948:	00075783          	lhu	a5,0(a4)
8000294c:	1007e793          	ori	a5,a5,256
80002950:	00f71023          	sh	a5,0(a4)
	for (entry = levels[level]; entry < levels[level+1]; entry++) {
80002954:	00840413          	addi	s0,s0,8
80002958:	00190713          	addi	a4,s2,1
8000295c:	800077b7          	lui	a5,0x80007
80002960:	00271713          	slli	a4,a4,0x2
80002964:	8ec78793          	addi	a5,a5,-1812 # 800068ec <CONFIG_SYSTEM_WORKQUEUE_PRIORITY+0x800068ed>
80002968:	00e787b3          	add	a5,a5,a4
8000296c:	0007a783          	lw	a5,0(a5)
80002970:	02f47863          	bgeu	s0,a5,800029a0 <z_sys_init_run_level+0x9c>
		const struct device *dev = entry->dev;
80002974:	00442483          	lw	s1,4(s0)
		int rc = entry->init(dev);
80002978:	00042783          	lw	a5,0(s0)
8000297c:	00048513          	mv	a0,s1
80002980:	000780e7          	jalr	a5
		if (dev != NULL) {
80002984:	fc0488e3          	beqz	s1,80002954 <z_sys_init_run_level+0x50>
			if (rc != 0) {
80002988:	fa050ee3          	beqz	a0,80002944 <z_sys_init_run_level+0x40>
				if (rc < 0) {
8000298c:	fa0544e3          	bltz	a0,80002934 <z_sys_init_run_level+0x30>
				if (rc > UINT8_MAX) {
80002990:	0ff00793          	li	a5,255
80002994:	faa7d4e3          	bge	a5,a0,8000293c <z_sys_init_run_level+0x38>
					rc = UINT8_MAX;
80002998:	0ff00513          	li	a0,255
8000299c:	fa1ff06f          	j	8000293c <z_sys_init_run_level+0x38>
		}
	}
}
800029a0:	00c12083          	lw	ra,12(sp)
800029a4:	00812403          	lw	s0,8(sp)
800029a8:	00412483          	lw	s1,4(sp)
800029ac:	00012903          	lw	s2,0(sp)
800029b0:	01010113          	addi	sp,sp,16
800029b4:	00008067          	ret

800029b8 <z_device_is_ready>:
{
	/*
	 * if an invalid device pointer is passed as argument, this call
	 * reports the `device` as not ready for usage.
	 */
	if (dev == NULL) {
800029b8:	00050e63          	beqz	a0,800029d4 <z_device_is_ready+0x1c>
		return false;
	}

	return dev->state->initialized && (dev->state->init_res == 0U);
800029bc:	00c52783          	lw	a5,12(a0)
800029c0:	0007a503          	lw	a0,0(a5)
800029c4:	1ff57513          	andi	a0,a0,511
800029c8:	f0050513          	addi	a0,a0,-256
800029cc:	00153513          	seqz	a0,a0
800029d0:	00008067          	ret
		return false;
800029d4:	00000513          	li	a0,0
}
800029d8:	00008067          	ret

800029dc <arch_system_halt>:
	__asm__ volatile ("csrrc %0, mstatus, %1"
800029dc:	300477f3          	csrrci	a5,mstatus,8
	/* TODO: What's the best way to totally halt the system if SMP
	 * is enabled?
	 */

	(void)arch_irq_lock();
	for (;;) {
800029e0:	0000006f          	j	800029e0 <arch_system_halt+0x4>

800029e4 <k_sys_fatal_error_handler>:
/* LCOV_EXCL_STOP */

/* LCOV_EXCL_START */
__weak void k_sys_fatal_error_handler(unsigned int reason,
				      const z_arch_esf_t *esf)
{
800029e4:	ff010113          	addi	sp,sp,-16
800029e8:	00112623          	sw	ra,12(sp)
	ARG_UNUSED(esf);

	LOG_PANIC();
	LOG_ERR("Halting system");
	arch_system_halt(reason);
800029ec:	ff1ff0ef          	jal	ra,800029dc <arch_system_halt>

800029f0 <z_fatal_error>:
	return 0;
#endif
}

void z_fatal_error(unsigned int reason, const z_arch_esf_t *esf)
{
800029f0:	fe010113          	addi	sp,sp,-32
800029f4:	00112e23          	sw	ra,28(sp)
800029f8:	00812c23          	sw	s0,24(sp)
800029fc:	00912a23          	sw	s1,20(sp)
80002a00:	01212823          	sw	s2,16(sp)
80002a04:	01312623          	sw	s3,12(sp)
80002a08:	00050913          	mv	s2,a0
80002a0c:	00058993          	mv	s3,a1
80002a10:	300474f3          	csrrci	s1,mstatus,8
	return z_impl_z_current_get();
80002a14:	6fc010ef          	jal	ra,80004110 <z_impl_z_current_get>
80002a18:	00050413          	mv	s0,a0

#ifndef CONFIG_XTENSA
	coredump(reason, esf, thread);
#endif

	k_sys_fatal_error_handler(reason, esf);
80002a1c:	00098593          	mv	a1,s3
80002a20:	00090513          	mv	a0,s2
80002a24:	fc1ff0ef          	jal	ra,800029e4 <k_sys_fatal_error_handler>
			  : "r" (key & MSTATUS_IEN)
80002a28:	0084f493          	andi	s1,s1,8
	__asm__ volatile ("csrs mstatus, %0"
80002a2c:	3004a073          	csrs	mstatus,s1
	z_impl_k_thread_abort(thread);
80002a30:	00040513          	mv	a0,s0
80002a34:	790010ef          	jal	ra,800041c4 <z_impl_k_thread_abort>
	arch_irq_unlock(key);

	if (IS_ENABLED(CONFIG_MULTITHREADING)) {
		k_thread_abort(thread);
	}
}
80002a38:	01c12083          	lw	ra,28(sp)
80002a3c:	01812403          	lw	s0,24(sp)
80002a40:	01412483          	lw	s1,20(sp)
80002a44:	01012903          	lw	s2,16(sp)
80002a48:	00c12983          	lw	s3,12(sp)
80002a4c:	02010113          	addi	sp,sp,32
80002a50:	00008067          	ret

80002a54 <init_idle_thread>:
} /* LCOV_EXCL_LINE ... because we just dumped final coverage data */

#if defined(CONFIG_MULTITHREADING)
__boot_func
static void init_idle_thread(int i)
{
80002a54:	fd010113          	addi	sp,sp,-48
80002a58:	02112623          	sw	ra,44(sp)
80002a5c:	02812423          	sw	s0,40(sp)
80002a60:	02912223          	sw	s1,36(sp)
80002a64:	03212023          	sw	s2,32(sp)
80002a68:	01312e23          	sw	s3,28(sp)
80002a6c:	00050413          	mv	s0,a0
	struct k_thread *thread = &z_idle_threads[i];
80002a70:	00451913          	slli	s2,a0,0x4
80002a74:	00a909b3          	add	s3,s2,a0
80002a78:	00399993          	slli	s3,s3,0x3
80002a7c:	800074b7          	lui	s1,0x80007
80002a80:	b9048493          	addi	s1,s1,-1136 # 80006b90 <CONFIG_SYSTEM_WORKQUEUE_PRIORITY+0x80006b91>
80002a84:	009989b3          	add	s3,s3,s1
	k_thread_stack_t *stack = z_idle_stacks[i];
80002a88:	00a51513          	slli	a0,a0,0xa
#else
	char *tname = NULL;
#endif /* CONFIG_THREAD_NAME */

	z_setup_new_thread(thread, stack,
			  CONFIG_IDLE_STACK_SIZE, idle, &_kernel.cpus[i],
80002a8c:	00141693          	slli	a3,s0,0x1
80002a90:	008686b3          	add	a3,a3,s0
80002a94:	00369693          	slli	a3,a3,0x3
	z_setup_new_thread(thread, stack,
80002a98:	00012223          	sw	zero,4(sp)
80002a9c:	00100793          	li	a5,1
80002aa0:	00f12023          	sw	a5,0(sp)
80002aa4:	00f00893          	li	a7,15
80002aa8:	00000813          	li	a6,0
80002aac:	00000793          	li	a5,0
80002ab0:	80007737          	lui	a4,0x80007
80002ab4:	ca070713          	addi	a4,a4,-864 # 80006ca0 <CONFIG_SYSTEM_WORKQUEUE_PRIORITY+0x80006ca1>
80002ab8:	00d70733          	add	a4,a4,a3
80002abc:	800036b7          	lui	a3,0x80003
80002ac0:	00c68693          	addi	a3,a3,12 # 8000300c <CONFIG_SYSTEM_WORKQUEUE_PRIORITY+0x8000300d>
80002ac4:	40000613          	li	a2,1024
80002ac8:	800085b7          	lui	a1,0x80008
80002acc:	cd058593          	addi	a1,a1,-816 # 80007cd0 <CONFIG_SYSTEM_WORKQUEUE_PRIORITY+0x80007cd1>
80002ad0:	00a585b3          	add	a1,a1,a0
80002ad4:	00098513          	mv	a0,s3
80002ad8:	368000ef          	jal	ra,80002e40 <z_setup_new_thread>
	SYS_PORT_TRACING_FUNC(k_thread, sched_resume, thread);
}

static inline void z_mark_thread_as_started(struct k_thread *thread)
{
	thread->base.thread_state &= ~_THREAD_PRESTART;
80002adc:	00d9c783          	lbu	a5,13(s3)
80002ae0:	ffb7f793          	andi	a5,a5,-5
80002ae4:	00f986a3          	sb	a5,13(s3)
	z_mark_thread_as_started(thread);

#ifdef CONFIG_SMP
	thread->base.is_idle = 1U;
#endif
}
80002ae8:	02c12083          	lw	ra,44(sp)
80002aec:	02812403          	lw	s0,40(sp)
80002af0:	02412483          	lw	s1,36(sp)
80002af4:	02012903          	lw	s2,32(sp)
80002af8:	01c12983          	lw	s3,28(sp)
80002afc:	03010113          	addi	sp,sp,48
80002b00:	00008067          	ret

80002b04 <bg_thread_main>:
{
80002b04:	ff010113          	addi	sp,sp,-16
80002b08:	00112623          	sw	ra,12(sp)
	z_sys_post_kernel = true;
80002b0c:	800077b7          	lui	a5,0x80007
80002b10:	00100713          	li	a4,1
80002b14:	b8e78423          	sb	a4,-1144(a5) # 80006b88 <CONFIG_SYSTEM_WORKQUEUE_PRIORITY+0x80006b89>
	z_sys_init_run_level(_SYS_INIT_LEVEL_POST_KERNEL);
80002b18:	00200513          	li	a0,2
80002b1c:	de9ff0ef          	jal	ra,80002904 <z_sys_init_run_level>
	boot_banner();
80002b20:	431010ef          	jal	ra,80004750 <boot_banner>
	z_sys_init_run_level(_SYS_INIT_LEVEL_APPLICATION);
80002b24:	00300513          	li	a0,3
80002b28:	dddff0ef          	jal	ra,80002904 <z_sys_init_run_level>
	z_init_static_threads();
80002b2c:	3e8000ef          	jal	ra,80002f14 <z_init_static_threads>
	main();
80002b30:	ee5fd0ef          	jal	ra,80000a14 <main>
	z_main_thread.base.user_options &= ~K_ESSENTIAL;
80002b34:	800077b7          	lui	a5,0x80007
80002b38:	c1878793          	addi	a5,a5,-1000 # 80006c18 <CONFIG_SYSTEM_WORKQUEUE_PRIORITY+0x80006c19>
80002b3c:	00c7c703          	lbu	a4,12(a5)
80002b40:	ffe77713          	andi	a4,a4,-2
80002b44:	00e78623          	sb	a4,12(a5)
} /* LCOV_EXCL_LINE ... because we just dumped final coverage data */
80002b48:	00c12083          	lw	ra,12(sp)
80002b4c:	01010113          	addi	sp,sp,16
80002b50:	00008067          	ret

80002b54 <z_swap_unlocked>:
{
	return do_swap(key.key, lock, true);
}

static inline void z_swap_unlocked(void)
{
80002b54:	ff010113          	addi	sp,sp,-16
80002b58:	00112623          	sw	ra,12(sp)
80002b5c:	00812423          	sw	s0,8(sp)
80002b60:	00912223          	sw	s1,4(sp)
80002b64:	01212023          	sw	s2,0(sp)
	__asm__ volatile ("csrrc %0, mstatus, %1"
80002b68:	300474f3          	csrrci	s1,mstatus,8
	old_thread = _current;
80002b6c:	800077b7          	lui	a5,0x80007
80002b70:	ca078793          	addi	a5,a5,-864 # 80006ca0 <CONFIG_SYSTEM_WORKQUEUE_PRIORITY+0x80006ca1>
80002b74:	0087a903          	lw	s2,8(a5)
	old_thread->swap_retval = -EAGAIN;
80002b78:	ff500793          	li	a5,-11
80002b7c:	06f92c23          	sw	a5,120(s2)
80002b80:	300477f3          	csrrci	a5,mstatus,8
	new_thread = z_swap_next_thread();
80002b84:	141000ef          	jal	ra,800034c4 <z_swap_next_thread>
	if (new_thread != old_thread) {
80002b88:	02a90263          	beq	s2,a0,80002bac <z_swap_unlocked+0x58>
80002b8c:	00050413          	mv	s0,a0
		_current_cpu->current = new_thread;
80002b90:	800077b7          	lui	a5,0x80007
80002b94:	ca078793          	addi	a5,a5,-864 # 80006ca0 <CONFIG_SYSTEM_WORKQUEUE_PRIORITY+0x80006ca1>
80002b98:	00a7a423          	sw	a0,8(a5)
		z_reset_time_slice(new_thread);
80002b9c:	7e8000ef          	jal	ra,80003384 <z_reset_time_slice>
	struct k_thread *old = CONTAINER_OF(switched_from, struct k_thread,
					    switch_handle);
#ifdef CONFIG_RISCV_ALWAYS_SWITCH_THROUGH_ECALL
	arch_syscall_invoke2((uintptr_t)new, (uintptr_t)old, RV_ECALL_SCHEDULE);
#else
	z_riscv_switch(new, old);
80002ba0:	00090593          	mv	a1,s2
80002ba4:	07c42503          	lw	a0,124(s0)
80002ba8:	a04ff0ef          	jal	ra,80001dac <z_riscv_switch>
			  : "r" (key & MSTATUS_IEN)
80002bac:	0084f493          	andi	s1,s1,8
	__asm__ volatile ("csrs mstatus, %0"
80002bb0:	3004a073          	csrs	mstatus,s1
	(void) do_swap(arch_irq_lock(), NULL, true);
}
80002bb4:	00c12083          	lw	ra,12(sp)
80002bb8:	00812403          	lw	s0,8(sp)
80002bbc:	00412483          	lw	s1,4(sp)
80002bc0:	00012903          	lw	s2,0(sp)
80002bc4:	01010113          	addi	sp,sp,16
80002bc8:	00008067          	ret

80002bcc <switch_to_main_thread>:
	return stack_ptr;
}

__boot_func
static FUNC_NORETURN void switch_to_main_thread(char *stack_ptr)
{
80002bcc:	ff010113          	addi	sp,sp,-16
80002bd0:	00112623          	sw	ra,12(sp)
	/*
	 * Context switch to main task (entry function is _main()): the
	 * current fake thread is not on a wait queue or ready queue, so it
	 * will never be rescheduled in.
	 */
	z_swap_unlocked();
80002bd4:	f81ff0ef          	jal	ra,80002b54 <z_swap_unlocked>

80002bd8 <z_early_memset>:
{
80002bd8:	ff010113          	addi	sp,sp,-16
80002bdc:	00112623          	sw	ra,12(sp)

__BEGIN_DECLS
__ssp_bos_icheck3_restrict(memcpy, void *, const void *)
__ssp_bos_icheck3(memmove, void *, const void *)
__ssp_bos_icheck3_restrict(mempcpy, void *, const void *)
__ssp_bos_icheck3(memset, void *, int)
80002be0:	e19fd0ef          	jal	ra,800009f8 <memset>
}
80002be4:	00c12083          	lw	ra,12(sp)
80002be8:	01010113          	addi	sp,sp,16
80002bec:	00008067          	ret

80002bf0 <z_bss_zero>:
{
80002bf0:	ff010113          	addi	sp,sp,-16
80002bf4:	00112623          	sw	ra,12(sp)
	z_early_memset(__bss_start, 0, __bss_end - __bss_start);
80002bf8:	80007537          	lui	a0,0x80007
80002bfc:	b4850613          	addi	a2,a0,-1208 # 80006b48 <CONFIG_SYSTEM_WORKQUEUE_PRIORITY+0x80006b49>
80002c00:	800077b7          	lui	a5,0x80007
80002c04:	cc478793          	addi	a5,a5,-828 # 80006cc4 <CONFIG_SYSTEM_WORKQUEUE_PRIORITY+0x80006cc5>
80002c08:	40c78633          	sub	a2,a5,a2
80002c0c:	00000593          	li	a1,0
80002c10:	b4850513          	addi	a0,a0,-1208
80002c14:	fc5ff0ef          	jal	ra,80002bd8 <z_early_memset>
}
80002c18:	00c12083          	lw	ra,12(sp)
80002c1c:	01010113          	addi	sp,sp,16
80002c20:	00008067          	ret

80002c24 <z_init_cpu>:
{
80002c24:	ff010113          	addi	sp,sp,-16
80002c28:	00112623          	sw	ra,12(sp)
80002c2c:	00812423          	sw	s0,8(sp)
80002c30:	00050413          	mv	s0,a0
	init_idle_thread(id);
80002c34:	e21ff0ef          	jal	ra,80002a54 <init_idle_thread>
	_kernel.cpus[id].idle_thread = &z_idle_threads[id];
80002c38:	00441793          	slli	a5,s0,0x4
80002c3c:	008787b3          	add	a5,a5,s0
80002c40:	00379793          	slli	a5,a5,0x3
80002c44:	80007737          	lui	a4,0x80007
80002c48:	b9070713          	addi	a4,a4,-1136 # 80006b90 <CONFIG_SYSTEM_WORKQUEUE_PRIORITY+0x80006b91>
80002c4c:	00e787b3          	add	a5,a5,a4
80002c50:	80007737          	lui	a4,0x80007
80002c54:	ca070713          	addi	a4,a4,-864 # 80006ca0 <CONFIG_SYSTEM_WORKQUEUE_PRIORITY+0x80006ca1>
80002c58:	00141693          	slli	a3,s0,0x1
80002c5c:	00868633          	add	a2,a3,s0
80002c60:	00361613          	slli	a2,a2,0x3
80002c64:	00c70633          	add	a2,a4,a2
80002c68:	00f62623          	sw	a5,12(a2)
	_kernel.cpus[id].id = id;
80002c6c:	00860a23          	sb	s0,20(a2)
		(Z_KERNEL_STACK_BUFFER(z_interrupt_stacks[id]) +
80002c70:	00c41793          	slli	a5,s0,0xc
80002c74:	80007637          	lui	a2,0x80007
80002c78:	cd060613          	addi	a2,a2,-816 # 80006cd0 <CONFIG_SYSTEM_WORKQUEUE_PRIORITY+0x80006cd1>
80002c7c:	00c787b3          	add	a5,a5,a2
80002c80:	00001637          	lui	a2,0x1
80002c84:	00c787b3          	add	a5,a5,a2
	_kernel.cpus[id].irq_stack =
80002c88:	008686b3          	add	a3,a3,s0
80002c8c:	00369693          	slli	a3,a3,0x3
80002c90:	00d70733          	add	a4,a4,a3
80002c94:	00f72223          	sw	a5,4(a4)
}
80002c98:	00c12083          	lw	ra,12(sp)
80002c9c:	00812403          	lw	s0,8(sp)
80002ca0:	01010113          	addi	sp,sp,16
80002ca4:	00008067          	ret

80002ca8 <prepare_multithreading>:
{
80002ca8:	fe010113          	addi	sp,sp,-32
80002cac:	00112e23          	sw	ra,28(sp)
80002cb0:	00812c23          	sw	s0,24(sp)
80002cb4:	00912a23          	sw	s1,20(sp)
80002cb8:	01212823          	sw	s2,16(sp)
	z_sched_init();
80002cbc:	428010ef          	jal	ra,800040e4 <z_sched_init>
	_kernel.ready_q.cache = &z_main_thread;
80002cc0:	800077b7          	lui	a5,0x80007
80002cc4:	800074b7          	lui	s1,0x80007
80002cc8:	c1848913          	addi	s2,s1,-1000 # 80006c18 <CONFIG_SYSTEM_WORKQUEUE_PRIORITY+0x80006c19>
80002ccc:	ca078793          	addi	a5,a5,-864 # 80006ca0 <CONFIG_SYSTEM_WORKQUEUE_PRIORITY+0x80006ca1>
80002cd0:	0127ac23          	sw	s2,24(a5)
	stack_ptr = z_setup_new_thread(&z_main_thread, z_main_stack,
80002cd4:	800077b7          	lui	a5,0x80007
80002cd8:	90078793          	addi	a5,a5,-1792 # 80006900 <CONFIG_SYSTEM_WORKQUEUE_PRIORITY+0x80006901>
80002cdc:	00f12223          	sw	a5,4(sp)
80002ce0:	00100793          	li	a5,1
80002ce4:	00f12023          	sw	a5,0(sp)
80002ce8:	00000893          	li	a7,0
80002cec:	00000813          	li	a6,0
80002cf0:	00000793          	li	a5,0
80002cf4:	00000713          	li	a4,0
80002cf8:	800036b7          	lui	a3,0x80003
80002cfc:	b0468693          	addi	a3,a3,-1276 # 80002b04 <CONFIG_SYSTEM_WORKQUEUE_PRIORITY+0x80002b05>
80002d00:	00001637          	lui	a2,0x1
80002d04:	800085b7          	lui	a1,0x80008
80002d08:	0d058593          	addi	a1,a1,208 # 800080d0 <CONFIG_SYSTEM_WORKQUEUE_PRIORITY+0x800080d1>
80002d0c:	c1848513          	addi	a0,s1,-1000
80002d10:	130000ef          	jal	ra,80002e40 <z_setup_new_thread>
80002d14:	00050413          	mv	s0,a0
80002d18:	00d94783          	lbu	a5,13(s2)
80002d1c:	ffb7f793          	andi	a5,a5,-5
80002d20:	00f906a3          	sb	a5,13(s2)
	z_ready_thread(&z_main_thread);
80002d24:	c1848513          	addi	a0,s1,-1000
80002d28:	575000ef          	jal	ra,80003a9c <z_ready_thread>
	z_init_cpu(0);
80002d2c:	00000513          	li	a0,0
80002d30:	ef5ff0ef          	jal	ra,80002c24 <z_init_cpu>
}
80002d34:	00040513          	mv	a0,s0
80002d38:	01c12083          	lw	ra,28(sp)
80002d3c:	01812403          	lw	s0,24(sp)
80002d40:	01412483          	lw	s1,20(sp)
80002d44:	01012903          	lw	s2,16(sp)
80002d48:	02010113          	addi	sp,sp,32
80002d4c:	00008067          	ret

80002d50 <z_cstart>:
 *
 * @return Does not return
 */
__boot_func
FUNC_NORETURN void z_cstart(void)
{
80002d50:	f6010113          	addi	sp,sp,-160
80002d54:	08112e23          	sw	ra,156(sp)
 *
 * The memory of the dummy thread can be completely uninitialized.
 */
static inline void z_dummy_thread_init(struct k_thread *dummy_thread)
{
	dummy_thread->base.thread_state = _THREAD_DUMMY;
80002d58:	00100793          	li	a5,1
80002d5c:	00f10aa3          	sb	a5,21(sp)
#ifdef CONFIG_SCHED_CPU_MASK
	dummy_thread->base.cpu_mask = -1;
#endif
	dummy_thread->base.user_options = K_ESSENTIAL;
80002d60:	00f10a23          	sb	a5,20(sp)
	dummy_thread->mem_domain_info.mem_domain = &k_mem_domain_default;
#endif
#if (CONFIG_HEAP_MEM_POOL_SIZE > 0)
	k_thread_system_pool_assign(dummy_thread);
#else
	dummy_thread->resource_pool = NULL;
80002d64:	08012423          	sw	zero,136(sp)

#ifdef CONFIG_TIMESLICE_PER_THREAD
	dummy_thread->base.slice_ticks = 0;
#endif

	_current_cpu->current = dummy_thread;
80002d68:	800077b7          	lui	a5,0x80007
80002d6c:	ca078793          	addi	a5,a5,-864 # 80006ca0 <CONFIG_SYSTEM_WORKQUEUE_PRIORITY+0x80006ca1>
80002d70:	00810713          	addi	a4,sp,8
80002d74:	00e7a423          	sw	a4,8(a5)
	struct k_thread dummy_thread;

	z_dummy_thread_init(&dummy_thread);
#endif
	/* do any necessary initialization of static devices */
	z_device_state_init();
80002d78:	b6dff0ef          	jal	ra,800028e4 <z_device_state_init>

	/* perform basic hardware initialization */
	z_sys_init_run_level(_SYS_INIT_LEVEL_PRE_KERNEL_1);
80002d7c:	00000513          	li	a0,0
80002d80:	b85ff0ef          	jal	ra,80002904 <z_sys_init_run_level>
	z_sys_init_run_level(_SYS_INIT_LEVEL_PRE_KERNEL_2);
80002d84:	00100513          	li	a0,1
80002d88:	b7dff0ef          	jal	ra,80002904 <z_sys_init_run_level>
	timing_init();
	timing_start();
#endif

#ifdef CONFIG_MULTITHREADING
	switch_to_main_thread(prepare_multithreading());
80002d8c:	f1dff0ef          	jal	ra,80002ca8 <prepare_multithreading>
80002d90:	e3dff0ef          	jal	ra,80002bcc <switch_to_main_thread>

80002d94 <setup_thread_stack>:
#endif /* CONFIG_STACK_GROWS_UP */
#endif /* CONFIG_STACK_POINTER_RANDOM */

static char *setup_thread_stack(struct k_thread *new_thread,
				k_thread_stack_t *stack, size_t stack_size)
{
80002d94:	ff010113          	addi	sp,sp,-16
80002d98:	00112623          	sw	ra,12(sp)
80002d9c:	00812423          	sw	s0,8(sp)
80002da0:	00058513          	mv	a0,a1
		stack_buf_size = stack_obj_size - K_THREAD_STACK_RESERVED;
	} else
#endif
	{
		/* Object cannot host a user mode thread */
		stack_obj_size = Z_KERNEL_STACK_SIZE_ADJUST(stack_size);
80002da4:	00f60613          	addi	a2,a2,15 # 100f <CONFIG_ISR_STACK_SIZE+0xf>
80002da8:	ff067613          	andi	a2,a2,-16
	}

	/* Initial stack pointer at the high end of the stack object, may
	 * be reduced later in this function by TLS or random offset
	 */
	stack_ptr = (char *)stack + stack_obj_size;
80002dac:	00c58433          	add	s0,a1,a2
80002db0:	0aa00593          	li	a1,170
80002db4:	c45fd0ef          	jal	ra,800009f8 <memset>
	new_thread->stack_info.delta = delta;
#endif
	stack_ptr -= delta;

	return stack_ptr;
}
80002db8:	00040513          	mv	a0,s0
80002dbc:	00c12083          	lw	ra,12(sp)
80002dc0:	00812403          	lw	s0,8(sp)
80002dc4:	01010113          	addi	sp,sp,16
80002dc8:	00008067          	ret

80002dcc <z_impl_k_thread_start>:
{
80002dcc:	ff010113          	addi	sp,sp,-16
80002dd0:	00112623          	sw	ra,12(sp)
	z_sched_start(thread);
80002dd4:	525000ef          	jal	ra,80003af8 <z_sched_start>
}
80002dd8:	00c12083          	lw	ra,12(sp)
80002ddc:	01010113          	addi	sp,sp,16
80002de0:	00008067          	ret

80002de4 <schedule_new_thread>:
{
80002de4:	ff010113          	addi	sp,sp,-16
80002de8:	00112623          	sw	ra,12(sp)
80002dec:	00060693          	mv	a3,a2
	if (K_TIMEOUT_EQ(delay, K_NO_WAIT)) {
80002df0:	00b667b3          	or	a5,a2,a1
80002df4:	00079a63          	bnez	a5,80002e08 <schedule_new_thread+0x24>
	z_impl_k_thread_start(thread);
80002df8:	fd5ff0ef          	jal	ra,80002dcc <z_impl_k_thread_start>
}
80002dfc:	00c12083          	lw	ra,12(sp)
80002e00:	01010113          	addi	sp,sp,16
80002e04:	00008067          	ret
80002e08:	00058613          	mv	a2,a1

extern void z_thread_timeout(struct _timeout *timeout);

static inline void z_add_thread_timeout(struct k_thread *thread, k_timeout_t ticks)
{
	z_add_timeout(&thread->base.timeout, z_thread_timeout, ticks);
80002e0c:	800045b7          	lui	a1,0x80004
80002e10:	b4c58593          	addi	a1,a1,-1204 # 80003b4c <CONFIG_SYSTEM_WORKQUEUE_PRIORITY+0x80003b4d>
80002e14:	01850513          	addi	a0,a0,24
80002e18:	51c010ef          	jal	ra,80004334 <z_add_timeout>
80002e1c:	fe1ff06f          	j	80002dfc <schedule_new_thread+0x18>

80002e20 <z_init_thread_base>:

void z_init_thread_base(struct _thread_base *thread_base, int priority,
		       uint32_t initial_state, unsigned int options)
{
	/* k_q_node is initialized upon first insertion in a list */
	thread_base->pended_on = NULL;
80002e20:	00052423          	sw	zero,8(a0)
	thread_base->user_options = (uint8_t)options;
80002e24:	00d50623          	sb	a3,12(a0)
	thread_base->thread_state = (uint8_t)initial_state;
80002e28:	00c506a3          	sb	a2,13(a0)

	thread_base->prio = priority;
80002e2c:	00b50723          	sb	a1,14(a0)

	thread_base->sched_locked = 0U;
80002e30:	000507a3          	sb	zero,15(a0)
 * @param node the node
 */

static inline void sys_dnode_init(sys_dnode_t *node)
{
	node->next = NULL;
80002e34:	00052c23          	sw	zero,24(a0)
	node->prev = NULL;
80002e38:	00052e23          	sw	zero,28(a0)
#endif

	/* swap_data does not need to be initialized */

	z_init_thread_timeout(thread_base);
}
80002e3c:	00008067          	ret

80002e40 <z_setup_new_thread>:
{
80002e40:	fe010113          	addi	sp,sp,-32
80002e44:	00112e23          	sw	ra,28(sp)
80002e48:	00812c23          	sw	s0,24(sp)
80002e4c:	00912a23          	sw	s1,20(sp)
80002e50:	01212823          	sw	s2,16(sp)
80002e54:	01312623          	sw	s3,12(sp)
80002e58:	01412423          	sw	s4,8(sp)
80002e5c:	01512223          	sw	s5,4(sp)
80002e60:	01612023          	sw	s6,0(sp)
80002e64:	00050413          	mv	s0,a0
80002e68:	00058913          	mv	s2,a1
80002e6c:	00060493          	mv	s1,a2
80002e70:	00068993          	mv	s3,a3
80002e74:	00070a13          	mv	s4,a4
80002e78:	00078a93          	mv	s5,a5
80002e7c:	00080b13          	mv	s6,a6
80002e80:	00088593          	mv	a1,a7
	SYS_DLIST_FOR_EACH_CONTAINER(&((wq)->waitq), thread_ptr, \
				     base.qnode_dlist)

static inline void z_waitq_init(_wait_q_t *w)
{
	sys_dlist_init(&w->waitq);
80002e84:	06c50793          	addi	a5,a0,108
	list->head = (sys_dnode_t *)list;
80002e88:	06f52623          	sw	a5,108(a0)
	list->tail = (sys_dnode_t *)list;
80002e8c:	06f52823          	sw	a5,112(a0)
	z_init_thread_base(&new_thread->base, prio, _THREAD_PRESTART, options);
80002e90:	02012683          	lw	a3,32(sp)
80002e94:	00400613          	li	a2,4
80002e98:	f89ff0ef          	jal	ra,80002e20 <z_init_thread_base>
	stack_ptr = setup_thread_stack(new_thread, stack, stack_size);
80002e9c:	00048613          	mv	a2,s1
80002ea0:	00090593          	mv	a1,s2
80002ea4:	00040513          	mv	a0,s0
80002ea8:	eedff0ef          	jal	ra,80002d94 <setup_thread_stack>
80002eac:	00050493          	mv	s1,a0
	arch_new_thread(new_thread, stack, stack_ptr, entry, p1, p2, p3);
80002eb0:	000b0813          	mv	a6,s6
80002eb4:	000a8793          	mv	a5,s5
80002eb8:	000a0713          	mv	a4,s4
80002ebc:	00098693          	mv	a3,s3
80002ec0:	00050613          	mv	a2,a0
80002ec4:	00090593          	mv	a1,s2
80002ec8:	00040513          	mv	a0,s0
80002ecc:	f89fe0ef          	jal	ra,80001e54 <arch_new_thread>
	new_thread->init_data = NULL;
80002ed0:	06042423          	sw	zero,104(s0)
	new_thread->resource_pool = _current->resource_pool;
80002ed4:	800077b7          	lui	a5,0x80007
80002ed8:	ca078793          	addi	a5,a5,-864 # 80006ca0 <CONFIG_SYSTEM_WORKQUEUE_PRIORITY+0x80006ca1>
80002edc:	0087a783          	lw	a5,8(a5)
80002ee0:	0807a783          	lw	a5,128(a5)
80002ee4:	08f42023          	sw	a5,128(s0)
}
80002ee8:	00048513          	mv	a0,s1
80002eec:	01c12083          	lw	ra,28(sp)
80002ef0:	01812403          	lw	s0,24(sp)
80002ef4:	01412483          	lw	s1,20(sp)
80002ef8:	01012903          	lw	s2,16(sp)
80002efc:	00c12983          	lw	s3,12(sp)
80002f00:	00812a03          	lw	s4,8(sp)
80002f04:	00412a83          	lw	s5,4(sp)
80002f08:	00012b03          	lw	s6,0(sp)
80002f0c:	02010113          	addi	sp,sp,32
80002f10:	00008067          	ret

80002f14 <z_init_static_threads>:
{
80002f14:	fe010113          	addi	sp,sp,-32
80002f18:	00112e23          	sw	ra,28(sp)
80002f1c:	00812c23          	sw	s0,24(sp)
80002f20:	00912a23          	sw	s1,20(sp)
	_FOREACH_STATIC_THREAD(thread_data) {
80002f24:	80006437          	lui	s0,0x80006
80002f28:	52840413          	addi	s0,s0,1320 # 80006528 <CONFIG_SYSTEM_WORKQUEUE_PRIORITY+0x80006529>
80002f2c:	0440006f          	j	80002f70 <z_init_static_threads+0x5c>
		z_setup_new_thread(
80002f30:	02c42783          	lw	a5,44(s0)
80002f34:	00f12223          	sw	a5,4(sp)
80002f38:	02042783          	lw	a5,32(s0)
80002f3c:	00f12023          	sw	a5,0(sp)
80002f40:	01c42883          	lw	a7,28(s0)
80002f44:	01842803          	lw	a6,24(s0)
80002f48:	01442783          	lw	a5,20(s0)
80002f4c:	01042703          	lw	a4,16(s0)
80002f50:	00c42683          	lw	a3,12(s0)
80002f54:	00842603          	lw	a2,8(s0)
80002f58:	00442583          	lw	a1,4(s0)
80002f5c:	00042503          	lw	a0,0(s0)
80002f60:	ee1ff0ef          	jal	ra,80002e40 <z_setup_new_thread>
		thread_data->init_thread->init_data = thread_data;
80002f64:	00042783          	lw	a5,0(s0)
80002f68:	0687a423          	sw	s0,104(a5)
	_FOREACH_STATIC_THREAD(thread_data) {
80002f6c:	03040413          	addi	s0,s0,48
80002f70:	800067b7          	lui	a5,0x80006
80002f74:	52878793          	addi	a5,a5,1320 # 80006528 <CONFIG_SYSTEM_WORKQUEUE_PRIORITY+0x80006529>
80002f78:	faf46ce3          	bltu	s0,a5,80002f30 <z_init_static_threads+0x1c>
	k_sched_lock();
80002f7c:	510000ef          	jal	ra,8000348c <k_sched_lock>
	_FOREACH_STATIC_THREAD(thread_data) {
80002f80:	80006437          	lui	s0,0x80006
80002f84:	52840413          	addi	s0,s0,1320 # 80006528 <CONFIG_SYSTEM_WORKQUEUE_PRIORITY+0x80006529>
80002f88:	0440006f          	j	80002fcc <z_init_static_threads+0xb8>
					    K_MSEC(thread_data->init_delay));
80002f8c:	41f7d593          	srai	a1,a5,0x1f
			/* Faster algorithm but source is first multiplied by target frequency
			 * and it can overflow even though final result would not overflow.
			 * Kconfig option shall prevent use of this algorithm when there is a
			 * risk of overflow.
			 */
			return ((t * to_hz + off) / from_hz);
80002f90:	0197d713          	srli	a4,a5,0x19
80002f94:	00759593          	slli	a1,a1,0x7
80002f98:	00b765b3          	or	a1,a4,a1
80002f9c:	00779793          	slli	a5,a5,0x7
80002fa0:	3e778513          	addi	a0,a5,999
80002fa4:	00f537b3          	sltu	a5,a0,a5
80002fa8:	3e800613          	li	a2,1000
80002fac:	00000693          	li	a3,0
80002fb0:	00b785b3          	add	a1,a5,a1
80002fb4:	a30fd0ef          	jal	ra,800001e4 <__udivdi3>
			schedule_new_thread(thread_data->init_thread,
80002fb8:	00058613          	mv	a2,a1
80002fbc:	00050593          	mv	a1,a0
80002fc0:	00048513          	mv	a0,s1
80002fc4:	e21ff0ef          	jal	ra,80002de4 <schedule_new_thread>
	_FOREACH_STATIC_THREAD(thread_data) {
80002fc8:	03040413          	addi	s0,s0,48
80002fcc:	800067b7          	lui	a5,0x80006
80002fd0:	52878793          	addi	a5,a5,1320 # 80006528 <CONFIG_SYSTEM_WORKQUEUE_PRIORITY+0x80006529>
80002fd4:	02f47063          	bgeu	s0,a5,80002ff4 <z_init_static_threads+0xe0>
		if (thread_data->init_delay != K_TICKS_FOREVER) {
80002fd8:	02442783          	lw	a5,36(s0)
80002fdc:	fff00713          	li	a4,-1
80002fe0:	fee784e3          	beq	a5,a4,80002fc8 <z_init_static_threads+0xb4>
			schedule_new_thread(thread_data->init_thread,
80002fe4:	00042483          	lw	s1,0(s0)
					    K_MSEC(thread_data->init_delay));
80002fe8:	fa07d2e3          	bgez	a5,80002f8c <z_init_static_threads+0x78>
80002fec:	00000793          	li	a5,0
80002ff0:	f9dff06f          	j	80002f8c <z_init_static_threads+0x78>
	k_sched_unlock();
80002ff4:	775000ef          	jal	ra,80003f68 <k_sched_unlock>
}
80002ff8:	01c12083          	lw	ra,28(sp)
80002ffc:	01812403          	lw	s0,24(sp)
80003000:	01412483          	lw	s1,20(sp)
80003004:	02010113          	addi	sp,sp,32
80003008:	00008067          	ret

8000300c <idle>:
#endif	/* CONFIG_PM */
	sys_clock_idle_exit();
}

void idle(void *unused1, void *unused2, void *unused3)
{
8000300c:	ff010113          	addi	sp,sp,-16
80003010:	00112623          	sw	ra,12(sp)
	__asm__ volatile ("csrrc %0, mstatus, %1"
80003014:	300477f3          	csrrci	a5,mstatus,8
 * @note In some architectures, before returning, the function unmasks interrupts
 * unconditionally.
 */
static inline void k_cpu_idle(void)
{
	arch_cpu_idle();
80003018:	c11fe0ef          	jal	ra,80001c28 <arch_cpu_idle>
8000301c:	ff9ff06f          	j	80003014 <idle+0x8>

80003020 <new_prio_for_inheritance>:
#include <syscalls/k_mutex_init_mrsh.c>
#endif

static int32_t new_prio_for_inheritance(int32_t target, int32_t limit)
{
	int new_prio = z_is_prio_higher(target, limit) ? target : limit;
80003020:	00b55463          	bge	a0,a1,80003028 <new_prio_for_inheritance+0x8>
80003024:	00050593          	mv	a1,a0
	return prio >= CONFIG_PRIORITY_CEILING;
}

static inline int z_get_new_prio_with_ceiling(int prio)
{
	return z_is_under_prio_ceiling(prio) ? prio : CONFIG_PRIORITY_CEILING;
80003028:	f8100793          	li	a5,-127
8000302c:	00f5c663          	blt	a1,a5,80003038 <new_prio_for_inheritance+0x18>
80003030:	00058513          	mv	a0,a1
80003034:	00008067          	ret
80003038:	f8100513          	li	a0,-127

	new_prio = z_get_new_prio_with_ceiling(new_prio);

	return new_prio;
}
8000303c:	00008067          	ret

80003040 <adjust_owner_prio>:

static bool adjust_owner_prio(struct k_mutex *mutex, int32_t new_prio)
{
	if (mutex->owner->base.prio != new_prio) {
80003040:	00852503          	lw	a0,8(a0)
80003044:	00e50783          	lb	a5,14(a0)
80003048:	00b79663          	bne	a5,a1,80003054 <adjust_owner_prio+0x14>
			'y' : 'n',
			new_prio, mutex->owner->base.prio);

		return z_set_prio(mutex->owner, new_prio);
	}
	return false;
8000304c:	00000513          	li	a0,0
}
80003050:	00008067          	ret
{
80003054:	ff010113          	addi	sp,sp,-16
80003058:	00112623          	sw	ra,12(sp)
		return z_set_prio(mutex->owner, new_prio);
8000305c:	5c1000ef          	jal	ra,80003e1c <z_set_prio>
}
80003060:	00c12083          	lw	ra,12(sp)
80003064:	01010113          	addi	sp,sp,16
80003068:	00008067          	ret

8000306c <z_impl_k_mutex_init>:
	mutex->owner = NULL;
8000306c:	00052423          	sw	zero,8(a0)
	mutex->lock_count = 0U;
80003070:	00052623          	sw	zero,12(a0)
	list->head = (sys_dnode_t *)list;
80003074:	00a52023          	sw	a0,0(a0)
	list->tail = (sys_dnode_t *)list;
80003078:	00a52223          	sw	a0,4(a0)
}
8000307c:	00000513          	li	a0,0
80003080:	00008067          	ret

80003084 <z_impl_k_mutex_lock>:

int z_impl_k_mutex_lock(struct k_mutex *mutex, k_timeout_t timeout)
{
80003084:	fe010113          	addi	sp,sp,-32
80003088:	00112e23          	sw	ra,28(sp)
8000308c:	00812c23          	sw	s0,24(sp)
80003090:	00912a23          	sw	s1,20(sp)
80003094:	01212823          	sw	s2,16(sp)
80003098:	01312623          	sw	s3,12(sp)
8000309c:	01412423          	sw	s4,8(sp)
800030a0:	00050413          	mv	s0,a0
800030a4:	300474f3          	csrrci	s1,mstatus,8

	SYS_PORT_TRACING_OBJ_FUNC_ENTER(k_mutex, lock, mutex, timeout);

	key = k_spin_lock(&lock);

	if (likely((mutex->lock_count == 0U) || (mutex->owner == _current))) {
800030a8:	00c52783          	lw	a5,12(a0)
800030ac:	06079063          	bnez	a5,8000310c <z_impl_k_mutex_lock+0x88>

		mutex->owner_orig_prio = (mutex->lock_count == 0U) ?
					_current->base.prio :
800030b0:	10079063          	bnez	a5,800031b0 <z_impl_k_mutex_lock+0x12c>
800030b4:	80007737          	lui	a4,0x80007
800030b8:	ca070713          	addi	a4,a4,-864 # 80006ca0 <CONFIG_SYSTEM_WORKQUEUE_PRIORITY+0x80006ca1>
800030bc:	00872703          	lw	a4,8(a4)
800030c0:	00e70703          	lb	a4,14(a4)
		mutex->owner_orig_prio = (mutex->lock_count == 0U) ?
800030c4:	00e42823          	sw	a4,16(s0)
					mutex->owner_orig_prio;

		mutex->lock_count++;
800030c8:	00178793          	addi	a5,a5,1
800030cc:	00f42623          	sw	a5,12(s0)
		mutex->owner = _current;
800030d0:	800077b7          	lui	a5,0x80007
800030d4:	ca078793          	addi	a5,a5,-864 # 80006ca0 <CONFIG_SYSTEM_WORKQUEUE_PRIORITY+0x80006ca1>
800030d8:	0087a783          	lw	a5,8(a5)
800030dc:	00f42423          	sw	a5,8(s0)
	__asm__ volatile ("csrs mstatus, %0"
800030e0:	0084f493          	andi	s1,s1,8
800030e4:	3004a073          	csrs	mstatus,s1

		k_spin_unlock(&lock, key);

		SYS_PORT_TRACING_OBJ_FUNC_EXIT(k_mutex, lock, mutex, timeout, 0);

		return 0;
800030e8:	00000513          	li	a0,0
	}

	SYS_PORT_TRACING_OBJ_FUNC_EXIT(k_mutex, lock, mutex, timeout, -EAGAIN);

	return -EAGAIN;
}
800030ec:	01c12083          	lw	ra,28(sp)
800030f0:	01812403          	lw	s0,24(sp)
800030f4:	01412483          	lw	s1,20(sp)
800030f8:	01012903          	lw	s2,16(sp)
800030fc:	00c12983          	lw	s3,12(sp)
80003100:	00812a03          	lw	s4,8(sp)
80003104:	02010113          	addi	sp,sp,32
80003108:	00008067          	ret
8000310c:	00058993          	mv	s3,a1
80003110:	00060913          	mv	s2,a2
	if (likely((mutex->lock_count == 0U) || (mutex->owner == _current))) {
80003114:	00852683          	lw	a3,8(a0)
80003118:	80007737          	lui	a4,0x80007
8000311c:	ca070713          	addi	a4,a4,-864 # 80006ca0 <CONFIG_SYSTEM_WORKQUEUE_PRIORITY+0x80006ca1>
80003120:	00872703          	lw	a4,8(a4)
80003124:	f8e686e3          	beq	a3,a4,800030b0 <z_impl_k_mutex_lock+0x2c>
	if (unlikely(K_TIMEOUT_EQ(timeout, K_NO_WAIT))) {
80003128:	00b667b3          	or	a5,a2,a1
8000312c:	08078663          	beqz	a5,800031b8 <z_impl_k_mutex_lock+0x134>
					    mutex->owner->base.prio);
80003130:	00e68a03          	lb	s4,14(a3)
	new_prio = new_prio_for_inheritance(_current->base.prio,
80003134:	000a0593          	mv	a1,s4
80003138:	00e70503          	lb	a0,14(a4)
8000313c:	ee5ff0ef          	jal	ra,80003020 <new_prio_for_inheritance>
	if (z_is_prio_higher(new_prio, mutex->owner->base.prio)) {
80003140:	09454463          	blt	a0,s4,800031c8 <z_impl_k_mutex_lock+0x144>
	bool resched = false;
80003144:	00000a13          	li	s4,0
	int got_mutex = z_pend_curr(&lock, key, &mutex->wait_q, timeout);
80003148:	00098693          	mv	a3,s3
8000314c:	00090713          	mv	a4,s2
80003150:	00040613          	mv	a2,s0
80003154:	00048593          	mv	a1,s1
80003158:	80007537          	lui	a0,0x80007
8000315c:	cc450513          	addi	a0,a0,-828 # 80006cc4 <CONFIG_SYSTEM_WORKQUEUE_PRIORITY+0x80006cc5>
80003160:	469000ef          	jal	ra,80003dc8 <z_pend_curr>
	if (got_mutex == 0) {
80003164:	f80504e3          	beqz	a0,800030ec <z_impl_k_mutex_lock+0x68>
	__asm__ volatile ("csrrc %0, mstatus, %1"
80003168:	300474f3          	csrrci	s1,mstatus,8
	if (likely(mutex->owner != NULL)) {
8000316c:	00842783          	lw	a5,8(s0)
80003170:	06078a63          	beqz	a5,800031e4 <z_impl_k_mutex_lock+0x160>
 * @return true if empty, false otherwise
 */

static inline bool sys_dlist_is_empty(sys_dlist_t *list)
{
	return list->head == list;
80003174:	00042783          	lw	a5,0(s0)
 * @return a pointer to the head element, NULL if list is empty
 */

static inline sys_dnode_t *sys_dlist_peek_head(sys_dlist_t *list)
{
	return sys_dlist_is_empty(list) ? NULL : list->head;
80003178:	06878263          	beq	a5,s0,800031dc <z_impl_k_mutex_lock+0x158>
			new_prio_for_inheritance(waiter->base.prio, mutex->owner_orig_prio) :
8000317c:	06078063          	beqz	a5,800031dc <z_impl_k_mutex_lock+0x158>
80003180:	01042583          	lw	a1,16(s0)
80003184:	00e78503          	lb	a0,14(a5)
80003188:	e99ff0ef          	jal	ra,80003020 <new_prio_for_inheritance>
8000318c:	00050593          	mv	a1,a0
		resched = adjust_owner_prio(mutex, new_prio) || resched;
80003190:	00040513          	mv	a0,s0
80003194:	eadff0ef          	jal	ra,80003040 <adjust_owner_prio>
80003198:	04051863          	bnez	a0,800031e8 <z_impl_k_mutex_lock+0x164>
8000319c:	040a1663          	bnez	s4,800031e8 <z_impl_k_mutex_lock+0x164>
	__asm__ volatile ("csrs mstatus, %0"
800031a0:	0084f493          	andi	s1,s1,8
800031a4:	3004a073          	csrs	mstatus,s1
	return -EAGAIN;
800031a8:	ff500513          	li	a0,-11
800031ac:	f41ff06f          	j	800030ec <z_impl_k_mutex_lock+0x68>
					_current->base.prio :
800031b0:	01042703          	lw	a4,16(s0)
800031b4:	f11ff06f          	j	800030c4 <z_impl_k_mutex_lock+0x40>
800031b8:	0084f493          	andi	s1,s1,8
800031bc:	3004a073          	csrs	mstatus,s1
		return -EBUSY;
800031c0:	ff000513          	li	a0,-16
800031c4:	f29ff06f          	j	800030ec <z_impl_k_mutex_lock+0x68>
		resched = adjust_owner_prio(mutex, new_prio);
800031c8:	00050593          	mv	a1,a0
800031cc:	00040513          	mv	a0,s0
800031d0:	e71ff0ef          	jal	ra,80003040 <adjust_owner_prio>
800031d4:	00050a13          	mv	s4,a0
800031d8:	f71ff06f          	j	80003148 <z_impl_k_mutex_lock+0xc4>
			new_prio_for_inheritance(waiter->base.prio, mutex->owner_orig_prio) :
800031dc:	01042583          	lw	a1,16(s0)
800031e0:	fb1ff06f          	j	80003190 <z_impl_k_mutex_lock+0x10c>
	if (resched) {
800031e4:	fa0a0ee3          	beqz	s4,800031a0 <z_impl_k_mutex_lock+0x11c>
		z_reschedule(&lock, key);
800031e8:	00048593          	mv	a1,s1
800031ec:	80007537          	lui	a0,0x80007
800031f0:	cc450513          	addi	a0,a0,-828 # 80006cc4 <CONFIG_SYSTEM_WORKQUEUE_PRIORITY+0x80006cc5>
800031f4:	430000ef          	jal	ra,80003624 <z_reschedule>
	return -EAGAIN;
800031f8:	ff500513          	li	a0,-11
800031fc:	ef1ff06f          	j	800030ec <z_impl_k_mutex_lock+0x68>

80003200 <z_impl_k_mutex_unlock>:

	__ASSERT(!arch_is_in_isr(), "mutexes cannot be used inside ISRs");

	SYS_PORT_TRACING_OBJ_FUNC_ENTER(k_mutex, unlock, mutex);

	CHECKIF(mutex->owner == NULL) {
80003200:	00852703          	lw	a4,8(a0)
80003204:	0a070663          	beqz	a4,800032b0 <z_impl_k_mutex_unlock+0xb0>
{
80003208:	ff010113          	addi	sp,sp,-16
8000320c:	00112623          	sw	ra,12(sp)
80003210:	00812423          	sw	s0,8(sp)
80003214:	00912223          	sw	s1,4(sp)
80003218:	00050413          	mv	s0,a0
		return -EINVAL;
	}
	/*
	 * The current thread does not own the mutex.
	 */
	CHECKIF(mutex->owner != _current) {
8000321c:	800077b7          	lui	a5,0x80007
80003220:	ca078793          	addi	a5,a5,-864 # 80006ca0 <CONFIG_SYSTEM_WORKQUEUE_PRIORITY+0x80006ca1>
80003224:	0087a783          	lw	a5,8(a5)
80003228:	08f71863          	bne	a4,a5,800032b8 <z_impl_k_mutex_unlock+0xb8>

	/*
	 * If we are the owner and count is greater than 1, then decrement
	 * the count and return and keep current thread as the owner.
	 */
	if (mutex->lock_count > 1U) {
8000322c:	00c52783          	lw	a5,12(a0)
80003230:	00100713          	li	a4,1
80003234:	02f77263          	bgeu	a4,a5,80003258 <z_impl_k_mutex_unlock+0x58>
		mutex->lock_count--;
80003238:	fff78793          	addi	a5,a5,-1
8000323c:	00f52623          	sw	a5,12(a0)


k_mutex_unlock_return:
	SYS_PORT_TRACING_OBJ_FUNC_EXIT(k_mutex, unlock, mutex, 0);

	return 0;
80003240:	00000513          	li	a0,0
}
80003244:	00c12083          	lw	ra,12(sp)
80003248:	00812403          	lw	s0,8(sp)
8000324c:	00412483          	lw	s1,4(sp)
80003250:	01010113          	addi	sp,sp,16
80003254:	00008067          	ret
	__asm__ volatile ("csrrc %0, mstatus, %1"
80003258:	300474f3          	csrrci	s1,mstatus,8
	adjust_owner_prio(mutex, mutex->owner_orig_prio);
8000325c:	01052583          	lw	a1,16(a0)
80003260:	de1ff0ef          	jal	ra,80003040 <adjust_owner_prio>
	new_owner = z_unpend_first_thread(&mutex->wait_q);
80003264:	00040513          	mv	a0,s0
80003268:	5f9000ef          	jal	ra,80004060 <z_unpend_first_thread>
	mutex->owner = new_owner;
8000326c:	00a42423          	sw	a0,8(s0)
	if (new_owner != NULL) {
80003270:	02050663          	beqz	a0,8000329c <z_impl_k_mutex_unlock+0x9c>
		mutex->owner_orig_prio = new_owner->base.prio;
80003274:	00e50783          	lb	a5,14(a0)
80003278:	00f42823          	sw	a5,16(s0)
 * z_swap() is in use it's a simple inline provided by the kernel.
 */
static ALWAYS_INLINE void
arch_thread_return_value_set(struct k_thread *thread, unsigned int value)
{
	thread->swap_retval = value;
8000327c:	06052c23          	sw	zero,120(a0)
		z_ready_thread(new_owner);
80003280:	01d000ef          	jal	ra,80003a9c <z_ready_thread>
		z_reschedule(&lock, key);
80003284:	00048593          	mv	a1,s1
80003288:	80007537          	lui	a0,0x80007
8000328c:	cc450513          	addi	a0,a0,-828 # 80006cc4 <CONFIG_SYSTEM_WORKQUEUE_PRIORITY+0x80006cc5>
80003290:	394000ef          	jal	ra,80003624 <z_reschedule>
	return 0;
80003294:	00000513          	li	a0,0
80003298:	fadff06f          	j	80003244 <z_impl_k_mutex_unlock+0x44>
		mutex->lock_count = 0U;
8000329c:	00042623          	sw	zero,12(s0)
	__asm__ volatile ("csrs mstatus, %0"
800032a0:	0084f493          	andi	s1,s1,8
800032a4:	3004a073          	csrs	mstatus,s1
	return 0;
800032a8:	00000513          	li	a0,0
800032ac:	f99ff06f          	j	80003244 <z_impl_k_mutex_unlock+0x44>
		return -EINVAL;
800032b0:	fea00513          	li	a0,-22
}
800032b4:	00008067          	ret
		return -EPERM;
800032b8:	fff00513          	li	a0,-1
800032bc:	f89ff06f          	j	80003244 <z_impl_k_mutex_unlock+0x44>

800032c0 <sliceable>:


static inline int is_preempt(struct k_thread *thread)
{
	/* explanation in kernel_struct.h */
	return thread->base.preempt <= _PREEMPT_THRESHOLD;
800032c0:	00e55703          	lhu	a4,14(a0)
static inline bool sliceable(struct k_thread *thread)
{
	bool ret = is_preempt(thread)
		&& !z_is_thread_prevented_from_running(thread)
		&& !z_is_prio_higher(thread->base.prio, slice_max_prio)
		&& !z_is_idle_thread_object(thread);
800032c4:	07f00793          	li	a5,127
800032c8:	02e7ea63          	bltu	a5,a4,800032fc <sliceable+0x3c>
	uint8_t state = thread->base.thread_state;
800032cc:	00d54783          	lbu	a5,13(a0)
		&& !z_is_thread_prevented_from_running(thread)
800032d0:	01f7f793          	andi	a5,a5,31
800032d4:	02079863          	bnez	a5,80003304 <sliceable+0x44>
		&& !z_is_prio_higher(thread->base.prio, slice_max_prio)
800032d8:	00e50703          	lb	a4,14(a0)
800032dc:	800077b7          	lui	a5,0x80007
800032e0:	b707a783          	lw	a5,-1168(a5) # 80006b70 <CONFIG_SYSTEM_WORKQUEUE_PRIORITY+0x80006b71>
800032e4:	02f74463          	blt	a4,a5,8000330c <sliceable+0x4c>
		&& !z_is_idle_thread_object(thread);
800032e8:	800077b7          	lui	a5,0x80007
800032ec:	b9078793          	addi	a5,a5,-1136 # 80006b90 <CONFIG_SYSTEM_WORKQUEUE_PRIORITY+0x80006b91>
800032f0:	02f50263          	beq	a0,a5,80003314 <sliceable+0x54>
800032f4:	00100513          	li	a0,1
800032f8:	00008067          	ret
800032fc:	00000513          	li	a0,0
80003300:	00008067          	ret
80003304:	00000513          	li	a0,0
80003308:	00008067          	ret
8000330c:	00000513          	li	a0,0
80003310:	00008067          	ret
80003314:	00000513          	li	a0,0
#ifdef CONFIG_TIMESLICE_PER_THREAD
	ret |= thread->base.slice_ticks != 0;
#endif

	return ret;
}
80003318:	00008067          	ret

8000331c <thread_active_elsewhere>:
			return true;
		}
	}
#endif
	return false;
}
8000331c:	00000513          	li	a0,0
80003320:	00008067          	ret

80003324 <pended_on_thread>:
static _wait_q_t *pended_on_thread(struct k_thread *thread)
{
	__ASSERT_NO_MSG(thread->base.pended_on);

	return thread->base.pended_on;
}
80003324:	00852503          	lw	a0,8(a0)
80003328:	00008067          	ret

8000332c <add_thread_timeout>:
		z_priq_wait_add(&wait_q->waitq, thread);
	}
}

static void add_thread_timeout(struct k_thread *thread, k_timeout_t timeout)
{
8000332c:	00060693          	mv	a3,a2
	if (!K_TIMEOUT_EQ(timeout, K_FOREVER)) {
80003330:	fff00793          	li	a5,-1
80003334:	00b79663          	bne	a5,a1,80003340 <add_thread_timeout+0x14>
80003338:	00f61463          	bne	a2,a5,80003340 <add_thread_timeout+0x14>
8000333c:	00008067          	ret
{
80003340:	ff010113          	addi	sp,sp,-16
80003344:	00112623          	sw	ra,12(sp)
80003348:	00058613          	mv	a2,a1
8000334c:	800045b7          	lui	a1,0x80004
80003350:	b4c58593          	addi	a1,a1,-1204 # 80003b4c <CONFIG_SYSTEM_WORKQUEUE_PRIORITY+0x80003b4d>
80003354:	01850513          	addi	a0,a0,24
80003358:	7dd000ef          	jal	ra,80004334 <z_add_timeout>
		z_add_thread_timeout(thread, timeout);
	}
}
8000335c:	00c12083          	lw	ra,12(sp)
80003360:	01010113          	addi	sp,sp,16
80003364:	00008067          	ret

80003368 <z_sched_prio_cmp>:
	int32_t b1 = thread_1->base.prio;
80003368:	00e50783          	lb	a5,14(a0)
	int32_t b2 = thread_2->base.prio;
8000336c:	00e58503          	lb	a0,14(a1)
	if (b1 != b2) {
80003370:	00a78663          	beq	a5,a0,8000337c <z_sched_prio_cmp+0x14>
		return b2 - b1;
80003374:	40f50533          	sub	a0,a0,a5
80003378:	00008067          	ret
	return 0;
8000337c:	00000513          	li	a0,0
}
80003380:	00008067          	ret

80003384 <z_reset_time_slice>:
{
80003384:	ff010113          	addi	sp,sp,-16
80003388:	00112623          	sw	ra,12(sp)
8000338c:	00812423          	sw	s0,8(sp)
	int ret = slice_ticks;
80003390:	800077b7          	lui	a5,0x80007
80003394:	b747a403          	lw	s0,-1164(a5) # 80006b74 <CONFIG_SYSTEM_WORKQUEUE_PRIORITY+0x80006b75>
	if (slice_time(curr) != 0) {
80003398:	00041a63          	bnez	s0,800033ac <z_reset_time_slice+0x28>
}
8000339c:	00c12083          	lw	ra,12(sp)
800033a0:	00812403          	lw	s0,8(sp)
800033a4:	01010113          	addi	sp,sp,16
800033a8:	00008067          	ret
		_current_cpu->slice_ticks = slice_time(curr) + sys_clock_elapsed();
800033ac:	cfcff0ef          	jal	ra,800028a8 <sys_clock_elapsed>
800033b0:	00a40433          	add	s0,s0,a0
800033b4:	800077b7          	lui	a5,0x80007
800033b8:	ca078793          	addi	a5,a5,-864 # 80006ca0 <CONFIG_SYSTEM_WORKQUEUE_PRIORITY+0x80006ca1>
800033bc:	0087a823          	sw	s0,16(a5)
		z_set_timeout_expiry(slice_time(curr), false);
800033c0:	00000593          	li	a1,0
800033c4:	800077b7          	lui	a5,0x80007
800033c8:	b747a503          	lw	a0,-1164(a5) # 80006b74 <CONFIG_SYSTEM_WORKQUEUE_PRIORITY+0x80006b75>
800033cc:	19c010ef          	jal	ra,80004568 <z_set_timeout_expiry>
}
800033d0:	fcdff06f          	j	8000339c <z_reset_time_slice+0x18>

800033d4 <k_sched_time_slice_set>:
{
800033d4:	ff010113          	addi	sp,sp,-16
800033d8:	00112623          	sw	ra,12(sp)
800033dc:	00812423          	sw	s0,8(sp)
800033e0:	00912223          	sw	s1,4(sp)
800033e4:	01212023          	sw	s2,0(sp)
800033e8:	00050413          	mv	s0,a0
800033ec:	00058493          	mv	s1,a1
	LOCKED(&sched_spinlock) {
800033f0:	00000793          	li	a5,0
	__asm__ volatile ("csrrc %0, mstatus, %1"
800033f4:	30047973          	csrrci	s2,mstatus,8
#endif

#ifdef CONFIG_SPIN_VALIDATE
	z_spin_lock_set_owner(l);
#endif
	return k;
800033f8:	0300006f          	j	80003428 <k_sched_time_slice_set+0x54>
			slice_ticks = MAX(2, slice_ticks);
800033fc:	800077b7          	lui	a5,0x80007
80003400:	b6a7aa23          	sw	a0,-1164(a5) # 80006b74 <CONFIG_SYSTEM_WORKQUEUE_PRIORITY+0x80006b75>
		slice_max_prio = prio;
80003404:	800077b7          	lui	a5,0x80007
80003408:	b697a823          	sw	s1,-1168(a5) # 80006b70 <CONFIG_SYSTEM_WORKQUEUE_PRIORITY+0x80006b71>
		z_reset_time_slice(_current);
8000340c:	800077b7          	lui	a5,0x80007
80003410:	ca078793          	addi	a5,a5,-864 # 80006ca0 <CONFIG_SYSTEM_WORKQUEUE_PRIORITY+0x80006ca1>
80003414:	0087a503          	lw	a0,8(a5)
80003418:	f6dff0ef          	jal	ra,80003384 <z_reset_time_slice>
			  : "r" (key & MSTATUS_IEN)
8000341c:	00897793          	andi	a5,s2,8
	__asm__ volatile ("csrs mstatus, %0"
80003420:	3007a073          	csrs	mstatus,a5
	LOCKED(&sched_spinlock) {
80003424:	00100793          	li	a5,1
80003428:	04079663          	bnez	a5,80003474 <k_sched_time_slice_set+0xa0>
		_current_cpu->slice_ticks = 0;
8000342c:	800077b7          	lui	a5,0x80007
80003430:	ca078793          	addi	a5,a5,-864 # 80006ca0 <CONFIG_SYSTEM_WORKQUEUE_PRIORITY+0x80006ca1>
80003434:	0007a823          	sw	zero,16(a5)
			return (uint32_t)((t * to_hz + off) / from_hz);
80003438:	01945593          	srli	a1,s0,0x19
8000343c:	00741793          	slli	a5,s0,0x7
80003440:	3e778513          	addi	a0,a5,999
80003444:	00f537b3          	sltu	a5,a0,a5
80003448:	3e800613          	li	a2,1000
8000344c:	00000693          	li	a3,0
80003450:	00b785b3          	add	a1,a5,a1
80003454:	d91fc0ef          	jal	ra,800001e4 <__udivdi3>
		slice_ticks = k_ms_to_ticks_ceil32(slice);
80003458:	800077b7          	lui	a5,0x80007
8000345c:	b6a7aa23          	sw	a0,-1164(a5) # 80006b74 <CONFIG_SYSTEM_WORKQUEUE_PRIORITY+0x80006b75>
		if (IS_ENABLED(CONFIG_TICKLESS_KERNEL) && slice > 0) {
80003460:	fa8052e3          	blez	s0,80003404 <k_sched_time_slice_set+0x30>
			slice_ticks = MAX(2, slice_ticks);
80003464:	00200793          	li	a5,2
80003468:	f8f55ae3          	bge	a0,a5,800033fc <k_sched_time_slice_set+0x28>
8000346c:	00200513          	li	a0,2
80003470:	f8dff06f          	j	800033fc <k_sched_time_slice_set+0x28>
}
80003474:	00c12083          	lw	ra,12(sp)
80003478:	00812403          	lw	s0,8(sp)
8000347c:	00412483          	lw	s1,4(sp)
80003480:	00012903          	lw	s2,0(sp)
80003484:	01010113          	addi	sp,sp,16
80003488:	00008067          	ret

8000348c <k_sched_lock>:
	}
}

void k_sched_lock(void)
{
	LOCKED(&sched_spinlock) {
8000348c:	00000793          	li	a5,0
	__asm__ volatile ("csrrc %0, mstatus, %1"
80003490:	300476f3          	csrrci	a3,mstatus,8
80003494:	0280006f          	j	800034bc <k_sched_lock+0x30>
static inline void z_sched_lock(void)
{
	__ASSERT(!arch_is_in_isr(), "");
	__ASSERT(_current->base.sched_locked != 1U, "");

	--_current->base.sched_locked;
80003498:	800077b7          	lui	a5,0x80007
8000349c:	ca078793          	addi	a5,a5,-864 # 80006ca0 <CONFIG_SYSTEM_WORKQUEUE_PRIORITY+0x80006ca1>
800034a0:	0087a703          	lw	a4,8(a5)
800034a4:	00f74783          	lbu	a5,15(a4)
800034a8:	fff78793          	addi	a5,a5,-1
800034ac:	00f707a3          	sb	a5,15(a4)
			  : "r" (key & MSTATUS_IEN)
800034b0:	0086f793          	andi	a5,a3,8
	__asm__ volatile ("csrs mstatus, %0"
800034b4:	3007a073          	csrs	mstatus,a5
800034b8:	00100793          	li	a5,1
800034bc:	fc078ee3          	beqz	a5,80003498 <k_sched_lock+0xc>
		SYS_PORT_TRACING_FUNC(k_thread, sched_lock);

		z_sched_lock();
	}
}
800034c0:	00008067          	ret

800034c4 <z_swap_next_thread>:
		 */
		signal_pending_ipi();
	}
	return ret;
#else
	return _kernel.ready_q.cache;
800034c4:	800077b7          	lui	a5,0x80007
#endif
}
800034c8:	ca078793          	addi	a5,a5,-864 # 80006ca0 <CONFIG_SYSTEM_WORKQUEUE_PRIORITY+0x80006ca1>
800034cc:	0187a503          	lw	a0,24(a5)
800034d0:	00008067          	ret

800034d4 <z_swap_irqlock>:
{
800034d4:	ff010113          	addi	sp,sp,-16
800034d8:	00112623          	sw	ra,12(sp)
800034dc:	00812423          	sw	s0,8(sp)
800034e0:	00912223          	sw	s1,4(sp)
800034e4:	01212023          	sw	s2,0(sp)
800034e8:	00050413          	mv	s0,a0
	old_thread = _current;
800034ec:	800077b7          	lui	a5,0x80007
800034f0:	ca078793          	addi	a5,a5,-864 # 80006ca0 <CONFIG_SYSTEM_WORKQUEUE_PRIORITY+0x80006ca1>
800034f4:	0087a903          	lw	s2,8(a5)
	old_thread->swap_retval = -EAGAIN;
800034f8:	ff500793          	li	a5,-11
800034fc:	06f92c23          	sw	a5,120(s2)
	__asm__ volatile ("csrrc %0, mstatus, %1"
80003500:	300477f3          	csrrci	a5,mstatus,8
	new_thread = z_swap_next_thread();
80003504:	fc1ff0ef          	jal	ra,800034c4 <z_swap_next_thread>
	if (new_thread != old_thread) {
80003508:	02a90263          	beq	s2,a0,8000352c <z_swap_irqlock+0x58>
8000350c:	00050493          	mv	s1,a0
		_current_cpu->current = new_thread;
80003510:	800077b7          	lui	a5,0x80007
80003514:	ca078793          	addi	a5,a5,-864 # 80006ca0 <CONFIG_SYSTEM_WORKQUEUE_PRIORITY+0x80006ca1>
80003518:	00a7a423          	sw	a0,8(a5)
		z_reset_time_slice(new_thread);
8000351c:	e69ff0ef          	jal	ra,80003384 <z_reset_time_slice>
80003520:	00090593          	mv	a1,s2
80003524:	07c4a503          	lw	a0,124(s1)
80003528:	885fe0ef          	jal	ra,80001dac <z_riscv_switch>
			  : "r" (key & MSTATUS_IEN)
8000352c:	00847413          	andi	s0,s0,8
	__asm__ volatile ("csrs mstatus, %0"
80003530:	30042073          	csrs	mstatus,s0
	return _current->swap_retval;
80003534:	800077b7          	lui	a5,0x80007
80003538:	ca078793          	addi	a5,a5,-864 # 80006ca0 <CONFIG_SYSTEM_WORKQUEUE_PRIORITY+0x80006ca1>
8000353c:	0087a783          	lw	a5,8(a5)
}
80003540:	0787a503          	lw	a0,120(a5)
80003544:	00c12083          	lw	ra,12(sp)
80003548:	00812403          	lw	s0,8(sp)
8000354c:	00412483          	lw	s1,4(sp)
80003550:	00012903          	lw	s2,0(sp)
80003554:	01010113          	addi	sp,sp,16
80003558:	00008067          	ret

8000355c <z_reschedule_irqlock>:
			  : "memory");
}

static ALWAYS_INLINE bool arch_irq_unlocked(unsigned int key)
{
	return (key & MSTATUS_IEN) != 0;
8000355c:	00857793          	andi	a5,a0,8
	return arch_irq_unlocked(key) && !arch_is_in_isr();
80003560:	02078463          	beqz	a5,80003588 <z_reschedule_irqlock+0x2c>
	bool ret = arch_curr_cpu()->nested != 0U;

	arch_irq_unlock(key);
	return ret;
#else
	return _kernel.cpus[0].nested != 0U;
80003564:	80007737          	lui	a4,0x80007
80003568:	ca072703          	lw	a4,-864(a4) # 80006ca0 <CONFIG_SYSTEM_WORKQUEUE_PRIORITY+0x80006ca1>
8000356c:	00071e63          	bnez	a4,80003588 <z_reschedule_irqlock+0x2c>
{
80003570:	ff010113          	addi	sp,sp,-16
80003574:	00112623          	sw	ra,12(sp)
		z_swap_irqlock(key);
80003578:	f5dff0ef          	jal	ra,800034d4 <z_swap_irqlock>
}
8000357c:	00c12083          	lw	ra,12(sp)
80003580:	01010113          	addi	sp,sp,16
80003584:	00008067          	ret
	__asm__ volatile ("csrs mstatus, %0"
80003588:	3007a073          	csrs	mstatus,a5
		signal_pending_ipi();
8000358c:	00008067          	ret

80003590 <z_swap>:
{
80003590:	ff010113          	addi	sp,sp,-16
80003594:	00112623          	sw	ra,12(sp)
80003598:	00812423          	sw	s0,8(sp)
8000359c:	00912223          	sw	s1,4(sp)
800035a0:	01212023          	sw	s2,0(sp)
800035a4:	00058413          	mv	s0,a1
	old_thread = _current;
800035a8:	800077b7          	lui	a5,0x80007
800035ac:	ca078793          	addi	a5,a5,-864 # 80006ca0 <CONFIG_SYSTEM_WORKQUEUE_PRIORITY+0x80006ca1>
800035b0:	0087a903          	lw	s2,8(a5)
	old_thread->swap_retval = -EAGAIN;
800035b4:	ff500793          	li	a5,-11
800035b8:	06f92c23          	sw	a5,120(s2)
	if (!is_spinlock || lock != &sched_spinlock) {
800035bc:	800077b7          	lui	a5,0x80007
800035c0:	cc478793          	addi	a5,a5,-828 # 80006cc4 <CONFIG_SYSTEM_WORKQUEUE_PRIORITY+0x80006cc5>
800035c4:	00a78463          	beq	a5,a0,800035cc <z_swap+0x3c>
	__asm__ volatile ("csrrc %0, mstatus, %1"
800035c8:	300477f3          	csrrci	a5,mstatus,8
	new_thread = z_swap_next_thread();
800035cc:	ef9ff0ef          	jal	ra,800034c4 <z_swap_next_thread>
800035d0:	00050493          	mv	s1,a0
	if (new_thread != old_thread) {
800035d4:	02a90063          	beq	s2,a0,800035f4 <z_swap+0x64>
		_current_cpu->current = new_thread;
800035d8:	800077b7          	lui	a5,0x80007
800035dc:	ca078793          	addi	a5,a5,-864 # 80006ca0 <CONFIG_SYSTEM_WORKQUEUE_PRIORITY+0x80006ca1>
800035e0:	00a7a423          	sw	a0,8(a5)
		z_reset_time_slice(new_thread);
800035e4:	da1ff0ef          	jal	ra,80003384 <z_reset_time_slice>
	z_riscv_switch(new, old);
800035e8:	00090593          	mv	a1,s2
800035ec:	07c4a503          	lw	a0,124(s1)
800035f0:	fbcfe0ef          	jal	ra,80001dac <z_riscv_switch>
			  : "r" (key & MSTATUS_IEN)
800035f4:	00847413          	andi	s0,s0,8
	__asm__ volatile ("csrs mstatus, %0"
800035f8:	30042073          	csrs	mstatus,s0
	return _current->swap_retval;
800035fc:	800077b7          	lui	a5,0x80007
80003600:	ca078793          	addi	a5,a5,-864 # 80006ca0 <CONFIG_SYSTEM_WORKQUEUE_PRIORITY+0x80006ca1>
80003604:	0087a783          	lw	a5,8(a5)
}
80003608:	0787a503          	lw	a0,120(a5)
8000360c:	00c12083          	lw	ra,12(sp)
80003610:	00812403          	lw	s0,8(sp)
80003614:	00412483          	lw	s1,4(sp)
80003618:	00012903          	lw	s2,0(sp)
8000361c:	01010113          	addi	sp,sp,16
80003620:	00008067          	ret

80003624 <z_reschedule>:
	return (key & MSTATUS_IEN) != 0;
80003624:	0085f793          	andi	a5,a1,8
	return arch_irq_unlocked(key) && !arch_is_in_isr();
80003628:	02078e63          	beqz	a5,80003664 <z_reschedule+0x40>
	return _kernel.cpus[0].nested != 0U;
8000362c:	80007737          	lui	a4,0x80007
80003630:	ca072703          	lw	a4,-864(a4) # 80006ca0 <CONFIG_SYSTEM_WORKQUEUE_PRIORITY+0x80006ca1>
80003634:	02071863          	bnez	a4,80003664 <z_reschedule+0x40>
	new_thread = _kernel.ready_q.cache;
80003638:	80007737          	lui	a4,0x80007
8000363c:	ca070713          	addi	a4,a4,-864 # 80006ca0 <CONFIG_SYSTEM_WORKQUEUE_PRIORITY+0x80006ca1>
80003640:	01872683          	lw	a3,24(a4)
	return new_thread != _current;
80003644:	00872703          	lw	a4,8(a4)
	if (resched(key.key) && need_swap()) {
80003648:	00e68e63          	beq	a3,a4,80003664 <z_reschedule+0x40>
{
8000364c:	ff010113          	addi	sp,sp,-16
80003650:	00112623          	sw	ra,12(sp)
		z_swap(lock, key);
80003654:	f3dff0ef          	jal	ra,80003590 <z_swap>
}
80003658:	00c12083          	lw	ra,12(sp)
8000365c:	01010113          	addi	sp,sp,16
80003660:	00008067          	ret
	__asm__ volatile ("csrs mstatus, %0"
80003664:	3007a073          	csrs	mstatus,a5
		signal_pending_ipi();
80003668:	00008067          	ret

8000366c <z_get_next_switch_handle>:
		}
	}
	signal_pending_ipi();
	return ret;
#else
	z_sched_usage_switch(_kernel.ready_q.cache);
8000366c:	800077b7          	lui	a5,0x80007
80003670:	ca078793          	addi	a5,a5,-864 # 80006ca0 <CONFIG_SYSTEM_WORKQUEUE_PRIORITY+0x80006ca1>
80003674:	0187a703          	lw	a4,24(a5)
	_current->switch_handle = interrupted;
80003678:	0087a683          	lw	a3,8(a5)
8000367c:	06a6ae23          	sw	a0,124(a3)
	_current_cpu->current = new_thread;
80003680:	00e7a423          	sw	a4,8(a5)
	set_current(_kernel.ready_q.cache);
	return _current->switch_handle;
#endif
}
80003684:	07c72503          	lw	a0,124(a4)
80003688:	00008067          	ret

8000368c <z_priq_dumb_remove>:
 * @param node the node to remove
 */

static inline void sys_dlist_remove(sys_dnode_t *node)
{
	sys_dnode_t *const prev = node->prev;
8000368c:	0045a703          	lw	a4,4(a1)
	sys_dnode_t *const next = node->next;
80003690:	0005a783          	lw	a5,0(a1)

	prev->next = next;
80003694:	00f72023          	sw	a5,0(a4)
	next->prev = prev;
80003698:	00e7a223          	sw	a4,4(a5)
	node->next = NULL;
8000369c:	0005a023          	sw	zero,0(a1)
	node->prev = NULL;
800036a0:	0005a223          	sw	zero,4(a1)
void z_priq_dumb_remove(sys_dlist_t *pq, struct k_thread *thread)
{
	__ASSERT_NO_MSG(!z_is_idle_thread_object(thread));

	sys_dlist_remove(&thread->base.qnode_dlist);
}
800036a4:	00008067          	ret

800036a8 <unpend_thread_no_timeout>:
{
800036a8:	ff010113          	addi	sp,sp,-16
800036ac:	00112623          	sw	ra,12(sp)
800036b0:	00812423          	sw	s0,8(sp)
800036b4:	00050413          	mv	s0,a0
	_priq_wait_remove(&pended_on_thread(thread)->waitq, thread);
800036b8:	c6dff0ef          	jal	ra,80003324 <pended_on_thread>
800036bc:	00040593          	mv	a1,s0
800036c0:	fcdff0ef          	jal	ra,8000368c <z_priq_dumb_remove>
	thread->base.thread_state &= ~_THREAD_PENDING;
800036c4:	00d44783          	lbu	a5,13(s0)
800036c8:	ffd7f793          	andi	a5,a5,-3
800036cc:	00f406a3          	sb	a5,13(s0)
	thread->base.pended_on = NULL;
800036d0:	00042423          	sw	zero,8(s0)
}
800036d4:	00c12083          	lw	ra,12(sp)
800036d8:	00812403          	lw	s0,8(sp)
800036dc:	01010113          	addi	sp,sp,16
800036e0:	00008067          	ret

800036e4 <z_priq_dumb_best>:

struct k_thread *z_priq_dumb_best(sys_dlist_t *pq)
{
800036e4:	00050793          	mv	a5,a0
	return list->head == list;
800036e8:	00052503          	lw	a0,0(a0)
	return sys_dlist_is_empty(list) ? NULL : list->head;
800036ec:	00a78463          	beq	a5,a0,800036f4 <z_priq_dumb_best+0x10>

	if (n != NULL) {
		thread = CONTAINER_OF(n, struct k_thread, base.qnode_dlist);
	}
	return thread;
}
800036f0:	00008067          	ret
	struct k_thread *thread = NULL;
800036f4:	00000513          	li	a0,0
	return thread;
800036f8:	ff9ff06f          	j	800036f0 <z_priq_dumb_best+0xc>

800036fc <update_cache>:
{
800036fc:	ff010113          	addi	sp,sp,-16
80003700:	00112623          	sw	ra,12(sp)
80003704:	00812423          	sw	s0,8(sp)
80003708:	00912223          	sw	s1,4(sp)
8000370c:	00050493          	mv	s1,a0
	return _priq_run_best(curr_cpu_runq());
80003710:	80007537          	lui	a0,0x80007
80003714:	cbc50513          	addi	a0,a0,-836 # 80006cbc <CONFIG_SYSTEM_WORKQUEUE_PRIORITY+0x80006cbd>
80003718:	fcdff0ef          	jal	ra,800036e4 <z_priq_dumb_best>
8000371c:	00050413          	mv	s0,a0
	return (thread != NULL) ? thread : _current_cpu->idle_thread;
80003720:	02050e63          	beqz	a0,8000375c <update_cache+0x60>
	if (preempt_ok != 0) {
80003724:	04049463          	bnez	s1,8000376c <update_cache+0x70>
	if (z_is_thread_prevented_from_running(_current)) {
80003728:	800077b7          	lui	a5,0x80007
8000372c:	ca078793          	addi	a5,a5,-864 # 80006ca0 <CONFIG_SYSTEM_WORKQUEUE_PRIORITY+0x80006ca1>
80003730:	0087a703          	lw	a4,8(a5)
	uint8_t state = thread->base.thread_state;
80003734:	00d74783          	lbu	a5,13(a4)
80003738:	01f7f793          	andi	a5,a5,31
8000373c:	02079863          	bnez	a5,8000376c <update_cache+0x70>
	return thread->base.preempt <= _PREEMPT_THRESHOLD;
80003740:	00e75683          	lhu	a3,14(a4)
	if (is_preempt(_current) || is_metairq(thread)) {
80003744:	07f00793          	li	a5,127
80003748:	02d7f263          	bgeu	a5,a3,8000376c <update_cache+0x70>
		_kernel.ready_q.cache = _current;
8000374c:	800077b7          	lui	a5,0x80007
80003750:	ca078793          	addi	a5,a5,-864 # 80006ca0 <CONFIG_SYSTEM_WORKQUEUE_PRIORITY+0x80006ca1>
80003754:	00e7ac23          	sw	a4,24(a5)
80003758:	0380006f          	j	80003790 <update_cache+0x94>
	return (thread != NULL) ? thread : _current_cpu->idle_thread;
8000375c:	800077b7          	lui	a5,0x80007
80003760:	ca078793          	addi	a5,a5,-864 # 80006ca0 <CONFIG_SYSTEM_WORKQUEUE_PRIORITY+0x80006ca1>
80003764:	00c7a403          	lw	s0,12(a5)
80003768:	fbdff06f          	j	80003724 <update_cache+0x28>
		if (thread != _current) {
8000376c:	800077b7          	lui	a5,0x80007
80003770:	ca078793          	addi	a5,a5,-864 # 80006ca0 <CONFIG_SYSTEM_WORKQUEUE_PRIORITY+0x80006ca1>
80003774:	0087a783          	lw	a5,8(a5)
80003778:	00878663          	beq	a5,s0,80003784 <update_cache+0x88>
			z_reset_time_slice(thread);
8000377c:	00040513          	mv	a0,s0
80003780:	c05ff0ef          	jal	ra,80003384 <z_reset_time_slice>
		_kernel.ready_q.cache = thread;
80003784:	800077b7          	lui	a5,0x80007
80003788:	ca078793          	addi	a5,a5,-864 # 80006ca0 <CONFIG_SYSTEM_WORKQUEUE_PRIORITY+0x80006ca1>
8000378c:	0087ac23          	sw	s0,24(a5)
}
80003790:	00c12083          	lw	ra,12(sp)
80003794:	00812403          	lw	s0,8(sp)
80003798:	00412483          	lw	s1,4(sp)
8000379c:	01010113          	addi	sp,sp,16
800037a0:	00008067          	ret

800037a4 <move_thread_to_end_of_prio_q>:
{
800037a4:	ff010113          	addi	sp,sp,-16
800037a8:	00112623          	sw	ra,12(sp)
800037ac:	00812423          	sw	s0,8(sp)
800037b0:	00912223          	sw	s1,4(sp)
800037b4:	00050493          	mv	s1,a0
	return (thread->base.thread_state & state) != 0U;
800037b8:	00d54783          	lbu	a5,13(a0)
	if (z_is_thread_queued(thread)) {
800037bc:	01879713          	slli	a4,a5,0x18
800037c0:	41875713          	srai	a4,a4,0x18
800037c4:	02074863          	bltz	a4,800037f4 <move_thread_to_end_of_prio_q+0x50>
	thread->base.thread_state |= _THREAD_QUEUED;
800037c8:	00d4c783          	lbu	a5,13(s1)
800037cc:	f807e793          	ori	a5,a5,-128
800037d0:	00f486a3          	sb	a5,13(s1)
	return list->head == list;
800037d4:	800077b7          	lui	a5,0x80007
800037d8:	ca078793          	addi	a5,a5,-864 # 80006ca0 <CONFIG_SYSTEM_WORKQUEUE_PRIORITY+0x80006ca1>
800037dc:	01c7a403          	lw	s0,28(a5)
	return sys_dlist_is_empty(list) ? NULL : list->head;
800037e0:	800077b7          	lui	a5,0x80007
800037e4:	cbc78793          	addi	a5,a5,-836 # 80006cbc <CONFIG_SYSTEM_WORKQUEUE_PRIORITY+0x80006cbd>
800037e8:	04f41263          	bne	s0,a5,8000382c <move_thread_to_end_of_prio_q+0x88>
	SYS_DLIST_FOR_EACH_CONTAINER(pq, t, base.qnode_dlist) {
800037ec:	00000413          	li	s0,0
800037f0:	03c0006f          	j	8000382c <move_thread_to_end_of_prio_q+0x88>
	thread->base.thread_state &= ~_THREAD_QUEUED;
800037f4:	07f7f793          	andi	a5,a5,127
800037f8:	00f506a3          	sb	a5,13(a0)
	_priq_run_remove(thread_runq(thread), thread);
800037fc:	00050593          	mv	a1,a0
80003800:	80007537          	lui	a0,0x80007
80003804:	cbc50513          	addi	a0,a0,-836 # 80006cbc <CONFIG_SYSTEM_WORKQUEUE_PRIORITY+0x80006cbd>
80003808:	e85ff0ef          	jal	ra,8000368c <z_priq_dumb_remove>
}
8000380c:	fbdff06f          	j	800037c8 <move_thread_to_end_of_prio_q+0x24>
	sys_dnode_t *const prev = successor->prev;
80003810:	00442783          	lw	a5,4(s0)
	node->prev = prev;
80003814:	00f4a223          	sw	a5,4(s1)
	node->next = successor;
80003818:	0084a023          	sw	s0,0(s1)
	prev->next = node;
8000381c:	0097a023          	sw	s1,0(a5)
	successor->prev = node;
80003820:	00942223          	sw	s1,4(s0)
}
80003824:	05c0006f          	j	80003880 <move_thread_to_end_of_prio_q+0xdc>
	SYS_DLIST_FOR_EACH_CONTAINER(pq, t, base.qnode_dlist) {
80003828:	00000413          	li	s0,0
8000382c:	02040863          	beqz	s0,8000385c <move_thread_to_end_of_prio_q+0xb8>
		if (z_sched_prio_cmp(thread, t) > 0) {
80003830:	00040593          	mv	a1,s0
80003834:	00048513          	mv	a0,s1
80003838:	b31ff0ef          	jal	ra,80003368 <z_sched_prio_cmp>
8000383c:	fca04ae3          	bgtz	a0,80003810 <move_thread_to_end_of_prio_q+0x6c>
	return (node != NULL) ? sys_dlist_peek_next_no_check(list, node) : NULL;
80003840:	fe0406e3          	beqz	s0,8000382c <move_thread_to_end_of_prio_q+0x88>
	return (node == list->tail) ? NULL : node->next;
80003844:	800077b7          	lui	a5,0x80007
80003848:	ca078793          	addi	a5,a5,-864 # 80006ca0 <CONFIG_SYSTEM_WORKQUEUE_PRIORITY+0x80006ca1>
8000384c:	0207a783          	lw	a5,32(a5)
80003850:	fcf40ce3          	beq	s0,a5,80003828 <move_thread_to_end_of_prio_q+0x84>
80003854:	00042403          	lw	s0,0(s0)
80003858:	fd5ff06f          	j	8000382c <move_thread_to_end_of_prio_q+0x88>
	sys_dnode_t *const tail = list->tail;
8000385c:	800077b7          	lui	a5,0x80007
80003860:	ca078793          	addi	a5,a5,-864 # 80006ca0 <CONFIG_SYSTEM_WORKQUEUE_PRIORITY+0x80006ca1>
80003864:	0207a683          	lw	a3,32(a5)
	node->next = list;
80003868:	80007737          	lui	a4,0x80007
8000386c:	cbc70713          	addi	a4,a4,-836 # 80006cbc <CONFIG_SYSTEM_WORKQUEUE_PRIORITY+0x80006cbd>
80003870:	00e4a023          	sw	a4,0(s1)
	node->prev = tail;
80003874:	00d4a223          	sw	a3,4(s1)
	tail->next = node;
80003878:	0096a023          	sw	s1,0(a3)
	list->tail = node;
8000387c:	0297a023          	sw	s1,32(a5)
	update_cache(thread == _current);
80003880:	800077b7          	lui	a5,0x80007
80003884:	ca078793          	addi	a5,a5,-864 # 80006ca0 <CONFIG_SYSTEM_WORKQUEUE_PRIORITY+0x80006ca1>
80003888:	0087a503          	lw	a0,8(a5)
8000388c:	40950533          	sub	a0,a0,s1
80003890:	00153513          	seqz	a0,a0
80003894:	e69ff0ef          	jal	ra,800036fc <update_cache>
}
80003898:	00c12083          	lw	ra,12(sp)
8000389c:	00812403          	lw	s0,8(sp)
800038a0:	00412483          	lw	s1,4(sp)
800038a4:	01010113          	addi	sp,sp,16
800038a8:	00008067          	ret

800038ac <slice_expired_locked>:
{
800038ac:	ff010113          	addi	sp,sp,-16
800038b0:	00112623          	sw	ra,12(sp)
800038b4:	00812423          	sw	s0,8(sp)
800038b8:	00912223          	sw	s1,4(sp)
800038bc:	00050413          	mv	s0,a0
	struct k_thread *curr = _current;
800038c0:	800077b7          	lui	a5,0x80007
800038c4:	ca078793          	addi	a5,a5,-864 # 80006ca0 <CONFIG_SYSTEM_WORKQUEUE_PRIORITY+0x80006ca1>
800038c8:	0087a483          	lw	s1,8(a5)
	uint8_t state = thread->base.thread_state;
800038cc:	00d4c783          	lbu	a5,13(s1)
	if (!z_is_thread_prevented_from_running(curr)) {
800038d0:	01f7f793          	andi	a5,a5,31
800038d4:	02078263          	beqz	a5,800038f8 <slice_expired_locked+0x4c>
	z_reset_time_slice(curr);
800038d8:	00048513          	mv	a0,s1
800038dc:	aa9ff0ef          	jal	ra,80003384 <z_reset_time_slice>
}
800038e0:	00040513          	mv	a0,s0
800038e4:	00c12083          	lw	ra,12(sp)
800038e8:	00812403          	lw	s0,8(sp)
800038ec:	00412483          	lw	s1,4(sp)
800038f0:	01010113          	addi	sp,sp,16
800038f4:	00008067          	ret
		move_thread_to_end_of_prio_q(curr);
800038f8:	00048513          	mv	a0,s1
800038fc:	ea9ff0ef          	jal	ra,800037a4 <move_thread_to_end_of_prio_q>
80003900:	fd9ff06f          	j	800038d8 <slice_expired_locked+0x2c>

80003904 <z_time_slice>:
{
80003904:	ff010113          	addi	sp,sp,-16
80003908:	00112623          	sw	ra,12(sp)
8000390c:	00812423          	sw	s0,8(sp)
80003910:	00912223          	sw	s1,4(sp)
80003914:	01212023          	sw	s2,0(sp)
80003918:	00050913          	mv	s2,a0
	__asm__ volatile ("csrrc %0, mstatus, %1"
8000391c:	300474f3          	csrrci	s1,mstatus,8
80003920:	00048413          	mv	s0,s1
	if (slice_time(_current) && sliceable(_current)) {
80003924:	800077b7          	lui	a5,0x80007
80003928:	ca078793          	addi	a5,a5,-864 # 80006ca0 <CONFIG_SYSTEM_WORKQUEUE_PRIORITY+0x80006ca1>
8000392c:	0087a503          	lw	a0,8(a5)
	int ret = slice_ticks;
80003930:	800077b7          	lui	a5,0x80007
80003934:	b747a783          	lw	a5,-1164(a5) # 80006b74 <CONFIG_SYSTEM_WORKQUEUE_PRIORITY+0x80006b75>
	if (slice_time(_current) && sliceable(_current)) {
80003938:	04078063          	beqz	a5,80003978 <z_time_slice+0x74>
8000393c:	985ff0ef          	jal	ra,800032c0 <sliceable>
80003940:	02050c63          	beqz	a0,80003978 <z_time_slice+0x74>
		if (ticks >= _current_cpu->slice_ticks) {
80003944:	800077b7          	lui	a5,0x80007
80003948:	ca078793          	addi	a5,a5,-864 # 80006ca0 <CONFIG_SYSTEM_WORKQUEUE_PRIORITY+0x80006ca1>
8000394c:	0107a783          	lw	a5,16(a5)
80003950:	00f95c63          	bge	s2,a5,80003968 <z_time_slice+0x64>
			_current_cpu->slice_ticks -= ticks;
80003954:	80007737          	lui	a4,0x80007
80003958:	412787b3          	sub	a5,a5,s2
8000395c:	ca070713          	addi	a4,a4,-864 # 80006ca0 <CONFIG_SYSTEM_WORKQUEUE_PRIORITY+0x80006ca1>
80003960:	00f72823          	sw	a5,16(a4)
80003964:	0200006f          	j	80003984 <z_time_slice+0x80>
			key = slice_expired_locked(key);
80003968:	00048513          	mv	a0,s1
8000396c:	f41ff0ef          	jal	ra,800038ac <slice_expired_locked>
80003970:	00050413          	mv	s0,a0
80003974:	0100006f          	j	80003984 <z_time_slice+0x80>
		_current_cpu->slice_ticks = 0;
80003978:	800077b7          	lui	a5,0x80007
8000397c:	ca078793          	addi	a5,a5,-864 # 80006ca0 <CONFIG_SYSTEM_WORKQUEUE_PRIORITY+0x80006ca1>
80003980:	0007a823          	sw	zero,16(a5)
			  : "r" (key & MSTATUS_IEN)
80003984:	00847413          	andi	s0,s0,8
	__asm__ volatile ("csrs mstatus, %0"
80003988:	30042073          	csrs	mstatus,s0
}
8000398c:	00c12083          	lw	ra,12(sp)
80003990:	00812403          	lw	s0,8(sp)
80003994:	00412483          	lw	s1,4(sp)
80003998:	00012903          	lw	s2,0(sp)
8000399c:	01010113          	addi	sp,sp,16
800039a0:	00008067          	ret

800039a4 <ready_thread>:
	return (thread->base.thread_state & state) != 0U;
800039a4:	00d54783          	lbu	a5,13(a0)
	if (!z_is_thread_queued(thread) && z_is_thread_ready(thread)) {
800039a8:	01879713          	slli	a4,a5,0x18
800039ac:	41875713          	srai	a4,a4,0x18
800039b0:	0e074463          	bltz	a4,80003a98 <ready_thread+0xf4>
{
800039b4:	ff010113          	addi	sp,sp,-16
800039b8:	00112623          	sw	ra,12(sp)
800039bc:	00812423          	sw	s0,8(sp)
800039c0:	00912223          	sw	s1,4(sp)
800039c4:	01212023          	sw	s2,0(sp)
800039c8:	00050413          	mv	s0,a0
	return !((z_is_thread_prevented_from_running(thread)) != 0U ||
800039cc:	01f7f713          	andi	a4,a5,31
800039d0:	00071663          	bnez	a4,800039dc <ready_thread+0x38>
	return node->next != NULL;
800039d4:	01852903          	lw	s2,24(a0)
800039d8:	00090e63          	beqz	s2,800039f4 <ready_thread+0x50>
}
800039dc:	00c12083          	lw	ra,12(sp)
800039e0:	00812403          	lw	s0,8(sp)
800039e4:	00412483          	lw	s1,4(sp)
800039e8:	00012903          	lw	s2,0(sp)
800039ec:	01010113          	addi	sp,sp,16
800039f0:	00008067          	ret
	thread->base.thread_state |= _THREAD_QUEUED;
800039f4:	f807e793          	ori	a5,a5,-128
800039f8:	00f506a3          	sb	a5,13(a0)
	return list->head == list;
800039fc:	800077b7          	lui	a5,0x80007
80003a00:	ca078793          	addi	a5,a5,-864 # 80006ca0 <CONFIG_SYSTEM_WORKQUEUE_PRIORITY+0x80006ca1>
80003a04:	01c7a483          	lw	s1,28(a5)
	return sys_dlist_is_empty(list) ? NULL : list->head;
80003a08:	800077b7          	lui	a5,0x80007
80003a0c:	cbc78793          	addi	a5,a5,-836 # 80006cbc <CONFIG_SYSTEM_WORKQUEUE_PRIORITY+0x80006cbd>
80003a10:	02f49463          	bne	s1,a5,80003a38 <ready_thread+0x94>
	SYS_DLIST_FOR_EACH_CONTAINER(pq, t, base.qnode_dlist) {
80003a14:	00090493          	mv	s1,s2
80003a18:	0200006f          	j	80003a38 <ready_thread+0x94>
	sys_dnode_t *const prev = successor->prev;
80003a1c:	0044a783          	lw	a5,4(s1)
	node->prev = prev;
80003a20:	00f42223          	sw	a5,4(s0)
	node->next = successor;
80003a24:	00942023          	sw	s1,0(s0)
	prev->next = node;
80003a28:	0087a023          	sw	s0,0(a5)
	successor->prev = node;
80003a2c:	0084a223          	sw	s0,4(s1)
}
80003a30:	05c0006f          	j	80003a8c <ready_thread+0xe8>
80003a34:	00090493          	mv	s1,s2
80003a38:	02048863          	beqz	s1,80003a68 <ready_thread+0xc4>
		if (z_sched_prio_cmp(thread, t) > 0) {
80003a3c:	00048593          	mv	a1,s1
80003a40:	00040513          	mv	a0,s0
80003a44:	925ff0ef          	jal	ra,80003368 <z_sched_prio_cmp>
80003a48:	fca04ae3          	bgtz	a0,80003a1c <ready_thread+0x78>
	return (node != NULL) ? sys_dlist_peek_next_no_check(list, node) : NULL;
80003a4c:	fe0486e3          	beqz	s1,80003a38 <ready_thread+0x94>
	return (node == list->tail) ? NULL : node->next;
80003a50:	800077b7          	lui	a5,0x80007
80003a54:	ca078793          	addi	a5,a5,-864 # 80006ca0 <CONFIG_SYSTEM_WORKQUEUE_PRIORITY+0x80006ca1>
80003a58:	0207a783          	lw	a5,32(a5)
80003a5c:	fcf48ce3          	beq	s1,a5,80003a34 <ready_thread+0x90>
80003a60:	0004a483          	lw	s1,0(s1)
80003a64:	fd5ff06f          	j	80003a38 <ready_thread+0x94>
	sys_dnode_t *const tail = list->tail;
80003a68:	800077b7          	lui	a5,0x80007
80003a6c:	ca078793          	addi	a5,a5,-864 # 80006ca0 <CONFIG_SYSTEM_WORKQUEUE_PRIORITY+0x80006ca1>
80003a70:	0207a683          	lw	a3,32(a5)
	node->next = list;
80003a74:	80007737          	lui	a4,0x80007
80003a78:	cbc70713          	addi	a4,a4,-836 # 80006cbc <CONFIG_SYSTEM_WORKQUEUE_PRIORITY+0x80006cbd>
80003a7c:	00e42023          	sw	a4,0(s0)
	node->prev = tail;
80003a80:	00d42223          	sw	a3,4(s0)
	tail->next = node;
80003a84:	0086a023          	sw	s0,0(a3)
	list->tail = node;
80003a88:	0287a023          	sw	s0,32(a5)
		update_cache(0);
80003a8c:	00000513          	li	a0,0
80003a90:	c6dff0ef          	jal	ra,800036fc <update_cache>
}
80003a94:	f49ff06f          	j	800039dc <ready_thread+0x38>
80003a98:	00008067          	ret

80003a9c <z_ready_thread>:
{
80003a9c:	ff010113          	addi	sp,sp,-16
80003aa0:	00112623          	sw	ra,12(sp)
80003aa4:	00812423          	sw	s0,8(sp)
80003aa8:	00912223          	sw	s1,4(sp)
80003aac:	00050413          	mv	s0,a0
	LOCKED(&sched_spinlock) {
80003ab0:	00000793          	li	a5,0
	__asm__ volatile ("csrrc %0, mstatus, %1"
80003ab4:	300474f3          	csrrci	s1,mstatus,8
80003ab8:	0100006f          	j	80003ac8 <z_ready_thread+0x2c>
			  : "r" (key & MSTATUS_IEN)
80003abc:	0084f793          	andi	a5,s1,8
	__asm__ volatile ("csrs mstatus, %0"
80003ac0:	3007a073          	csrs	mstatus,a5
80003ac4:	00100793          	li	a5,1
80003ac8:	00079e63          	bnez	a5,80003ae4 <z_ready_thread+0x48>
		if (!thread_active_elsewhere(thread)) {
80003acc:	00040513          	mv	a0,s0
80003ad0:	84dff0ef          	jal	ra,8000331c <thread_active_elsewhere>
80003ad4:	fe0514e3          	bnez	a0,80003abc <z_ready_thread+0x20>
			ready_thread(thread);
80003ad8:	00040513          	mv	a0,s0
80003adc:	ec9ff0ef          	jal	ra,800039a4 <ready_thread>
80003ae0:	fddff06f          	j	80003abc <z_ready_thread+0x20>
}
80003ae4:	00c12083          	lw	ra,12(sp)
80003ae8:	00812403          	lw	s0,8(sp)
80003aec:	00412483          	lw	s1,4(sp)
80003af0:	01010113          	addi	sp,sp,16
80003af4:	00008067          	ret

80003af8 <z_sched_start>:
{
80003af8:	ff010113          	addi	sp,sp,-16
80003afc:	00112623          	sw	ra,12(sp)
80003b00:	00812423          	sw	s0,8(sp)
	__asm__ volatile ("csrrc %0, mstatus, %1"
80003b04:	30047473          	csrrci	s0,mstatus,8
	return (thread->base.thread_state & _THREAD_PRESTART) == 0U;
80003b08:	00d54783          	lbu	a5,13(a0)
	if (z_has_thread_started(thread)) {
80003b0c:	0047f713          	andi	a4,a5,4
80003b10:	00071e63          	bnez	a4,80003b2c <z_sched_start+0x34>
	__asm__ volatile ("csrs mstatus, %0"
80003b14:	00847413          	andi	s0,s0,8
80003b18:	30042073          	csrs	mstatus,s0
}
80003b1c:	00c12083          	lw	ra,12(sp)
80003b20:	00812403          	lw	s0,8(sp)
80003b24:	01010113          	addi	sp,sp,16
80003b28:	00008067          	ret
	thread->base.thread_state &= ~_THREAD_PRESTART;
80003b2c:	ffb7f793          	andi	a5,a5,-5
80003b30:	00f506a3          	sb	a5,13(a0)
	ready_thread(thread);
80003b34:	e71ff0ef          	jal	ra,800039a4 <ready_thread>
	z_reschedule(&sched_spinlock, key);
80003b38:	00040593          	mv	a1,s0
80003b3c:	80007537          	lui	a0,0x80007
80003b40:	cc450513          	addi	a0,a0,-828 # 80006cc4 <CONFIG_SYSTEM_WORKQUEUE_PRIORITY+0x80006cc5>
80003b44:	ae1ff0ef          	jal	ra,80003624 <z_reschedule>
80003b48:	fd5ff06f          	j	80003b1c <z_sched_start+0x24>

80003b4c <z_thread_timeout>:
{
80003b4c:	ff010113          	addi	sp,sp,-16
80003b50:	00112623          	sw	ra,12(sp)
80003b54:	00812423          	sw	s0,8(sp)
80003b58:	00912223          	sw	s1,4(sp)
80003b5c:	01212023          	sw	s2,0(sp)
80003b60:	00050413          	mv	s0,a0
	struct k_thread *thread = CONTAINER_OF(timeout,
80003b64:	fe850913          	addi	s2,a0,-24
	LOCKED(&sched_spinlock) {
80003b68:	00000793          	li	a5,0
	__asm__ volatile ("csrrc %0, mstatus, %1"
80003b6c:	300474f3          	csrrci	s1,mstatus,8
80003b70:	02c0006f          	j	80003b9c <z_thread_timeout+0x50>
80003b74:	ff544783          	lbu	a5,-11(s0)
80003b78:	ffb7f713          	andi	a4,a5,-5
80003b7c:	fee40aa3          	sb	a4,-11(s0)
	thread->base.thread_state &= ~_THREAD_SUSPENDED;
80003b80:	feb7f793          	andi	a5,a5,-21
80003b84:	fef40aa3          	sb	a5,-11(s0)
			ready_thread(thread);
80003b88:	00090513          	mv	a0,s2
80003b8c:	e19ff0ef          	jal	ra,800039a4 <ready_thread>
			  : "r" (key & MSTATUS_IEN)
80003b90:	0084f793          	andi	a5,s1,8
	__asm__ volatile ("csrs mstatus, %0"
80003b94:	3007a073          	csrs	mstatus,a5
	LOCKED(&sched_spinlock) {
80003b98:	00100793          	li	a5,1
80003b9c:	02079263          	bnez	a5,80003bc0 <z_thread_timeout+0x74>
		bool killed = ((thread->base.thread_state & _THREAD_DEAD) ||
80003ba0:	ff544783          	lbu	a5,-11(s0)
		if (!killed) {
80003ba4:	0287f793          	andi	a5,a5,40
80003ba8:	fe0794e3          	bnez	a5,80003b90 <z_thread_timeout+0x44>
			if (thread->base.pended_on != NULL) {
80003bac:	ff042783          	lw	a5,-16(s0)
80003bb0:	fc0782e3          	beqz	a5,80003b74 <z_thread_timeout+0x28>
				unpend_thread_no_timeout(thread);
80003bb4:	00090513          	mv	a0,s2
80003bb8:	af1ff0ef          	jal	ra,800036a8 <unpend_thread_no_timeout>
80003bbc:	fb9ff06f          	j	80003b74 <z_thread_timeout+0x28>
}
80003bc0:	00c12083          	lw	ra,12(sp)
80003bc4:	00812403          	lw	s0,8(sp)
80003bc8:	00412483          	lw	s1,4(sp)
80003bcc:	00012903          	lw	s2,0(sp)
80003bd0:	01010113          	addi	sp,sp,16
80003bd4:	00008067          	ret

80003bd8 <unpend_all>:
}

#endif /* CONFIG_SCHED_CPU_MASK */

static inline void unpend_all(_wait_q_t *wait_q)
{
80003bd8:	ff010113          	addi	sp,sp,-16
80003bdc:	00112623          	sw	ra,12(sp)
80003be0:	00812423          	sw	s0,8(sp)
80003be4:	00912223          	sw	s1,4(sp)
80003be8:	00050493          	mv	s1,a0
	return list->head == list;
80003bec:	0004a403          	lw	s0,0(s1)
	return sys_dlist_is_empty(list) ? NULL : list->head;
80003bf0:	02848463          	beq	s1,s0,80003c18 <unpend_all+0x40>
	struct k_thread *thread;

	while ((thread = z_waitq_head(wait_q)) != NULL) {
80003bf4:	02040263          	beqz	s0,80003c18 <unpend_all+0x40>
		unpend_thread_no_timeout(thread);
80003bf8:	00040513          	mv	a0,s0
80003bfc:	aadff0ef          	jal	ra,800036a8 <unpend_thread_no_timeout>
}

static inline int z_abort_thread_timeout(struct k_thread *thread)
{
	return z_abort_timeout(&thread->base.timeout);
80003c00:	01840513          	addi	a0,s0,24
80003c04:	0fd000ef          	jal	ra,80004500 <z_abort_timeout>
80003c08:	06042c23          	sw	zero,120(s0)
		(void)z_abort_thread_timeout(thread);
		arch_thread_return_value_set(thread, 0);
		ready_thread(thread);
80003c0c:	00040513          	mv	a0,s0
80003c10:	d95ff0ef          	jal	ra,800039a4 <ready_thread>
80003c14:	fd9ff06f          	j	80003bec <unpend_all+0x14>
	}
}
80003c18:	00c12083          	lw	ra,12(sp)
80003c1c:	00812403          	lw	s0,8(sp)
80003c20:	00412483          	lw	s1,4(sp)
80003c24:	01010113          	addi	sp,sp,16
80003c28:	00008067          	ret

80003c2c <unready_thread>:
{
80003c2c:	ff010113          	addi	sp,sp,-16
80003c30:	00112623          	sw	ra,12(sp)
80003c34:	00812423          	sw	s0,8(sp)
80003c38:	00050413          	mv	s0,a0
	return (thread->base.thread_state & state) != 0U;
80003c3c:	00d54783          	lbu	a5,13(a0)
	if (z_is_thread_queued(thread)) {
80003c40:	01879713          	slli	a4,a5,0x18
80003c44:	41875713          	srai	a4,a4,0x18
80003c48:	02074663          	bltz	a4,80003c74 <unready_thread+0x48>
	update_cache(thread == _current);
80003c4c:	800077b7          	lui	a5,0x80007
80003c50:	ca078793          	addi	a5,a5,-864 # 80006ca0 <CONFIG_SYSTEM_WORKQUEUE_PRIORITY+0x80006ca1>
80003c54:	0087a503          	lw	a0,8(a5)
80003c58:	40850533          	sub	a0,a0,s0
80003c5c:	00153513          	seqz	a0,a0
80003c60:	a9dff0ef          	jal	ra,800036fc <update_cache>
}
80003c64:	00c12083          	lw	ra,12(sp)
80003c68:	00812403          	lw	s0,8(sp)
80003c6c:	01010113          	addi	sp,sp,16
80003c70:	00008067          	ret
	thread->base.thread_state &= ~_THREAD_QUEUED;
80003c74:	07f7f793          	andi	a5,a5,127
80003c78:	00f506a3          	sb	a5,13(a0)
	_priq_run_remove(thread_runq(thread), thread);
80003c7c:	00050593          	mv	a1,a0
80003c80:	80007537          	lui	a0,0x80007
80003c84:	cbc50513          	addi	a0,a0,-836 # 80006cbc <CONFIG_SYSTEM_WORKQUEUE_PRIORITY+0x80006cbd>
80003c88:	a05ff0ef          	jal	ra,8000368c <z_priq_dumb_remove>
}
80003c8c:	fc1ff06f          	j	80003c4c <unready_thread+0x20>

80003c90 <add_to_waitq_locked>:
{
80003c90:	ff010113          	addi	sp,sp,-16
80003c94:	00112623          	sw	ra,12(sp)
80003c98:	00812423          	sw	s0,8(sp)
80003c9c:	00912223          	sw	s1,4(sp)
80003ca0:	01212023          	sw	s2,0(sp)
80003ca4:	00050493          	mv	s1,a0
80003ca8:	00058913          	mv	s2,a1
	unready_thread(thread);
80003cac:	f81ff0ef          	jal	ra,80003c2c <unready_thread>
	thread->base.thread_state |= _THREAD_PENDING;
80003cb0:	00d4c783          	lbu	a5,13(s1)
80003cb4:	0027e793          	ori	a5,a5,2
80003cb8:	00f486a3          	sb	a5,13(s1)
	if (wait_q != NULL) {
80003cbc:	06090863          	beqz	s2,80003d2c <add_to_waitq_locked+0x9c>
		thread->base.pended_on = wait_q;
80003cc0:	0124a423          	sw	s2,8(s1)
	return list->head == list;
80003cc4:	00092403          	lw	s0,0(s2)
	return sys_dlist_is_empty(list) ? NULL : list->head;
80003cc8:	02891463          	bne	s2,s0,80003cf0 <add_to_waitq_locked+0x60>
	SYS_DLIST_FOR_EACH_CONTAINER(pq, t, base.qnode_dlist) {
80003ccc:	00000413          	li	s0,0
80003cd0:	0200006f          	j	80003cf0 <add_to_waitq_locked+0x60>
	sys_dnode_t *const prev = successor->prev;
80003cd4:	00442783          	lw	a5,4(s0)
	node->prev = prev;
80003cd8:	00f4a223          	sw	a5,4(s1)
	node->next = successor;
80003cdc:	0084a023          	sw	s0,0(s1)
	prev->next = node;
80003ce0:	0097a023          	sw	s1,0(a5)
	successor->prev = node;
80003ce4:	00942223          	sw	s1,4(s0)
}
80003ce8:	0440006f          	j	80003d2c <add_to_waitq_locked+0x9c>
80003cec:	00000413          	li	s0,0
80003cf0:	02040463          	beqz	s0,80003d18 <add_to_waitq_locked+0x88>
		if (z_sched_prio_cmp(thread, t) > 0) {
80003cf4:	00040593          	mv	a1,s0
80003cf8:	00048513          	mv	a0,s1
80003cfc:	e6cff0ef          	jal	ra,80003368 <z_sched_prio_cmp>
80003d00:	fca04ae3          	bgtz	a0,80003cd4 <add_to_waitq_locked+0x44>
	return (node != NULL) ? sys_dlist_peek_next_no_check(list, node) : NULL;
80003d04:	fe0406e3          	beqz	s0,80003cf0 <add_to_waitq_locked+0x60>
	return (node == list->tail) ? NULL : node->next;
80003d08:	00492703          	lw	a4,4(s2)
80003d0c:	fee400e3          	beq	s0,a4,80003cec <add_to_waitq_locked+0x5c>
80003d10:	00042403          	lw	s0,0(s0)
80003d14:	fddff06f          	j	80003cf0 <add_to_waitq_locked+0x60>
	sys_dnode_t *const tail = list->tail;
80003d18:	00492783          	lw	a5,4(s2)
	node->next = list;
80003d1c:	0124a023          	sw	s2,0(s1)
	node->prev = tail;
80003d20:	00f4a223          	sw	a5,4(s1)
	tail->next = node;
80003d24:	0097a023          	sw	s1,0(a5)
	list->tail = node;
80003d28:	00992223          	sw	s1,4(s2)
}
80003d2c:	00c12083          	lw	ra,12(sp)
80003d30:	00812403          	lw	s0,8(sp)
80003d34:	00412483          	lw	s1,4(sp)
80003d38:	00012903          	lw	s2,0(sp)
80003d3c:	01010113          	addi	sp,sp,16
80003d40:	00008067          	ret

80003d44 <pend>:
{
80003d44:	fe010113          	addi	sp,sp,-32
80003d48:	00112e23          	sw	ra,28(sp)
80003d4c:	00812c23          	sw	s0,24(sp)
80003d50:	00912a23          	sw	s1,20(sp)
80003d54:	01212823          	sw	s2,16(sp)
80003d58:	01312623          	sw	s3,12(sp)
80003d5c:	01412423          	sw	s4,8(sp)
80003d60:	00050413          	mv	s0,a0
80003d64:	00058493          	mv	s1,a1
80003d68:	00060a13          	mv	s4,a2
80003d6c:	00068993          	mv	s3,a3
	LOCKED(&sched_spinlock) {
80003d70:	00000793          	li	a5,0
	__asm__ volatile ("csrrc %0, mstatus, %1"
80003d74:	30047973          	csrrci	s2,mstatus,8
80003d78:	01c0006f          	j	80003d94 <pend+0x50>
		add_to_waitq_locked(thread, wait_q);
80003d7c:	00048593          	mv	a1,s1
80003d80:	00040513          	mv	a0,s0
80003d84:	f0dff0ef          	jal	ra,80003c90 <add_to_waitq_locked>
			  : "r" (key & MSTATUS_IEN)
80003d88:	00897793          	andi	a5,s2,8
	__asm__ volatile ("csrs mstatus, %0"
80003d8c:	3007a073          	csrs	mstatus,a5
	LOCKED(&sched_spinlock) {
80003d90:	00100793          	li	a5,1
80003d94:	fe0784e3          	beqz	a5,80003d7c <pend+0x38>
	add_thread_timeout(thread, timeout);
80003d98:	000a0593          	mv	a1,s4
80003d9c:	00098613          	mv	a2,s3
80003da0:	00040513          	mv	a0,s0
80003da4:	d88ff0ef          	jal	ra,8000332c <add_thread_timeout>
}
80003da8:	01c12083          	lw	ra,28(sp)
80003dac:	01812403          	lw	s0,24(sp)
80003db0:	01412483          	lw	s1,20(sp)
80003db4:	01012903          	lw	s2,16(sp)
80003db8:	00c12983          	lw	s3,12(sp)
80003dbc:	00812a03          	lw	s4,8(sp)
80003dc0:	02010113          	addi	sp,sp,32
80003dc4:	00008067          	ret

80003dc8 <z_pend_curr>:
{
80003dc8:	ff010113          	addi	sp,sp,-16
80003dcc:	00112623          	sw	ra,12(sp)
80003dd0:	00812423          	sw	s0,8(sp)
80003dd4:	00912223          	sw	s1,4(sp)
80003dd8:	00050413          	mv	s0,a0
80003ddc:	00058493          	mv	s1,a1
80003de0:	00060593          	mv	a1,a2
80003de4:	00068613          	mv	a2,a3
80003de8:	00070693          	mv	a3,a4
	pend(_current, wait_q, timeout);
80003dec:	800077b7          	lui	a5,0x80007
80003df0:	ca078793          	addi	a5,a5,-864 # 80006ca0 <CONFIG_SYSTEM_WORKQUEUE_PRIORITY+0x80006ca1>
80003df4:	0087a503          	lw	a0,8(a5)
80003df8:	f4dff0ef          	jal	ra,80003d44 <pend>
	return z_swap(lock, key);
80003dfc:	00048593          	mv	a1,s1
80003e00:	00040513          	mv	a0,s0
80003e04:	f8cff0ef          	jal	ra,80003590 <z_swap>
}
80003e08:	00c12083          	lw	ra,12(sp)
80003e0c:	00812403          	lw	s0,8(sp)
80003e10:	00412483          	lw	s1,4(sp)
80003e14:	01010113          	addi	sp,sp,16
80003e18:	00008067          	ret

80003e1c <z_set_prio>:
{
80003e1c:	fe010113          	addi	sp,sp,-32
80003e20:	00112e23          	sw	ra,28(sp)
80003e24:	00812c23          	sw	s0,24(sp)
80003e28:	00912a23          	sw	s1,20(sp)
80003e2c:	01212823          	sw	s2,16(sp)
80003e30:	01312623          	sw	s3,12(sp)
80003e34:	01412423          	sw	s4,8(sp)
80003e38:	01512223          	sw	s5,4(sp)
80003e3c:	00050493          	mv	s1,a0
80003e40:	00058913          	mv	s2,a1
	LOCKED(&sched_spinlock) {
80003e44:	00000793          	li	a5,0
	__asm__ volatile ("csrrc %0, mstatus, %1"
80003e48:	300479f3          	csrrci	s3,mstatus,8
	bool need_sched = 0;
80003e4c:	00000513          	li	a0,0
80003e50:	0980006f          	j	80003ee8 <z_set_prio+0xcc>
	sys_dnode_t *const prev = successor->prev;
80003e54:	00442783          	lw	a5,4(s0)
	node->prev = prev;
80003e58:	00f4a223          	sw	a5,4(s1)
	node->next = successor;
80003e5c:	0084a023          	sw	s0,0(s1)
	prev->next = node;
80003e60:	0097a023          	sw	s1,0(a5)
	successor->prev = node;
80003e64:	00942223          	sw	s1,4(s0)
}
80003e68:	05c0006f          	j	80003ec4 <z_set_prio+0xa8>
	SYS_DLIST_FOR_EACH_CONTAINER(pq, t, base.qnode_dlist) {
80003e6c:	000a0413          	mv	s0,s4
80003e70:	02040863          	beqz	s0,80003ea0 <z_set_prio+0x84>
		if (z_sched_prio_cmp(thread, t) > 0) {
80003e74:	00040593          	mv	a1,s0
80003e78:	00048513          	mv	a0,s1
80003e7c:	cecff0ef          	jal	ra,80003368 <z_sched_prio_cmp>
80003e80:	fca04ae3          	bgtz	a0,80003e54 <z_set_prio+0x38>
	return (node != NULL) ? sys_dlist_peek_next_no_check(list, node) : NULL;
80003e84:	fe0406e3          	beqz	s0,80003e70 <z_set_prio+0x54>
	return (node == list->tail) ? NULL : node->next;
80003e88:	800077b7          	lui	a5,0x80007
80003e8c:	ca078793          	addi	a5,a5,-864 # 80006ca0 <CONFIG_SYSTEM_WORKQUEUE_PRIORITY+0x80006ca1>
80003e90:	0207a783          	lw	a5,32(a5)
80003e94:	fcf40ce3          	beq	s0,a5,80003e6c <z_set_prio+0x50>
80003e98:	00042403          	lw	s0,0(s0)
80003e9c:	fd5ff06f          	j	80003e70 <z_set_prio+0x54>
	sys_dnode_t *const tail = list->tail;
80003ea0:	800077b7          	lui	a5,0x80007
80003ea4:	ca078793          	addi	a5,a5,-864 # 80006ca0 <CONFIG_SYSTEM_WORKQUEUE_PRIORITY+0x80006ca1>
80003ea8:	0207a683          	lw	a3,32(a5)
	node->next = list;
80003eac:	80007737          	lui	a4,0x80007
80003eb0:	cbc70713          	addi	a4,a4,-836 # 80006cbc <CONFIG_SYSTEM_WORKQUEUE_PRIORITY+0x80006cbd>
80003eb4:	00e4a023          	sw	a4,0(s1)
	node->prev = tail;
80003eb8:	00d4a223          	sw	a3,4(s1)
	tail->next = node;
80003ebc:	0096a023          	sw	s1,0(a3)
	list->tail = node;
80003ec0:	0297a023          	sw	s1,32(a5)
			update_cache(1);
80003ec4:	00100513          	li	a0,1
80003ec8:	835ff0ef          	jal	ra,800036fc <update_cache>
	return !((z_is_thread_prevented_from_running(thread)) != 0U ||
80003ecc:	00100513          	li	a0,1
80003ed0:	00c0006f          	j	80003edc <z_set_prio+0xc0>
			thread->base.prio = prio;
80003ed4:	01248723          	sb	s2,14(s1)
80003ed8:	00000513          	li	a0,0
			  : "r" (key & MSTATUS_IEN)
80003edc:	0089f793          	andi	a5,s3,8
	__asm__ volatile ("csrs mstatus, %0"
80003ee0:	3007a073          	csrs	mstatus,a5
	LOCKED(&sched_spinlock) {
80003ee4:	00100793          	li	a5,1
80003ee8:	04079e63          	bnez	a5,80003f44 <z_set_prio+0x128>
	uint8_t state = thread->base.thread_state;
80003eec:	00d4c783          	lbu	a5,13(s1)
	return !((z_is_thread_prevented_from_running(thread)) != 0U ||
80003ef0:	01f7f713          	andi	a4,a5,31
80003ef4:	fe0710e3          	bnez	a4,80003ed4 <z_set_prio+0xb8>
	return node->next != NULL;
80003ef8:	0184aa03          	lw	s4,24(s1)
80003efc:	fc0a1ce3          	bnez	s4,80003ed4 <z_set_prio+0xb8>
	thread->base.thread_state &= ~_THREAD_QUEUED;
80003f00:	07f7f793          	andi	a5,a5,127
80003f04:	00f486a3          	sb	a5,13(s1)
	_priq_run_remove(thread_runq(thread), thread);
80003f08:	00048593          	mv	a1,s1
80003f0c:	80007ab7          	lui	s5,0x80007
80003f10:	cbca8513          	addi	a0,s5,-836 # 80006cbc <CONFIG_SYSTEM_WORKQUEUE_PRIORITY+0x80006cbd>
80003f14:	f78ff0ef          	jal	ra,8000368c <z_priq_dumb_remove>
				thread->base.prio = prio;
80003f18:	01248723          	sb	s2,14(s1)
	thread->base.thread_state |= _THREAD_QUEUED;
80003f1c:	00d4c783          	lbu	a5,13(s1)
80003f20:	f807e793          	ori	a5,a5,-128
80003f24:	00f486a3          	sb	a5,13(s1)
	return list->head == list;
80003f28:	800077b7          	lui	a5,0x80007
80003f2c:	ca078793          	addi	a5,a5,-864 # 80006ca0 <CONFIG_SYSTEM_WORKQUEUE_PRIORITY+0x80006ca1>
80003f30:	01c7a403          	lw	s0,28(a5)
	return sys_dlist_is_empty(list) ? NULL : list->head;
80003f34:	cbca8a93          	addi	s5,s5,-836
80003f38:	f3541ce3          	bne	s0,s5,80003e70 <z_set_prio+0x54>
	SYS_DLIST_FOR_EACH_CONTAINER(pq, t, base.qnode_dlist) {
80003f3c:	000a0413          	mv	s0,s4
80003f40:	f31ff06f          	j	80003e70 <z_set_prio+0x54>
}
80003f44:	01c12083          	lw	ra,28(sp)
80003f48:	01812403          	lw	s0,24(sp)
80003f4c:	01412483          	lw	s1,20(sp)
80003f50:	01012903          	lw	s2,16(sp)
80003f54:	00c12983          	lw	s3,12(sp)
80003f58:	00812a03          	lw	s4,8(sp)
80003f5c:	00412a83          	lw	s5,4(sp)
80003f60:	02010113          	addi	sp,sp,32
80003f64:	00008067          	ret

80003f68 <k_sched_unlock>:
{
80003f68:	ff010113          	addi	sp,sp,-16
80003f6c:	00112623          	sw	ra,12(sp)
80003f70:	00812423          	sw	s0,8(sp)
	LOCKED(&sched_spinlock) {
80003f74:	00000793          	li	a5,0
	__asm__ volatile ("csrrc %0, mstatus, %1"
80003f78:	30047473          	csrrci	s0,mstatus,8
80003f7c:	0300006f          	j	80003fac <k_sched_unlock+0x44>
		++_current->base.sched_locked;
80003f80:	800077b7          	lui	a5,0x80007
80003f84:	ca078793          	addi	a5,a5,-864 # 80006ca0 <CONFIG_SYSTEM_WORKQUEUE_PRIORITY+0x80006ca1>
80003f88:	0087a703          	lw	a4,8(a5)
80003f8c:	00f74783          	lbu	a5,15(a4)
80003f90:	00178793          	addi	a5,a5,1
80003f94:	00f707a3          	sb	a5,15(a4)
		update_cache(0);
80003f98:	00000513          	li	a0,0
80003f9c:	f60ff0ef          	jal	ra,800036fc <update_cache>
			  : "r" (key & MSTATUS_IEN)
80003fa0:	00847793          	andi	a5,s0,8
	__asm__ volatile ("csrs mstatus, %0"
80003fa4:	3007a073          	csrs	mstatus,a5
	LOCKED(&sched_spinlock) {
80003fa8:	00100793          	li	a5,1
80003fac:	fc078ae3          	beqz	a5,80003f80 <k_sched_unlock+0x18>
	__asm__ volatile ("csrrc %0, mstatus, %1"
80003fb0:	30047573          	csrrci	a0,mstatus,8
	(void) z_reschedule_irqlock(arch_irq_lock());
80003fb4:	da8ff0ef          	jal	ra,8000355c <z_reschedule_irqlock>
}
80003fb8:	00c12083          	lw	ra,12(sp)
80003fbc:	00812403          	lw	s0,8(sp)
80003fc0:	01010113          	addi	sp,sp,16
80003fc4:	00008067          	ret

80003fc8 <end_thread>:
static void end_thread(struct k_thread *thread)
{
	/* We hold the lock, and the thread is known not to be running
	 * anywhere.
	 */
	if ((thread->base.thread_state & _THREAD_DEAD) == 0U) {
80003fc8:	00d54783          	lbu	a5,13(a0)
80003fcc:	0087f713          	andi	a4,a5,8
80003fd0:	08071663          	bnez	a4,8000405c <end_thread+0x94>
{
80003fd4:	ff010113          	addi	sp,sp,-16
80003fd8:	00112623          	sw	ra,12(sp)
80003fdc:	00812423          	sw	s0,8(sp)
80003fe0:	00050413          	mv	s0,a0
		thread->base.thread_state |= _THREAD_DEAD;
80003fe4:	0087e713          	ori	a4,a5,8
80003fe8:	00e506a3          	sb	a4,13(a0)
		thread->base.thread_state &= ~_THREAD_ABORTING;
80003fec:	fdf7f713          	andi	a4,a5,-33
80003ff0:	00876713          	ori	a4,a4,8
80003ff4:	00e506a3          	sb	a4,13(a0)
		if (z_is_thread_queued(thread)) {
80003ff8:	01871713          	slli	a4,a4,0x18
80003ffc:	41875713          	srai	a4,a4,0x18
80004000:	02074e63          	bltz	a4,8000403c <end_thread+0x74>
			dequeue_thread(thread);
		}
		if (thread->base.pended_on != NULL) {
80004004:	00842783          	lw	a5,8(s0)
80004008:	00078663          	beqz	a5,80004014 <end_thread+0x4c>
			unpend_thread_no_timeout(thread);
8000400c:	00040513          	mv	a0,s0
80004010:	e98ff0ef          	jal	ra,800036a8 <unpend_thread_no_timeout>
80004014:	01840513          	addi	a0,s0,24
80004018:	4e8000ef          	jal	ra,80004500 <z_abort_timeout>
		}
		(void)z_abort_thread_timeout(thread);
		unpend_all(&thread->join_queue);
8000401c:	06c40513          	addi	a0,s0,108
80004020:	bb9ff0ef          	jal	ra,80003bd8 <unpend_all>
		update_cache(1);
80004024:	00100513          	li	a0,1
80004028:	ed4ff0ef          	jal	ra,800036fc <update_cache>
		z_thread_perms_all_clear(thread);
		z_object_uninit(thread->stack_obj);
		z_object_uninit(thread);
#endif
	}
}
8000402c:	00c12083          	lw	ra,12(sp)
80004030:	00812403          	lw	s0,8(sp)
80004034:	01010113          	addi	sp,sp,16
80004038:	00008067          	ret
	thread->base.thread_state &= ~_THREAD_QUEUED;
8000403c:	05f7f793          	andi	a5,a5,95
80004040:	0087e793          	ori	a5,a5,8
80004044:	00f506a3          	sb	a5,13(a0)
	_priq_run_remove(thread_runq(thread), thread);
80004048:	00050593          	mv	a1,a0
8000404c:	80007537          	lui	a0,0x80007
80004050:	cbc50513          	addi	a0,a0,-836 # 80006cbc <CONFIG_SYSTEM_WORKQUEUE_PRIORITY+0x80006cbd>
80004054:	e38ff0ef          	jal	ra,8000368c <z_priq_dumb_remove>
}
80004058:	fadff06f          	j	80004004 <end_thread+0x3c>
8000405c:	00008067          	ret

80004060 <z_unpend_first_thread>:
{
80004060:	ff010113          	addi	sp,sp,-16
80004064:	00112623          	sw	ra,12(sp)
80004068:	00812423          	sw	s0,8(sp)
8000406c:	00912223          	sw	s1,4(sp)
80004070:	01212023          	sw	s2,0(sp)
80004074:	00050493          	mv	s1,a0
	LOCKED(&sched_spinlock) {
80004078:	00000793          	li	a5,0
8000407c:	30047973          	csrrci	s2,mstatus,8
	struct k_thread *thread = NULL;
80004080:	00000413          	li	s0,0
80004084:	0100006f          	j	80004094 <z_unpend_first_thread+0x34>
			  : "r" (key & MSTATUS_IEN)
80004088:	00897793          	andi	a5,s2,8
	__asm__ volatile ("csrs mstatus, %0"
8000408c:	3007a073          	csrs	mstatus,a5
	LOCKED(&sched_spinlock) {
80004090:	00100793          	li	a5,1
80004094:	02079263          	bnez	a5,800040b8 <z_unpend_first_thread+0x58>
		thread = _priq_wait_best(&wait_q->waitq);
80004098:	00048513          	mv	a0,s1
8000409c:	e48ff0ef          	jal	ra,800036e4 <z_priq_dumb_best>
800040a0:	00050413          	mv	s0,a0
		if (thread != NULL) {
800040a4:	fe0502e3          	beqz	a0,80004088 <z_unpend_first_thread+0x28>
			unpend_thread_no_timeout(thread);
800040a8:	e00ff0ef          	jal	ra,800036a8 <unpend_thread_no_timeout>
800040ac:	01840513          	addi	a0,s0,24
800040b0:	450000ef          	jal	ra,80004500 <z_abort_timeout>
800040b4:	fd5ff06f          	j	80004088 <z_unpend_first_thread+0x28>
}
800040b8:	00040513          	mv	a0,s0
800040bc:	00c12083          	lw	ra,12(sp)
800040c0:	00812403          	lw	s0,8(sp)
800040c4:	00412483          	lw	s1,4(sp)
800040c8:	00012903          	lw	s2,0(sp)
800040cc:	01010113          	addi	sp,sp,16
800040d0:	00008067          	ret

800040d4 <init_ready_q>:
	sys_dlist_init(&rq->runq);
800040d4:	00450793          	addi	a5,a0,4
	list->head = (sys_dnode_t *)list;
800040d8:	00f52223          	sw	a5,4(a0)
	list->tail = (sys_dnode_t *)list;
800040dc:	00f52423          	sw	a5,8(a0)
}
800040e0:	00008067          	ret

800040e4 <z_sched_init>:
{
800040e4:	ff010113          	addi	sp,sp,-16
800040e8:	00112623          	sw	ra,12(sp)
	init_ready_q(&_kernel.ready_q);
800040ec:	80007537          	lui	a0,0x80007
800040f0:	cb850513          	addi	a0,a0,-840 # 80006cb8 <CONFIG_SYSTEM_WORKQUEUE_PRIORITY+0x80006cb9>
800040f4:	fe1ff0ef          	jal	ra,800040d4 <init_ready_q>
	k_sched_time_slice_set(CONFIG_TIMESLICE_SIZE,
800040f8:	00000593          	li	a1,0
800040fc:	00000513          	li	a0,0
80004100:	ad4ff0ef          	jal	ra,800033d4 <k_sched_time_slice_set>
}
80004104:	00c12083          	lw	ra,12(sp)
80004108:	01010113          	addi	sp,sp,16
8000410c:	00008067          	ret

80004110 <z_impl_z_current_get>:
	k_tid_t ret = _current_cpu->current;
80004110:	800077b7          	lui	a5,0x80007
}
80004114:	ca078793          	addi	a5,a5,-864 # 80006ca0 <CONFIG_SYSTEM_WORKQUEUE_PRIORITY+0x80006ca1>
80004118:	0087a503          	lw	a0,8(a5)
8000411c:	00008067          	ret

80004120 <z_thread_abort>:

void z_thread_abort(struct k_thread *thread)
{
80004120:	ff010113          	addi	sp,sp,-16
80004124:	00112623          	sw	ra,12(sp)
80004128:	00812423          	sw	s0,8(sp)
8000412c:	00912223          	sw	s1,4(sp)
	__asm__ volatile ("csrrc %0, mstatus, %1"
80004130:	300474f3          	csrrci	s1,mstatus,8
	k_spinlock_key_t key = k_spin_lock(&sched_spinlock);

	if ((thread->base.user_options & K_ESSENTIAL) != 0) {
80004134:	00c54783          	lbu	a5,12(a0)
80004138:	0017f793          	andi	a5,a5,1
8000413c:	02079063          	bnez	a5,8000415c <z_thread_abort+0x3c>
80004140:	00050413          	mv	s0,a0
		__ASSERT(false, "aborting essential thread %p", thread);
		k_panic();
		return;
	}

	if ((thread->base.thread_state & _THREAD_DEAD) != 0U) {
80004144:	00d54783          	lbu	a5,13(a0)
80004148:	0087f793          	andi	a5,a5,8
8000414c:	02078c63          	beqz	a5,80004184 <z_thread_abort+0x64>
	__asm__ volatile ("csrs mstatus, %0"
80004150:	0084f493          	andi	s1,s1,8
80004154:	3004a073          	csrs	mstatus,s1
		k_spin_unlock(&sched_spinlock, key);
		return;
80004158:	0180006f          	j	80004170 <z_thread_abort+0x50>
8000415c:	0084f493          	andi	s1,s1,8
80004160:	3004a073          	csrs	mstatus,s1
	return a0;
}

static inline uintptr_t arch_syscall_invoke1(uintptr_t arg1, uintptr_t call_id)
{
	register unsigned long a0 __asm__ ("a0") = arg1;
80004164:	00400513          	li	a0,4
	register unsigned long t0 __asm__ ("t0") = call_id;
80004168:	00000293          	li	t0,0

	__asm__ volatile ("ecall"
8000416c:	00000073          	ecall
	if (thread == _current && !arch_is_in_isr()) {
		z_swap(&sched_spinlock, key);
		__ASSERT(false, "aborted _current back from dead");
	}
	k_spin_unlock(&sched_spinlock, key);
}
80004170:	00c12083          	lw	ra,12(sp)
80004174:	00812403          	lw	s0,8(sp)
80004178:	00412483          	lw	s1,4(sp)
8000417c:	01010113          	addi	sp,sp,16
80004180:	00008067          	ret
	end_thread(thread);
80004184:	e45ff0ef          	jal	ra,80003fc8 <end_thread>
	if (thread == _current && !arch_is_in_isr()) {
80004188:	800077b7          	lui	a5,0x80007
8000418c:	ca078793          	addi	a5,a5,-864 # 80006ca0 <CONFIG_SYSTEM_WORKQUEUE_PRIORITY+0x80006ca1>
80004190:	0087a783          	lw	a5,8(a5)
80004194:	00878863          	beq	a5,s0,800041a4 <z_thread_abort+0x84>
80004198:	0084f493          	andi	s1,s1,8
8000419c:	3004a073          	csrs	mstatus,s1
800041a0:	fd1ff06f          	j	80004170 <z_thread_abort+0x50>
800041a4:	800077b7          	lui	a5,0x80007
800041a8:	ca07a783          	lw	a5,-864(a5) # 80006ca0 <CONFIG_SYSTEM_WORKQUEUE_PRIORITY+0x80006ca1>
800041ac:	fe0796e3          	bnez	a5,80004198 <z_thread_abort+0x78>
		z_swap(&sched_spinlock, key);
800041b0:	00048593          	mv	a1,s1
800041b4:	80007537          	lui	a0,0x80007
800041b8:	cc450513          	addi	a0,a0,-828 # 80006cc4 <CONFIG_SYSTEM_WORKQUEUE_PRIORITY+0x80006cc5>
800041bc:	bd4ff0ef          	jal	ra,80003590 <z_swap>
800041c0:	fd9ff06f          	j	80004198 <z_thread_abort+0x78>

800041c4 <z_impl_k_thread_abort>:

#if !defined(CONFIG_ARCH_HAS_THREAD_ABORT)
void z_impl_k_thread_abort(struct k_thread *thread)
{
800041c4:	ff010113          	addi	sp,sp,-16
800041c8:	00112623          	sw	ra,12(sp)
	SYS_PORT_TRACING_OBJ_FUNC_ENTER(k_thread, abort, thread);

	z_thread_abort(thread);
800041cc:	f55ff0ef          	jal	ra,80004120 <z_thread_abort>

	SYS_PORT_TRACING_OBJ_FUNC_EXIT(k_thread, abort, thread);
}
800041d0:	00c12083          	lw	ra,12(sp)
800041d4:	01010113          	addi	sp,sp,16
800041d8:	00008067          	ret

800041dc <first>:
	return list->head == list;
800041dc:	80c18793          	addi	a5,gp,-2036 # 8000914c <timeout_list>
800041e0:	0007a503          	lw	a0,0(a5)
	return sys_dlist_is_empty(list) ? NULL : list->head;
800041e4:	00f50463          	beq	a0,a5,800041ec <first+0x10>
static struct _timeout *first(void)
{
	sys_dnode_t *t = sys_dlist_peek_head(&timeout_list);

	return t == NULL ? NULL : CONTAINER_OF(t, struct _timeout, node);
}
800041e8:	00008067          	ret
800041ec:	00000513          	li	a0,0
	return t == NULL ? NULL : CONTAINER_OF(t, struct _timeout, node);
800041f0:	ff9ff06f          	j	800041e8 <first+0xc>

800041f4 <next>:
	return (node != NULL) ? sys_dlist_peek_next_no_check(list, node) : NULL;
800041f4:	00050e63          	beqz	a0,80004210 <next+0x1c>
	return (node == list->tail) ? NULL : node->next;
800041f8:	80c18713          	addi	a4,gp,-2036 # 8000914c <timeout_list>
800041fc:	00472703          	lw	a4,4(a4)
80004200:	00e50663          	beq	a0,a4,8000420c <next+0x18>
80004204:	00052503          	lw	a0,0(a0)
80004208:	00008067          	ret
8000420c:	00000513          	li	a0,0
static struct _timeout *next(struct _timeout *t)
{
	sys_dnode_t *n = sys_dlist_peek_next(&timeout_list, &t->node);

	return n == NULL ? NULL : CONTAINER_OF(n, struct _timeout, node);
}
80004210:	00008067          	ret

80004214 <remove_timeout>:

static void remove_timeout(struct _timeout *t)
{
80004214:	ff010113          	addi	sp,sp,-16
80004218:	00112623          	sw	ra,12(sp)
8000421c:	00812423          	sw	s0,8(sp)
80004220:	00050413          	mv	s0,a0
	if (next(t) != NULL) {
80004224:	fd1ff0ef          	jal	ra,800041f4 <next>
80004228:	02050663          	beqz	a0,80004254 <remove_timeout+0x40>
		next(t)->dticks += t->dticks;
8000422c:	01052783          	lw	a5,16(a0)
80004230:	01452683          	lw	a3,20(a0)
80004234:	01042703          	lw	a4,16(s0)
80004238:	01442603          	lw	a2,20(s0)
8000423c:	00e78733          	add	a4,a5,a4
80004240:	00f737b3          	sltu	a5,a4,a5
80004244:	00c686b3          	add	a3,a3,a2
80004248:	00d787b3          	add	a5,a5,a3
8000424c:	00e52823          	sw	a4,16(a0)
80004250:	00f52a23          	sw	a5,20(a0)
	sys_dnode_t *const prev = node->prev;
80004254:	00442703          	lw	a4,4(s0)
	sys_dnode_t *const next = node->next;
80004258:	00042783          	lw	a5,0(s0)
	prev->next = next;
8000425c:	00f72023          	sw	a5,0(a4)
	next->prev = prev;
80004260:	00e7a223          	sw	a4,4(a5)
	node->next = NULL;
80004264:	00042023          	sw	zero,0(s0)
	node->prev = NULL;
80004268:	00042223          	sw	zero,4(s0)
	}

	sys_dlist_remove(&t->node);
}
8000426c:	00c12083          	lw	ra,12(sp)
80004270:	00812403          	lw	s0,8(sp)
80004274:	01010113          	addi	sp,sp,16
80004278:	00008067          	ret

8000427c <elapsed>:

static int32_t elapsed(void)
{
	return announce_remaining == 0 ? sys_clock_elapsed() : 0U;
8000427c:	800077b7          	lui	a5,0x80007
80004280:	b787a783          	lw	a5,-1160(a5) # 80006b78 <CONFIG_SYSTEM_WORKQUEUE_PRIORITY+0x80006b79>
80004284:	00078663          	beqz	a5,80004290 <elapsed+0x14>
80004288:	00000513          	li	a0,0
}
8000428c:	00008067          	ret
{
80004290:	ff010113          	addi	sp,sp,-16
80004294:	00112623          	sw	ra,12(sp)
	return announce_remaining == 0 ? sys_clock_elapsed() : 0U;
80004298:	e10fe0ef          	jal	ra,800028a8 <sys_clock_elapsed>
}
8000429c:	00c12083          	lw	ra,12(sp)
800042a0:	01010113          	addi	sp,sp,16
800042a4:	00008067          	ret

800042a8 <next_timeout>:

static int32_t next_timeout(void)
{
800042a8:	ff010113          	addi	sp,sp,-16
800042ac:	00112623          	sw	ra,12(sp)
800042b0:	00812423          	sw	s0,8(sp)
	struct _timeout *to = first();
800042b4:	f29ff0ef          	jal	ra,800041dc <first>
800042b8:	00050413          	mv	s0,a0
	int32_t ticks_elapsed = elapsed();
800042bc:	fc1ff0ef          	jal	ra,8000427c <elapsed>
	int32_t ret;

	if ((to == NULL) ||
800042c0:	02040c63          	beqz	s0,800042f8 <next_timeout+0x50>
	    ((int64_t)(to->dticks - ticks_elapsed) > (int64_t)INT_MAX)) {
800042c4:	01042703          	lw	a4,16(s0)
800042c8:	01442783          	lw	a5,20(s0)
800042cc:	41f55693          	srai	a3,a0,0x1f
800042d0:	40a70533          	sub	a0,a4,a0
800042d4:	00a73733          	sltu	a4,a4,a0
800042d8:	40d787b3          	sub	a5,a5,a3
800042dc:	40e787b3          	sub	a5,a5,a4
	if ((to == NULL) ||
800042e0:	02f04263          	bgtz	a5,80004304 <next_timeout+0x5c>
800042e4:	00079463          	bnez	a5,800042ec <next_timeout+0x44>
800042e8:	00054e63          	bltz	a0,80004304 <next_timeout+0x5c>
		ret = MAX_WAIT;
	} else {
		ret = MAX(0, to->dticks - ticks_elapsed);
800042ec:	0207d063          	bgez	a5,8000430c <next_timeout+0x64>
800042f0:	00000513          	li	a0,0
800042f4:	0180006f          	j	8000430c <next_timeout+0x64>
		ret = MAX_WAIT;
800042f8:	80000537          	lui	a0,0x80000
800042fc:	fff54513          	not	a0,a0
80004300:	00c0006f          	j	8000430c <next_timeout+0x64>
80004304:	80000537          	lui	a0,0x80000
80004308:	fff54513          	not	a0,a0
	}

#ifdef CONFIG_TIMESLICING
	if (_current_cpu->slice_ticks && _current_cpu->slice_ticks < ret) {
8000430c:	800077b7          	lui	a5,0x80007
80004310:	ca078793          	addi	a5,a5,-864 # 80006ca0 <CONFIG_SYSTEM_WORKQUEUE_PRIORITY+0x80006ca1>
80004314:	0107a783          	lw	a5,16(a5)
80004318:	00078663          	beqz	a5,80004324 <next_timeout+0x7c>
8000431c:	00a7d463          	bge	a5,a0,80004324 <next_timeout+0x7c>
		ret = _current_cpu->slice_ticks;
80004320:	00078513          	mv	a0,a5
	}
#endif
	return ret;
}
80004324:	00c12083          	lw	ra,12(sp)
80004328:	00812403          	lw	s0,8(sp)
8000432c:	01010113          	addi	sp,sp,16
80004330:	00008067          	ret

80004334 <z_add_timeout>:

void z_add_timeout(struct _timeout *to, _timeout_func_t fn,
		   k_timeout_t timeout)
{
80004334:	fe010113          	addi	sp,sp,-32
80004338:	00112e23          	sw	ra,28(sp)
8000433c:	00812c23          	sw	s0,24(sp)
80004340:	00912a23          	sw	s1,20(sp)
80004344:	01212823          	sw	s2,16(sp)
80004348:	01312623          	sw	s3,12(sp)
8000434c:	01412423          	sw	s4,8(sp)
80004350:	01512223          	sw	s5,4(sp)
80004354:	00050413          	mv	s0,a0
80004358:	00060493          	mv	s1,a2
8000435c:	00068913          	mv	s2,a3
	if (K_TIMEOUT_EQ(timeout, K_FOREVER)) {
80004360:	fff00793          	li	a5,-1
80004364:	00c78a63          	beq	a5,a2,80004378 <z_add_timeout+0x44>
#ifdef CONFIG_KERNEL_COHERENCE
	__ASSERT_NO_MSG(arch_mem_coherent(to));
#endif

	__ASSERT(!sys_dnode_is_linked(&to->node), "");
	to->fn = fn;
80004368:	00b42423          	sw	a1,8(s0)

	LOCKED(&timeout_lock) {
8000436c:	00000793          	li	a5,0
	__asm__ volatile ("csrrc %0, mstatus, %1"
80004370:	300479f3          	csrrci	s3,mstatus,8
80004374:	1080006f          	j	8000447c <z_add_timeout+0x148>
	if (K_TIMEOUT_EQ(timeout, K_FOREVER)) {
80004378:	fef698e3          	bne	a3,a5,80004368 <z_add_timeout+0x34>
#else
			sys_clock_set_timeout(next_timeout(), false);
#endif	/* CONFIG_TIMESLICING */
		}
	}
}
8000437c:	01c12083          	lw	ra,28(sp)
80004380:	01812403          	lw	s0,24(sp)
80004384:	01412483          	lw	s1,20(sp)
80004388:	01012903          	lw	s2,16(sp)
8000438c:	00c12983          	lw	s3,12(sp)
80004390:	00812a03          	lw	s4,8(sp)
80004394:	00412a83          	lw	s5,4(sp)
80004398:	02010113          	addi	sp,sp,32
8000439c:	00008067          	ret
			to->dticks = MAX(1, ticks);
800043a0:	00071463          	bnez	a4,800043a8 <z_add_timeout+0x74>
800043a4:	12079463          	bnez	a5,800044cc <z_add_timeout+0x198>
800043a8:	00100793          	li	a5,1
800043ac:	00000713          	li	a4,0
800043b0:	11c0006f          	j	800044cc <z_add_timeout+0x198>
			to->dticks = timeout.ticks + 1 + elapsed();
800043b4:	00148a13          	addi	s4,s1,1
800043b8:	009a3ab3          	sltu	s5,s4,s1
800043bc:	012a8ab3          	add	s5,s5,s2
800043c0:	ebdff0ef          	jal	ra,8000427c <elapsed>
800043c4:	41f55713          	srai	a4,a0,0x1f
800043c8:	00aa07b3          	add	a5,s4,a0
800043cc:	0147ba33          	sltu	s4,a5,s4
800043d0:	00ea8ab3          	add	s5,s5,a4
800043d4:	015a0a33          	add	s4,s4,s5
800043d8:	00f42823          	sw	a5,16(s0)
800043dc:	01442a23          	sw	s4,20(s0)
800043e0:	0f40006f          	j	800044d4 <z_add_timeout+0x1a0>
			to->dticks -= t->dticks;
800043e4:	40d706b3          	sub	a3,a4,a3
800043e8:	00d73733          	sltu	a4,a4,a3
800043ec:	40c787b3          	sub	a5,a5,a2
800043f0:	40e787b3          	sub	a5,a5,a4
800043f4:	00d42823          	sw	a3,16(s0)
800043f8:	00f42a23          	sw	a5,20(s0)
		for (t = first(); t != NULL; t = next(t)) {
800043fc:	df9ff0ef          	jal	ra,800041f4 <next>
80004400:	04050863          	beqz	a0,80004450 <z_add_timeout+0x11c>
			if (t->dticks > to->dticks) {
80004404:	01052683          	lw	a3,16(a0) # 80000010 <CONFIG_SYSTEM_WORKQUEUE_PRIORITY+0x80000011>
80004408:	01452603          	lw	a2,20(a0)
8000440c:	01042703          	lw	a4,16(s0)
80004410:	01442783          	lw	a5,20(s0)
80004414:	00c7c663          	blt	a5,a2,80004420 <z_add_timeout+0xec>
80004418:	fcf616e3          	bne	a2,a5,800043e4 <z_add_timeout+0xb0>
8000441c:	fcd774e3          	bgeu	a4,a3,800043e4 <z_add_timeout+0xb0>
				t->dticks -= to->dticks;
80004420:	40e68733          	sub	a4,a3,a4
80004424:	00e6b6b3          	sltu	a3,a3,a4
80004428:	40f60633          	sub	a2,a2,a5
8000442c:	40d60633          	sub	a2,a2,a3
80004430:	00e52823          	sw	a4,16(a0)
80004434:	00c52a23          	sw	a2,20(a0)
	sys_dnode_t *const prev = successor->prev;
80004438:	00452783          	lw	a5,4(a0)
	node->prev = prev;
8000443c:	00f42223          	sw	a5,4(s0)
	node->next = successor;
80004440:	00a42023          	sw	a0,0(s0)
	prev->next = node;
80004444:	0087a023          	sw	s0,0(a5)
	successor->prev = node;
80004448:	00852223          	sw	s0,4(a0)
		if (t == NULL) {
8000444c:	01c0006f          	j	80004468 <z_add_timeout+0x134>
	sys_dnode_t *const tail = list->tail;
80004450:	80c18793          	addi	a5,gp,-2036 # 8000914c <timeout_list>
80004454:	0047a703          	lw	a4,4(a5)
	node->next = list;
80004458:	00f42023          	sw	a5,0(s0)
	node->prev = tail;
8000445c:	00e42223          	sw	a4,4(s0)
	tail->next = node;
80004460:	00872023          	sw	s0,0(a4)
	list->tail = node;
80004464:	0087a223          	sw	s0,4(a5)
		if (to == first()) {
80004468:	d75ff0ef          	jal	ra,800041dc <first>
8000446c:	06a40863          	beq	s0,a0,800044dc <z_add_timeout+0x1a8>
			  : "r" (key & MSTATUS_IEN)
80004470:	0089f793          	andi	a5,s3,8
	__asm__ volatile ("csrs mstatus, %0"
80004474:	3007a073          	csrs	mstatus,a5
	LOCKED(&timeout_lock) {
80004478:	00100793          	li	a5,1
8000447c:	f00790e3          	bnez	a5,8000437c <z_add_timeout+0x48>
		    Z_TICK_ABS(timeout.ticks) >= 0) {
80004480:	ffe00793          	li	a5,-2
80004484:	40978733          	sub	a4,a5,s1
80004488:	00e7b733          	sltu	a4,a5,a4
8000448c:	fff94793          	not	a5,s2
80004490:	40e787b3          	sub	a5,a5,a4
		if (IS_ENABLED(CONFIG_TIMEOUT_64BIT) &&
80004494:	f207c0e3          	bltz	a5,800043b4 <z_add_timeout+0x80>
			k_ticks_t ticks = Z_TICK_ABS(timeout.ticks) - curr_tick;
80004498:	80007737          	lui	a4,0x80007
8000449c:	b5072783          	lw	a5,-1200(a4) # 80006b50 <CONFIG_SYSTEM_WORKQUEUE_PRIORITY+0x80006b51>
800044a0:	b5472683          	lw	a3,-1196(a4)
800044a4:	009787b3          	add	a5,a5,s1
800044a8:	0097b733          	sltu	a4,a5,s1
800044ac:	012686b3          	add	a3,a3,s2
800044b0:	00d70733          	add	a4,a4,a3
800044b4:	ffe00693          	li	a3,-2
800044b8:	40f687b3          	sub	a5,a3,a5
800044bc:	00f6b6b3          	sltu	a3,a3,a5
800044c0:	fff74713          	not	a4,a4
			to->dticks = MAX(1, ticks);
800044c4:	40d70733          	sub	a4,a4,a3
800044c8:	ece05ce3          	blez	a4,800043a0 <z_add_timeout+0x6c>
800044cc:	00f42823          	sw	a5,16(s0)
800044d0:	00e42a23          	sw	a4,20(s0)
		for (t = first(); t != NULL; t = next(t)) {
800044d4:	d09ff0ef          	jal	ra,800041dc <first>
800044d8:	f29ff06f          	j	80004400 <z_add_timeout+0xcc>
			int32_t next_time = next_timeout();
800044dc:	dcdff0ef          	jal	ra,800042a8 <next_timeout>
			if (next_time == 0 ||
800044e0:	00050a63          	beqz	a0,800044f4 <z_add_timeout+0x1c0>
			    _current_cpu->slice_ticks != next_time) {
800044e4:	800077b7          	lui	a5,0x80007
800044e8:	ca078793          	addi	a5,a5,-864 # 80006ca0 <CONFIG_SYSTEM_WORKQUEUE_PRIORITY+0x80006ca1>
800044ec:	0107a783          	lw	a5,16(a5)
			if (next_time == 0 ||
800044f0:	f8a780e3          	beq	a5,a0,80004470 <z_add_timeout+0x13c>
				sys_clock_set_timeout(next_time, false);
800044f4:	00000593          	li	a1,0
800044f8:	ad4fe0ef          	jal	ra,800027cc <sys_clock_set_timeout>
800044fc:	f75ff06f          	j	80004470 <z_add_timeout+0x13c>

80004500 <z_abort_timeout>:

int z_abort_timeout(struct _timeout *to)
{
80004500:	ff010113          	addi	sp,sp,-16
80004504:	00112623          	sw	ra,12(sp)
80004508:	00812423          	sw	s0,8(sp)
8000450c:	00912223          	sw	s1,4(sp)
80004510:	01212023          	sw	s2,0(sp)
80004514:	00050493          	mv	s1,a0
	int ret = -EINVAL;

	LOCKED(&timeout_lock) {
80004518:	00000413          	li	s0,0
	__asm__ volatile ("csrrc %0, mstatus, %1"
8000451c:	30047973          	csrrci	s2,mstatus,8
	int ret = -EINVAL;
80004520:	fea00513          	li	a0,-22
80004524:	0100006f          	j	80004534 <z_abort_timeout+0x34>
			  : "r" (key & MSTATUS_IEN)
80004528:	00897793          	andi	a5,s2,8
	__asm__ volatile ("csrs mstatus, %0"
8000452c:	3007a073          	csrs	mstatus,a5
	LOCKED(&timeout_lock) {
80004530:	00100413          	li	s0,1
80004534:	00041e63          	bnez	s0,80004550 <z_abort_timeout+0x50>
	return node->next != NULL;
80004538:	0004a783          	lw	a5,0(s1)
		if (sys_dnode_is_linked(&to->node)) {
8000453c:	fe0786e3          	beqz	a5,80004528 <z_abort_timeout+0x28>
			remove_timeout(to);
80004540:	00048513          	mv	a0,s1
80004544:	cd1ff0ef          	jal	ra,80004214 <remove_timeout>
			ret = 0;
80004548:	00040513          	mv	a0,s0
8000454c:	fddff06f          	j	80004528 <z_abort_timeout+0x28>
		}
	}

	return ret;
}
80004550:	00c12083          	lw	ra,12(sp)
80004554:	00812403          	lw	s0,8(sp)
80004558:	00412483          	lw	s1,4(sp)
8000455c:	00012903          	lw	s2,0(sp)
80004560:	01010113          	addi	sp,sp,16
80004564:	00008067          	ret

80004568 <z_set_timeout_expiry>:
	}
	return ret;
}

void z_set_timeout_expiry(int32_t ticks, bool is_idle)
{
80004568:	fe010113          	addi	sp,sp,-32
8000456c:	00112e23          	sw	ra,28(sp)
80004570:	00812c23          	sw	s0,24(sp)
80004574:	00912a23          	sw	s1,20(sp)
80004578:	01212823          	sw	s2,16(sp)
8000457c:	01312623          	sw	s3,12(sp)
80004580:	00050493          	mv	s1,a0
80004584:	00058993          	mv	s3,a1
	LOCKED(&timeout_lock) {
80004588:	00000413          	li	s0,0
	__asm__ volatile ("csrrc %0, mstatus, %1"
8000458c:	30047973          	csrrci	s2,mstatus,8
80004590:	0240006f          	j	800045b4 <z_set_timeout_expiry+0x4c>
		int next_to = next_timeout();
		bool sooner = (next_to == K_TICKS_FOREVER)
			      || (ticks <= next_to);
80004594:	00100413          	li	s0,1
		bool sooner = (next_to == K_TICKS_FOREVER)
80004598:	00147413          	andi	s0,s0,1
		 * SMP can't use this optimization though: we don't
		 * know when context switches happen until interrupt
		 * exit and so can't get the timeslicing clamp folded
		 * in.
		 */
		if (!imminent && (sooner || IS_ENABLED(CONFIG_SMP))) {
8000459c:	00100793          	li	a5,1
800045a0:	00a7d463          	bge	a5,a0,800045a8 <z_set_timeout_expiry+0x40>
800045a4:	02041663          	bnez	s0,800045d0 <z_set_timeout_expiry+0x68>
			  : "r" (key & MSTATUS_IEN)
800045a8:	00897793          	andi	a5,s2,8
	__asm__ volatile ("csrs mstatus, %0"
800045ac:	3007a073          	csrs	mstatus,a5
	LOCKED(&timeout_lock) {
800045b0:	00100413          	li	s0,1
800045b4:	02041863          	bnez	s0,800045e4 <z_set_timeout_expiry+0x7c>
		int next_to = next_timeout();
800045b8:	cf1ff0ef          	jal	ra,800042a8 <next_timeout>
			      || (ticks <= next_to);
800045bc:	fff00793          	li	a5,-1
800045c0:	fcf50ae3          	beq	a0,a5,80004594 <z_set_timeout_expiry+0x2c>
800045c4:	fc954ae3          	blt	a0,s1,80004598 <z_set_timeout_expiry+0x30>
800045c8:	00100413          	li	s0,1
800045cc:	fcdff06f          	j	80004598 <z_set_timeout_expiry+0x30>
			sys_clock_set_timeout(MIN(ticks, next_to), is_idle);
800045d0:	00a4d463          	bge	s1,a0,800045d8 <z_set_timeout_expiry+0x70>
800045d4:	00048513          	mv	a0,s1
800045d8:	00098593          	mv	a1,s3
800045dc:	9f0fe0ef          	jal	ra,800027cc <sys_clock_set_timeout>
800045e0:	fc9ff06f          	j	800045a8 <z_set_timeout_expiry+0x40>
		}
	}
}
800045e4:	01c12083          	lw	ra,28(sp)
800045e8:	01812403          	lw	s0,24(sp)
800045ec:	01412483          	lw	s1,20(sp)
800045f0:	01012903          	lw	s2,16(sp)
800045f4:	00c12983          	lw	s3,12(sp)
800045f8:	02010113          	addi	sp,sp,32
800045fc:	00008067          	ret

80004600 <sys_clock_announce>:

void sys_clock_announce(int32_t ticks)
{
80004600:	ff010113          	addi	sp,sp,-16
80004604:	00112623          	sw	ra,12(sp)
80004608:	00812423          	sw	s0,8(sp)
8000460c:	00912223          	sw	s1,4(sp)
80004610:	01212023          	sw	s2,0(sp)
80004614:	00050413          	mv	s0,a0
#ifdef CONFIG_TIMESLICING
	z_time_slice(ticks);
80004618:	aecff0ef          	jal	ra,80003904 <z_time_slice>
	__asm__ volatile ("csrrc %0, mstatus, %1"
8000461c:	300474f3          	csrrci	s1,mstatus,8
		announce_remaining += ticks;
		k_spin_unlock(&timeout_lock, key);
		return;
	}

	announce_remaining = ticks;
80004620:	800077b7          	lui	a5,0x80007
80004624:	b687ac23          	sw	s0,-1160(a5) # 80006b78 <CONFIG_SYSTEM_WORKQUEUE_PRIORITY+0x80006b79>

	while (first() != NULL && first()->dticks <= announce_remaining) {
80004628:	06c0006f          	j	80004694 <sys_clock_announce+0x94>
		struct _timeout *t = first();
		int dt = t->dticks;

		curr_tick += dt;
8000462c:	80007737          	lui	a4,0x80007
80004630:	41f95593          	srai	a1,s2,0x1f
80004634:	b5072783          	lw	a5,-1200(a4) # 80006b50 <CONFIG_SYSTEM_WORKQUEUE_PRIORITY+0x80006b51>
80004638:	b5472683          	lw	a3,-1196(a4)
8000463c:	01278633          	add	a2,a5,s2
80004640:	00f637b3          	sltu	a5,a2,a5
80004644:	00b686b3          	add	a3,a3,a1
80004648:	00d787b3          	add	a5,a5,a3
8000464c:	b4c72823          	sw	a2,-1200(a4)
80004650:	b4f72a23          	sw	a5,-1196(a4)
		t->dticks = 0;
80004654:	00000793          	li	a5,0
80004658:	00000813          	li	a6,0
8000465c:	00f42823          	sw	a5,16(s0)
80004660:	01042a23          	sw	a6,20(s0)
		remove_timeout(t);
80004664:	00040513          	mv	a0,s0
80004668:	badff0ef          	jal	ra,80004214 <remove_timeout>
			  : "r" (key & MSTATUS_IEN)
8000466c:	0084f493          	andi	s1,s1,8
	__asm__ volatile ("csrs mstatus, %0"
80004670:	3004a073          	csrs	mstatus,s1

		k_spin_unlock(&timeout_lock, key);
		t->fn(t);
80004674:	00842783          	lw	a5,8(s0)
80004678:	00040513          	mv	a0,s0
8000467c:	000780e7          	jalr	a5
	__asm__ volatile ("csrrc %0, mstatus, %1"
80004680:	300474f3          	csrrci	s1,mstatus,8
		key = k_spin_lock(&timeout_lock);
		announce_remaining -= dt;
80004684:	80007737          	lui	a4,0x80007
80004688:	b7872783          	lw	a5,-1160(a4) # 80006b78 <CONFIG_SYSTEM_WORKQUEUE_PRIORITY+0x80006b79>
8000468c:	412787b3          	sub	a5,a5,s2
80004690:	b6f72c23          	sw	a5,-1160(a4)
	while (first() != NULL && first()->dticks <= announce_remaining) {
80004694:	b49ff0ef          	jal	ra,800041dc <first>
80004698:	00050413          	mv	s0,a0
8000469c:	02050263          	beqz	a0,800046c0 <sys_clock_announce+0xc0>
800046a0:	01052903          	lw	s2,16(a0)
800046a4:	01452703          	lw	a4,20(a0)
800046a8:	800077b7          	lui	a5,0x80007
800046ac:	b787a683          	lw	a3,-1160(a5) # 80006b78 <CONFIG_SYSTEM_WORKQUEUE_PRIORITY+0x80006b79>
800046b0:	41f6d793          	srai	a5,a3,0x1f
800046b4:	00e7c663          	blt	a5,a4,800046c0 <sys_clock_announce+0xc0>
800046b8:	f6f71ae3          	bne	a4,a5,8000462c <sys_clock_announce+0x2c>
800046bc:	f726f8e3          	bgeu	a3,s2,8000462c <sys_clock_announce+0x2c>
	}

	if (first() != NULL) {
800046c0:	02040863          	beqz	s0,800046f0 <sys_clock_announce+0xf0>
		first()->dticks -= announce_remaining;
800046c4:	01042683          	lw	a3,16(s0)
800046c8:	01442783          	lw	a5,20(s0)
800046cc:	80007737          	lui	a4,0x80007
800046d0:	b7872703          	lw	a4,-1160(a4) # 80006b78 <CONFIG_SYSTEM_WORKQUEUE_PRIORITY+0x80006b79>
800046d4:	41f75613          	srai	a2,a4,0x1f
800046d8:	40e68733          	sub	a4,a3,a4
800046dc:	00e6b6b3          	sltu	a3,a3,a4
800046e0:	40c787b3          	sub	a5,a5,a2
800046e4:	40d787b3          	sub	a5,a5,a3
800046e8:	00e42823          	sw	a4,16(s0)
800046ec:	00f42a23          	sw	a5,20(s0)
	}

	curr_tick += announce_remaining;
800046f0:	800076b7          	lui	a3,0x80007
800046f4:	800075b7          	lui	a1,0x80007
800046f8:	b785a703          	lw	a4,-1160(a1) # 80006b78 <CONFIG_SYSTEM_WORKQUEUE_PRIORITY+0x80006b79>
800046fc:	41f75513          	srai	a0,a4,0x1f
80004700:	b506a783          	lw	a5,-1200(a3) # 80006b50 <CONFIG_SYSTEM_WORKQUEUE_PRIORITY+0x80006b51>
80004704:	b546a603          	lw	a2,-1196(a3)
80004708:	00e78733          	add	a4,a5,a4
8000470c:	00f737b3          	sltu	a5,a4,a5
80004710:	00a60633          	add	a2,a2,a0
80004714:	00c787b3          	add	a5,a5,a2
80004718:	b4e6a823          	sw	a4,-1200(a3)
8000471c:	b4f6aa23          	sw	a5,-1196(a3)
	announce_remaining = 0;
80004720:	b605ac23          	sw	zero,-1160(a1)

	sys_clock_set_timeout(next_timeout(), false);
80004724:	b85ff0ef          	jal	ra,800042a8 <next_timeout>
80004728:	00000593          	li	a1,0
8000472c:	8a0fe0ef          	jal	ra,800027cc <sys_clock_set_timeout>
			  : "r" (key & MSTATUS_IEN)
80004730:	0084f493          	andi	s1,s1,8
	__asm__ volatile ("csrs mstatus, %0"
80004734:	3004a073          	csrs	mstatus,s1

	k_spin_unlock(&timeout_lock, key);
}
80004738:	00c12083          	lw	ra,12(sp)
8000473c:	00812403          	lw	s0,8(sp)
80004740:	00412483          	lw	s1,4(sp)
80004744:	00012903          	lw	s2,0(sp)
80004748:	01010113          	addi	sp,sp,16
8000474c:	00008067          	ret

80004750 <boot_banner>:
#define BOOT_DELAY_BANNER ""
#endif

#if defined(CONFIG_BOOT_DELAY) || CONFIG_BOOT_DELAY > 0
void boot_banner(void)
{
80004750:	ff010113          	addi	sp,sp,-16
80004754:	00112623          	sw	ra,12(sp)
		k_busy_wait(CONFIG_BOOT_DELAY * USEC_PER_MSEC);
	}

#if defined(CONFIG_BOOT_BANNER)
#ifdef BUILD_VERSION
	printk("*** Booting Zephyr OS build %s %s ***\n",
80004758:	80007637          	lui	a2,0x80007
8000475c:	ad860613          	addi	a2,a2,-1320 # 80006ad8 <CONFIG_SYSTEM_WORKQUEUE_PRIORITY+0x80006ad9>
80004760:	800075b7          	lui	a1,0x80007
80004764:	90858593          	addi	a1,a1,-1784 # 80006908 <CONFIG_SYSTEM_WORKQUEUE_PRIORITY+0x80006909>
80004768:	80007537          	lui	a0,0x80007
8000476c:	92850513          	addi	a0,a0,-1752 # 80006928 <CONFIG_SYSTEM_WORKQUEUE_PRIORITY+0x80006929>
80004770:	b2cfc0ef          	jal	ra,80000a9c <printk>
#else
	printk("*** Booting Zephyr OS version %s %s ***\n",
	       KERNEL_VERSION_STRING, BOOT_DELAY_BANNER);
#endif
#endif
}
80004774:	00c12083          	lw	ra,12(sp)
80004778:	01010113          	addi	sp,sp,16
8000477c:	00008067          	ret

80004780 <_OffsetAbsSyms>:
GEN_SOC_OFFSET_SYMS();
#endif

GEN_ABSOLUTE_SYM(__z_arch_esf_t_SIZEOF, sizeof(z_arch_esf_t));

GEN_ABS_SYM_END
80004780:	00008067          	ret

80004784 <malloc>:
80004784:	00050593          	mv	a1,a0
80004788:	8141a503          	lw	a0,-2028(gp) # 80009154 <_impure_ptr>
8000478c:	1000006f          	j	8000488c <_malloc_r>

80004790 <_free_r>:
80004790:	0e058c63          	beqz	a1,80004888 <_free_r+0xf8>
80004794:	ffc5a783          	lw	a5,-4(a1)
80004798:	fe010113          	addi	sp,sp,-32
8000479c:	00812c23          	sw	s0,24(sp)
800047a0:	00112e23          	sw	ra,28(sp)
800047a4:	ffc58413          	addi	s0,a1,-4
800047a8:	0007d463          	bgez	a5,800047b0 <_free_r+0x20>
800047ac:	00f40433          	add	s0,s0,a5
800047b0:	00a12623          	sw	a0,12(sp)
800047b4:	6a8000ef          	jal	ra,80004e5c <__malloc_lock>
800047b8:	80007737          	lui	a4,0x80007
800047bc:	b8072783          	lw	a5,-1152(a4) # 80006b80 <CONFIG_SYSTEM_WORKQUEUE_PRIORITY+0x80006b81>
800047c0:	00c12503          	lw	a0,12(sp)
800047c4:	00079e63          	bnez	a5,800047e0 <_free_r+0x50>
800047c8:	00042223          	sw	zero,4(s0)
800047cc:	b8872023          	sw	s0,-1152(a4)
800047d0:	01812403          	lw	s0,24(sp)
800047d4:	01c12083          	lw	ra,28(sp)
800047d8:	02010113          	addi	sp,sp,32
800047dc:	68c0006f          	j	80004e68 <__malloc_unlock>
800047e0:	02f47463          	bgeu	s0,a5,80004808 <_free_r+0x78>
800047e4:	00042603          	lw	a2,0(s0)
800047e8:	00c406b3          	add	a3,s0,a2
800047ec:	00d79a63          	bne	a5,a3,80004800 <_free_r+0x70>
800047f0:	0007a683          	lw	a3,0(a5)
800047f4:	0047a783          	lw	a5,4(a5)
800047f8:	00c686b3          	add	a3,a3,a2
800047fc:	00d42023          	sw	a3,0(s0)
80004800:	00f42223          	sw	a5,4(s0)
80004804:	fc9ff06f          	j	800047cc <_free_r+0x3c>
80004808:	00078713          	mv	a4,a5
8000480c:	0047a783          	lw	a5,4(a5)
80004810:	00078463          	beqz	a5,80004818 <_free_r+0x88>
80004814:	fef47ae3          	bgeu	s0,a5,80004808 <_free_r+0x78>
80004818:	00072683          	lw	a3,0(a4)
8000481c:	00d70633          	add	a2,a4,a3
80004820:	02861863          	bne	a2,s0,80004850 <_free_r+0xc0>
80004824:	00042603          	lw	a2,0(s0)
80004828:	00c686b3          	add	a3,a3,a2
8000482c:	00d72023          	sw	a3,0(a4)
80004830:	00d70633          	add	a2,a4,a3
80004834:	f8c79ee3          	bne	a5,a2,800047d0 <_free_r+0x40>
80004838:	0007a603          	lw	a2,0(a5)
8000483c:	0047a783          	lw	a5,4(a5)
80004840:	00d606b3          	add	a3,a2,a3
80004844:	00d72023          	sw	a3,0(a4)
80004848:	00f72223          	sw	a5,4(a4)
8000484c:	f85ff06f          	j	800047d0 <_free_r+0x40>
80004850:	00c47863          	bgeu	s0,a2,80004860 <_free_r+0xd0>
80004854:	00c00793          	li	a5,12
80004858:	00f52023          	sw	a5,0(a0)
8000485c:	f75ff06f          	j	800047d0 <_free_r+0x40>
80004860:	00042603          	lw	a2,0(s0)
80004864:	00c406b3          	add	a3,s0,a2
80004868:	00d79a63          	bne	a5,a3,8000487c <_free_r+0xec>
8000486c:	0007a683          	lw	a3,0(a5)
80004870:	0047a783          	lw	a5,4(a5)
80004874:	00c686b3          	add	a3,a3,a2
80004878:	00d42023          	sw	a3,0(s0)
8000487c:	00f42223          	sw	a5,4(s0)
80004880:	00872223          	sw	s0,4(a4)
80004884:	f4dff06f          	j	800047d0 <_free_r+0x40>
80004888:	00008067          	ret

8000488c <_malloc_r>:
8000488c:	fe010113          	addi	sp,sp,-32
80004890:	00912a23          	sw	s1,20(sp)
80004894:	00358493          	addi	s1,a1,3
80004898:	ffc4f493          	andi	s1,s1,-4
8000489c:	01212823          	sw	s2,16(sp)
800048a0:	00112e23          	sw	ra,28(sp)
800048a4:	00812c23          	sw	s0,24(sp)
800048a8:	01312623          	sw	s3,12(sp)
800048ac:	00848493          	addi	s1,s1,8
800048b0:	00c00793          	li	a5,12
800048b4:	00050913          	mv	s2,a0
800048b8:	06f4f463          	bgeu	s1,a5,80004920 <_malloc_r+0x94>
800048bc:	00c00493          	li	s1,12
800048c0:	06b4e263          	bltu	s1,a1,80004924 <_malloc_r+0x98>
800048c4:	00090513          	mv	a0,s2
800048c8:	594000ef          	jal	ra,80004e5c <__malloc_lock>
800048cc:	800076b7          	lui	a3,0x80007
800048d0:	b806a703          	lw	a4,-1152(a3) # 80006b80 <CONFIG_SYSTEM_WORKQUEUE_PRIORITY+0x80006b81>
800048d4:	00070413          	mv	s0,a4
800048d8:	06041a63          	bnez	s0,8000494c <_malloc_r+0xc0>
800048dc:	80007437          	lui	s0,0x80007
800048e0:	b7c42783          	lw	a5,-1156(s0) # 80006b7c <CONFIG_SYSTEM_WORKQUEUE_PRIORITY+0x80006b7d>
800048e4:	00079a63          	bnez	a5,800048f8 <_malloc_r+0x6c>
800048e8:	00000593          	li	a1,0
800048ec:	00090513          	mv	a0,s2
800048f0:	158000ef          	jal	ra,80004a48 <_sbrk_r>
800048f4:	b6a42e23          	sw	a0,-1156(s0)
800048f8:	00048593          	mv	a1,s1
800048fc:	00090513          	mv	a0,s2
80004900:	148000ef          	jal	ra,80004a48 <_sbrk_r>
80004904:	fff00993          	li	s3,-1
80004908:	0b351a63          	bne	a0,s3,800049bc <_malloc_r+0x130>
8000490c:	00c00793          	li	a5,12
80004910:	00f92023          	sw	a5,0(s2)
80004914:	00090513          	mv	a0,s2
80004918:	550000ef          	jal	ra,80004e68 <__malloc_unlock>
8000491c:	0100006f          	j	8000492c <_malloc_r+0xa0>
80004920:	fa04d0e3          	bgez	s1,800048c0 <_malloc_r+0x34>
80004924:	00c00793          	li	a5,12
80004928:	00f92023          	sw	a5,0(s2)
8000492c:	00000513          	li	a0,0
80004930:	01c12083          	lw	ra,28(sp)
80004934:	01812403          	lw	s0,24(sp)
80004938:	01412483          	lw	s1,20(sp)
8000493c:	01012903          	lw	s2,16(sp)
80004940:	00c12983          	lw	s3,12(sp)
80004944:	02010113          	addi	sp,sp,32
80004948:	00008067          	ret
8000494c:	00042783          	lw	a5,0(s0)
80004950:	409787b3          	sub	a5,a5,s1
80004954:	0407ce63          	bltz	a5,800049b0 <_malloc_r+0x124>
80004958:	00b00613          	li	a2,11
8000495c:	00f67a63          	bgeu	a2,a5,80004970 <_malloc_r+0xe4>
80004960:	00f42023          	sw	a5,0(s0)
80004964:	00f40433          	add	s0,s0,a5
80004968:	00942023          	sw	s1,0(s0)
8000496c:	0100006f          	j	8000497c <_malloc_r+0xf0>
80004970:	00442783          	lw	a5,4(s0)
80004974:	02871a63          	bne	a4,s0,800049a8 <_malloc_r+0x11c>
80004978:	b8f6a023          	sw	a5,-1152(a3)
8000497c:	00090513          	mv	a0,s2
80004980:	4e8000ef          	jal	ra,80004e68 <__malloc_unlock>
80004984:	00b40513          	addi	a0,s0,11
80004988:	00440793          	addi	a5,s0,4
8000498c:	ff857513          	andi	a0,a0,-8
80004990:	40f50733          	sub	a4,a0,a5
80004994:	f8f50ee3          	beq	a0,a5,80004930 <_malloc_r+0xa4>
80004998:	00e40433          	add	s0,s0,a4
8000499c:	40a787b3          	sub	a5,a5,a0
800049a0:	00f42023          	sw	a5,0(s0)
800049a4:	f8dff06f          	j	80004930 <_malloc_r+0xa4>
800049a8:	00f72223          	sw	a5,4(a4)
800049ac:	fd1ff06f          	j	8000497c <_malloc_r+0xf0>
800049b0:	00040713          	mv	a4,s0
800049b4:	00442403          	lw	s0,4(s0)
800049b8:	f21ff06f          	j	800048d8 <_malloc_r+0x4c>
800049bc:	00350413          	addi	s0,a0,3
800049c0:	ffc47413          	andi	s0,s0,-4
800049c4:	fa8502e3          	beq	a0,s0,80004968 <_malloc_r+0xdc>
800049c8:	40a405b3          	sub	a1,s0,a0
800049cc:	00090513          	mv	a0,s2
800049d0:	078000ef          	jal	ra,80004a48 <_sbrk_r>
800049d4:	f9351ae3          	bne	a0,s3,80004968 <_malloc_r+0xdc>
800049d8:	f35ff06f          	j	8000490c <_malloc_r+0x80>

800049dc <iprintf>:
800049dc:	fb010113          	addi	sp,sp,-80
800049e0:	04f12223          	sw	a5,68(sp)
800049e4:	02812423          	sw	s0,40(sp)
800049e8:	00050413          	mv	s0,a0
800049ec:	8141a503          	lw	a0,-2028(gp) # 80009154 <_impure_ptr>
800049f0:	02112623          	sw	ra,44(sp)
800049f4:	02b12a23          	sw	a1,52(sp)
800049f8:	02c12c23          	sw	a2,56(sp)
800049fc:	02d12e23          	sw	a3,60(sp)
80004a00:	04e12023          	sw	a4,64(sp)
80004a04:	05012423          	sw	a6,72(sp)
80004a08:	05112623          	sw	a7,76(sp)
80004a0c:	00050c63          	beqz	a0,80004a24 <iprintf+0x48>
80004a10:	01852783          	lw	a5,24(a0)
80004a14:	00079863          	bnez	a5,80004a24 <iprintf+0x48>
80004a18:	00a12623          	sw	a0,12(sp)
80004a1c:	1d8000ef          	jal	ra,80004bf4 <__sinit>
80004a20:	00c12503          	lw	a0,12(sp)
80004a24:	00852583          	lw	a1,8(a0)
80004a28:	03410693          	addi	a3,sp,52
80004a2c:	00040613          	mv	a2,s0
80004a30:	00d12e23          	sw	a3,28(sp)
80004a34:	4f0000ef          	jal	ra,80004f24 <_vfiprintf_r>
80004a38:	02c12083          	lw	ra,44(sp)
80004a3c:	02812403          	lw	s0,40(sp)
80004a40:	05010113          	addi	sp,sp,80
80004a44:	00008067          	ret

80004a48 <_sbrk_r>:
80004a48:	ff010113          	addi	sp,sp,-16
80004a4c:	00812423          	sw	s0,8(sp)
80004a50:	00912223          	sw	s1,4(sp)
80004a54:	00050413          	mv	s0,a0
80004a58:	800074b7          	lui	s1,0x80007
80004a5c:	00058513          	mv	a0,a1
80004a60:	00112623          	sw	ra,12(sp)
80004a64:	b804a223          	sw	zero,-1148(s1) # 80006b84 <CONFIG_SYSTEM_WORKQUEUE_PRIORITY+0x80006b85>
80004a68:	db0fd0ef          	jal	ra,80002018 <_sbrk>
80004a6c:	fff00793          	li	a5,-1
80004a70:	00f51863          	bne	a0,a5,80004a80 <_sbrk_r+0x38>
80004a74:	b844a783          	lw	a5,-1148(s1)
80004a78:	00078463          	beqz	a5,80004a80 <_sbrk_r+0x38>
80004a7c:	00f42023          	sw	a5,0(s0)
80004a80:	00c12083          	lw	ra,12(sp)
80004a84:	00812403          	lw	s0,8(sp)
80004a88:	00412483          	lw	s1,4(sp)
80004a8c:	01010113          	addi	sp,sp,16
80004a90:	00008067          	ret

80004a94 <strlen>:
80004a94:	00050793          	mv	a5,a0
80004a98:	0007c703          	lbu	a4,0(a5)
80004a9c:	00178793          	addi	a5,a5,1
80004aa0:	fe071ce3          	bnez	a4,80004a98 <strlen+0x4>
80004aa4:	40a78533          	sub	a0,a5,a0
80004aa8:	fff50513          	addi	a0,a0,-1
80004aac:	00008067          	ret

80004ab0 <strnlen>:
80004ab0:	00b505b3          	add	a1,a0,a1
80004ab4:	00050793          	mv	a5,a0
80004ab8:	00b78663          	beq	a5,a1,80004ac4 <strnlen+0x14>
80004abc:	0007c703          	lbu	a4,0(a5)
80004ac0:	00071663          	bnez	a4,80004acc <strnlen+0x1c>
80004ac4:	40a78533          	sub	a0,a5,a0
80004ac8:	00008067          	ret
80004acc:	00178793          	addi	a5,a5,1
80004ad0:	fe9ff06f          	j	80004ab8 <strnlen+0x8>

80004ad4 <std>:
80004ad4:	ff010113          	addi	sp,sp,-16
80004ad8:	00812423          	sw	s0,8(sp)
80004adc:	00112623          	sw	ra,12(sp)
80004ae0:	00050413          	mv	s0,a0
80004ae4:	00b51623          	sh	a1,12(a0)
80004ae8:	00c51723          	sh	a2,14(a0)
80004aec:	00052023          	sw	zero,0(a0)
80004af0:	00052223          	sw	zero,4(a0)
80004af4:	00052423          	sw	zero,8(a0)
80004af8:	06052223          	sw	zero,100(a0)
80004afc:	00052823          	sw	zero,16(a0)
80004b00:	00052a23          	sw	zero,20(a0)
80004b04:	00052c23          	sw	zero,24(a0)
80004b08:	00800613          	li	a2,8
80004b0c:	00000593          	li	a1,0
80004b10:	05c50513          	addi	a0,a0,92
80004b14:	ee5fb0ef          	jal	ra,800009f8 <memset>
80004b18:	800067b7          	lui	a5,0x80006
80004b1c:	8c478793          	addi	a5,a5,-1852 # 800058c4 <CONFIG_SYSTEM_WORKQUEUE_PRIORITY+0x800058c5>
80004b20:	02f42223          	sw	a5,36(s0)
80004b24:	800067b7          	lui	a5,0x80006
80004b28:	91478793          	addi	a5,a5,-1772 # 80005914 <CONFIG_SYSTEM_WORKQUEUE_PRIORITY+0x80005915>
80004b2c:	02f42423          	sw	a5,40(s0)
80004b30:	800067b7          	lui	a5,0x80006
80004b34:	99878793          	addi	a5,a5,-1640 # 80005998 <CONFIG_SYSTEM_WORKQUEUE_PRIORITY+0x80005999>
80004b38:	02f42623          	sw	a5,44(s0)
80004b3c:	800067b7          	lui	a5,0x80006
80004b40:	9f078793          	addi	a5,a5,-1552 # 800059f0 <CONFIG_SYSTEM_WORKQUEUE_PRIORITY+0x800059f1>
80004b44:	00c12083          	lw	ra,12(sp)
80004b48:	02842023          	sw	s0,32(s0)
80004b4c:	02f42823          	sw	a5,48(s0)
80004b50:	00812403          	lw	s0,8(sp)
80004b54:	01010113          	addi	sp,sp,16
80004b58:	00008067          	ret

80004b5c <_cleanup_r>:
80004b5c:	800065b7          	lui	a1,0x80006
80004b60:	f1c58593          	addi	a1,a1,-228 # 80005f1c <CONFIG_SYSTEM_WORKQUEUE_PRIORITY+0x80005f1d>
80004b64:	2480006f          	j	80004dac <_fwalk_reent>

80004b68 <__sfmoreglue>:
80004b68:	ff010113          	addi	sp,sp,-16
80004b6c:	00912223          	sw	s1,4(sp)
80004b70:	06800793          	li	a5,104
80004b74:	fff58493          	addi	s1,a1,-1
80004b78:	02f484b3          	mul	s1,s1,a5
80004b7c:	01212023          	sw	s2,0(sp)
80004b80:	00058913          	mv	s2,a1
80004b84:	00812423          	sw	s0,8(sp)
80004b88:	00112623          	sw	ra,12(sp)
80004b8c:	07448593          	addi	a1,s1,116
80004b90:	cfdff0ef          	jal	ra,8000488c <_malloc_r>
80004b94:	00050413          	mv	s0,a0
80004b98:	02050063          	beqz	a0,80004bb8 <__sfmoreglue+0x50>
80004b9c:	00052023          	sw	zero,0(a0)
80004ba0:	01252223          	sw	s2,4(a0)
80004ba4:	00c50513          	addi	a0,a0,12
80004ba8:	00a42423          	sw	a0,8(s0)
80004bac:	06848613          	addi	a2,s1,104
80004bb0:	00000593          	li	a1,0
80004bb4:	e45fb0ef          	jal	ra,800009f8 <memset>
80004bb8:	00c12083          	lw	ra,12(sp)
80004bbc:	00040513          	mv	a0,s0
80004bc0:	00812403          	lw	s0,8(sp)
80004bc4:	00412483          	lw	s1,4(sp)
80004bc8:	00012903          	lw	s2,0(sp)
80004bcc:	01010113          	addi	sp,sp,16
80004bd0:	00008067          	ret

80004bd4 <__sfp_lock_acquire>:
80004bd4:	83018513          	addi	a0,gp,-2000 # 80009170 <__lock___sfp_recursive_mutex>
80004bd8:	ca8fd06f          	j	80002080 <__retarget_lock_acquire_recursive>

80004bdc <__sfp_lock_release>:
80004bdc:	83018513          	addi	a0,gp,-2000 # 80009170 <__lock___sfp_recursive_mutex>
80004be0:	cc0fd06f          	j	800020a0 <__retarget_lock_release_recursive>

80004be4 <__sinit_lock_acquire>:
80004be4:	84418513          	addi	a0,gp,-1980 # 80009184 <__lock___sinit_recursive_mutex>
80004be8:	c98fd06f          	j	80002080 <__retarget_lock_acquire_recursive>

80004bec <__sinit_lock_release>:
80004bec:	84418513          	addi	a0,gp,-1980 # 80009184 <__lock___sinit_recursive_mutex>
80004bf0:	cb0fd06f          	j	800020a0 <__retarget_lock_release_recursive>

80004bf4 <__sinit>:
80004bf4:	ff010113          	addi	sp,sp,-16
80004bf8:	00812423          	sw	s0,8(sp)
80004bfc:	00112623          	sw	ra,12(sp)
80004c00:	00050413          	mv	s0,a0
80004c04:	fe1ff0ef          	jal	ra,80004be4 <__sinit_lock_acquire>
80004c08:	01842783          	lw	a5,24(s0)
80004c0c:	00078a63          	beqz	a5,80004c20 <__sinit+0x2c>
80004c10:	00812403          	lw	s0,8(sp)
80004c14:	00c12083          	lw	ra,12(sp)
80004c18:	01010113          	addi	sp,sp,16
80004c1c:	fd1ff06f          	j	80004bec <__sinit_lock_release>
80004c20:	800057b7          	lui	a5,0x80005
80004c24:	b5c78793          	addi	a5,a5,-1188 # 80004b5c <CONFIG_SYSTEM_WORKQUEUE_PRIORITY+0x80004b5d>
80004c28:	02f42423          	sw	a5,40(s0)
80004c2c:	800067b7          	lui	a5,0x80006
80004c30:	5307a783          	lw	a5,1328(a5) # 80006530 <CONFIG_SYSTEM_WORKQUEUE_PRIORITY+0x80006531>
80004c34:	04042423          	sw	zero,72(s0)
80004c38:	04042623          	sw	zero,76(s0)
80004c3c:	04042823          	sw	zero,80(s0)
80004c40:	00879663          	bne	a5,s0,80004c4c <__sinit+0x58>
80004c44:	00100793          	li	a5,1
80004c48:	00f42c23          	sw	a5,24(s0)
80004c4c:	00040513          	mv	a0,s0
80004c50:	05c000ef          	jal	ra,80004cac <__sfp>
80004c54:	00a42223          	sw	a0,4(s0)
80004c58:	00040513          	mv	a0,s0
80004c5c:	050000ef          	jal	ra,80004cac <__sfp>
80004c60:	00a42423          	sw	a0,8(s0)
80004c64:	00040513          	mv	a0,s0
80004c68:	044000ef          	jal	ra,80004cac <__sfp>
80004c6c:	00a42623          	sw	a0,12(s0)
80004c70:	00442503          	lw	a0,4(s0)
80004c74:	00000613          	li	a2,0
80004c78:	00400593          	li	a1,4
80004c7c:	e59ff0ef          	jal	ra,80004ad4 <std>
80004c80:	00842503          	lw	a0,8(s0)
80004c84:	00100613          	li	a2,1
80004c88:	00900593          	li	a1,9
80004c8c:	e49ff0ef          	jal	ra,80004ad4 <std>
80004c90:	00c42503          	lw	a0,12(s0)
80004c94:	00200613          	li	a2,2
80004c98:	01200593          	li	a1,18
80004c9c:	e39ff0ef          	jal	ra,80004ad4 <std>
80004ca0:	00100793          	li	a5,1
80004ca4:	00f42c23          	sw	a5,24(s0)
80004ca8:	f69ff06f          	j	80004c10 <__sinit+0x1c>

80004cac <__sfp>:
80004cac:	ff010113          	addi	sp,sp,-16
80004cb0:	00912223          	sw	s1,4(sp)
80004cb4:	01212023          	sw	s2,0(sp)
80004cb8:	00112623          	sw	ra,12(sp)
80004cbc:	00812423          	sw	s0,8(sp)
80004cc0:	00050913          	mv	s2,a0
80004cc4:	f11ff0ef          	jal	ra,80004bd4 <__sfp_lock_acquire>
80004cc8:	800067b7          	lui	a5,0x80006
80004ccc:	5307a483          	lw	s1,1328(a5) # 80006530 <CONFIG_SYSTEM_WORKQUEUE_PRIORITY+0x80006531>
80004cd0:	0184a783          	lw	a5,24(s1)
80004cd4:	00079663          	bnez	a5,80004ce0 <__sfp+0x34>
80004cd8:	00048513          	mv	a0,s1
80004cdc:	f19ff0ef          	jal	ra,80004bf4 <__sinit>
80004ce0:	04848493          	addi	s1,s1,72
80004ce4:	0084a403          	lw	s0,8(s1)
80004ce8:	0044a783          	lw	a5,4(s1)
80004cec:	fff78793          	addi	a5,a5,-1
80004cf0:	0007da63          	bgez	a5,80004d04 <__sfp+0x58>
80004cf4:	0004a783          	lw	a5,0(s1)
80004cf8:	08078663          	beqz	a5,80004d84 <__sfp+0xd8>
80004cfc:	0004a483          	lw	s1,0(s1)
80004d00:	fe5ff06f          	j	80004ce4 <__sfp+0x38>
80004d04:	00c41703          	lh	a4,12(s0)
80004d08:	06071a63          	bnez	a4,80004d7c <__sfp+0xd0>
80004d0c:	ffff07b7          	lui	a5,0xffff0
80004d10:	00178793          	addi	a5,a5,1 # ffff0001 <CONFIG_SYSTEM_WORKQUEUE_PRIORITY+0xffff0002>
80004d14:	00f42623          	sw	a5,12(s0)
80004d18:	05840513          	addi	a0,s0,88
80004d1c:	06042223          	sw	zero,100(s0)
80004d20:	b30fd0ef          	jal	ra,80002050 <__retarget_lock_init_recursive>
80004d24:	eb9ff0ef          	jal	ra,80004bdc <__sfp_lock_release>
80004d28:	00800613          	li	a2,8
80004d2c:	00042023          	sw	zero,0(s0)
80004d30:	00042423          	sw	zero,8(s0)
80004d34:	00042223          	sw	zero,4(s0)
80004d38:	00042823          	sw	zero,16(s0)
80004d3c:	00042a23          	sw	zero,20(s0)
80004d40:	00042c23          	sw	zero,24(s0)
80004d44:	00000593          	li	a1,0
80004d48:	05c40513          	addi	a0,s0,92
80004d4c:	cadfb0ef          	jal	ra,800009f8 <memset>
80004d50:	02042a23          	sw	zero,52(s0)
80004d54:	02042c23          	sw	zero,56(s0)
80004d58:	04042423          	sw	zero,72(s0)
80004d5c:	04042623          	sw	zero,76(s0)
80004d60:	00c12083          	lw	ra,12(sp)
80004d64:	00040513          	mv	a0,s0
80004d68:	00812403          	lw	s0,8(sp)
80004d6c:	00412483          	lw	s1,4(sp)
80004d70:	00012903          	lw	s2,0(sp)
80004d74:	01010113          	addi	sp,sp,16
80004d78:	00008067          	ret
80004d7c:	06840413          	addi	s0,s0,104
80004d80:	f6dff06f          	j	80004cec <__sfp+0x40>
80004d84:	00400593          	li	a1,4
80004d88:	00090513          	mv	a0,s2
80004d8c:	dddff0ef          	jal	ra,80004b68 <__sfmoreglue>
80004d90:	00a4a023          	sw	a0,0(s1)
80004d94:	00050413          	mv	s0,a0
80004d98:	f60512e3          	bnez	a0,80004cfc <__sfp+0x50>
80004d9c:	e41ff0ef          	jal	ra,80004bdc <__sfp_lock_release>
80004da0:	00c00793          	li	a5,12
80004da4:	00f92023          	sw	a5,0(s2)
80004da8:	fb9ff06f          	j	80004d60 <__sfp+0xb4>

80004dac <_fwalk_reent>:
80004dac:	fd010113          	addi	sp,sp,-48
80004db0:	02812423          	sw	s0,40(sp)
80004db4:	03212023          	sw	s2,32(sp)
80004db8:	01312e23          	sw	s3,28(sp)
80004dbc:	01412c23          	sw	s4,24(sp)
80004dc0:	01612823          	sw	s6,16(sp)
80004dc4:	01712623          	sw	s7,12(sp)
80004dc8:	02112623          	sw	ra,44(sp)
80004dcc:	02912223          	sw	s1,36(sp)
80004dd0:	01512a23          	sw	s5,20(sp)
80004dd4:	00050913          	mv	s2,a0
80004dd8:	00058a13          	mv	s4,a1
80004ddc:	04850413          	addi	s0,a0,72
80004de0:	00000993          	li	s3,0
80004de4:	00100b13          	li	s6,1
80004de8:	fff00b93          	li	s7,-1
80004dec:	00842483          	lw	s1,8(s0)
80004df0:	00442a83          	lw	s5,4(s0)
80004df4:	fffa8a93          	addi	s5,s5,-1
80004df8:	020ade63          	bgez	s5,80004e34 <_fwalk_reent+0x88>
80004dfc:	00042403          	lw	s0,0(s0)
80004e00:	fe0416e3          	bnez	s0,80004dec <_fwalk_reent+0x40>
80004e04:	02c12083          	lw	ra,44(sp)
80004e08:	02812403          	lw	s0,40(sp)
80004e0c:	02412483          	lw	s1,36(sp)
80004e10:	02012903          	lw	s2,32(sp)
80004e14:	01812a03          	lw	s4,24(sp)
80004e18:	01412a83          	lw	s5,20(sp)
80004e1c:	01012b03          	lw	s6,16(sp)
80004e20:	00c12b83          	lw	s7,12(sp)
80004e24:	00098513          	mv	a0,s3
80004e28:	01c12983          	lw	s3,28(sp)
80004e2c:	03010113          	addi	sp,sp,48
80004e30:	00008067          	ret
80004e34:	00c4d783          	lhu	a5,12(s1)
80004e38:	00fb7e63          	bgeu	s6,a5,80004e54 <_fwalk_reent+0xa8>
80004e3c:	00e49783          	lh	a5,14(s1)
80004e40:	01778a63          	beq	a5,s7,80004e54 <_fwalk_reent+0xa8>
80004e44:	00048593          	mv	a1,s1
80004e48:	00090513          	mv	a0,s2
80004e4c:	000a00e7          	jalr	s4
80004e50:	00a9e9b3          	or	s3,s3,a0
80004e54:	06848493          	addi	s1,s1,104
80004e58:	f9dff06f          	j	80004df4 <_fwalk_reent+0x48>

80004e5c <__malloc_lock>:
80004e5c:	80009537          	lui	a0,0x80009
80004e60:	15c50513          	addi	a0,a0,348 # 8000915c <CONFIG_SYSTEM_WORKQUEUE_PRIORITY+0x8000915d>
80004e64:	a1cfd06f          	j	80002080 <__retarget_lock_acquire_recursive>

80004e68 <__malloc_unlock>:
80004e68:	80009537          	lui	a0,0x80009
80004e6c:	15c50513          	addi	a0,a0,348 # 8000915c <CONFIG_SYSTEM_WORKQUEUE_PRIORITY+0x8000915d>
80004e70:	a30fd06f          	j	800020a0 <__retarget_lock_release_recursive>

80004e74 <__sfputc_r>:
80004e74:	00862783          	lw	a5,8(a2)
80004e78:	fff78793          	addi	a5,a5,-1
80004e7c:	00f62423          	sw	a5,8(a2)
80004e80:	0007dc63          	bgez	a5,80004e98 <__sfputc_r+0x24>
80004e84:	01862703          	lw	a4,24(a2)
80004e88:	00e7c663          	blt	a5,a4,80004e94 <__sfputc_r+0x20>
80004e8c:	00a00793          	li	a5,10
80004e90:	00f59463          	bne	a1,a5,80004e98 <__sfputc_r+0x24>
80004e94:	3650006f          	j	800059f8 <__swbuf_r>
80004e98:	00062783          	lw	a5,0(a2)
80004e9c:	00058513          	mv	a0,a1
80004ea0:	00178713          	addi	a4,a5,1
80004ea4:	00e62023          	sw	a4,0(a2)
80004ea8:	00b78023          	sb	a1,0(a5)
80004eac:	00008067          	ret

80004eb0 <__sfputs_r>:
80004eb0:	fe010113          	addi	sp,sp,-32
80004eb4:	00812c23          	sw	s0,24(sp)
80004eb8:	00912a23          	sw	s1,20(sp)
80004ebc:	01212823          	sw	s2,16(sp)
80004ec0:	01312623          	sw	s3,12(sp)
80004ec4:	01412423          	sw	s4,8(sp)
80004ec8:	00112e23          	sw	ra,28(sp)
80004ecc:	00050913          	mv	s2,a0
80004ed0:	00058993          	mv	s3,a1
80004ed4:	00060413          	mv	s0,a2
80004ed8:	00d604b3          	add	s1,a2,a3
80004edc:	fff00a13          	li	s4,-1
80004ee0:	00941663          	bne	s0,s1,80004eec <__sfputs_r+0x3c>
80004ee4:	00000513          	li	a0,0
80004ee8:	01c0006f          	j	80004f04 <__sfputs_r+0x54>
80004eec:	00044583          	lbu	a1,0(s0)
80004ef0:	00098613          	mv	a2,s3
80004ef4:	00090513          	mv	a0,s2
80004ef8:	f7dff0ef          	jal	ra,80004e74 <__sfputc_r>
80004efc:	00140413          	addi	s0,s0,1
80004f00:	ff4510e3          	bne	a0,s4,80004ee0 <__sfputs_r+0x30>
80004f04:	01c12083          	lw	ra,28(sp)
80004f08:	01812403          	lw	s0,24(sp)
80004f0c:	01412483          	lw	s1,20(sp)
80004f10:	01012903          	lw	s2,16(sp)
80004f14:	00c12983          	lw	s3,12(sp)
80004f18:	00812a03          	lw	s4,8(sp)
80004f1c:	02010113          	addi	sp,sp,32
80004f20:	00008067          	ret

80004f24 <_vfiprintf_r>:
80004f24:	f5010113          	addi	sp,sp,-176
80004f28:	0a812423          	sw	s0,168(sp)
80004f2c:	0a912223          	sw	s1,164(sp)
80004f30:	0b212023          	sw	s2,160(sp)
80004f34:	09312e23          	sw	s3,156(sp)
80004f38:	0a112623          	sw	ra,172(sp)
80004f3c:	09412c23          	sw	s4,152(sp)
80004f40:	09512a23          	sw	s5,148(sp)
80004f44:	09612823          	sw	s6,144(sp)
80004f48:	09712623          	sw	s7,140(sp)
80004f4c:	09812423          	sw	s8,136(sp)
80004f50:	09912223          	sw	s9,132(sp)
80004f54:	09a12023          	sw	s10,128(sp)
80004f58:	07b12e23          	sw	s11,124(sp)
80004f5c:	00050993          	mv	s3,a0
80004f60:	00058413          	mv	s0,a1
80004f64:	00060913          	mv	s2,a2
80004f68:	00068493          	mv	s1,a3
80004f6c:	00050863          	beqz	a0,80004f7c <_vfiprintf_r+0x58>
80004f70:	01852783          	lw	a5,24(a0)
80004f74:	00079463          	bnez	a5,80004f7c <_vfiprintf_r+0x58>
80004f78:	c7dff0ef          	jal	ra,80004bf4 <__sinit>
80004f7c:	800077b7          	lui	a5,0x80007
80004f80:	a9478793          	addi	a5,a5,-1388 # 80006a94 <CONFIG_SYSTEM_WORKQUEUE_PRIORITY+0x80006a95>
80004f84:	08f41c63          	bne	s0,a5,8000501c <_vfiprintf_r+0xf8>
80004f88:	0049a403          	lw	s0,4(s3)
80004f8c:	06442783          	lw	a5,100(s0)
80004f90:	0017f793          	andi	a5,a5,1
80004f94:	00079c63          	bnez	a5,80004fac <_vfiprintf_r+0x88>
80004f98:	00c45783          	lhu	a5,12(s0)
80004f9c:	2007f793          	andi	a5,a5,512
80004fa0:	00079663          	bnez	a5,80004fac <_vfiprintf_r+0x88>
80004fa4:	05842503          	lw	a0,88(s0)
80004fa8:	8d8fd0ef          	jal	ra,80002080 <__retarget_lock_acquire_recursive>
80004fac:	00c45783          	lhu	a5,12(s0)
80004fb0:	0087f793          	andi	a5,a5,8
80004fb4:	00078663          	beqz	a5,80004fc0 <_vfiprintf_r+0x9c>
80004fb8:	01042783          	lw	a5,16(s0)
80004fbc:	0a079063          	bnez	a5,8000505c <_vfiprintf_r+0x138>
80004fc0:	00040593          	mv	a1,s0
80004fc4:	00098513          	mv	a0,s3
80004fc8:	3bd000ef          	jal	ra,80005b84 <__swsetup_r>
80004fcc:	08050863          	beqz	a0,8000505c <_vfiprintf_r+0x138>
80004fd0:	06442783          	lw	a5,100(s0)
80004fd4:	0017f793          	andi	a5,a5,1
80004fd8:	06078663          	beqz	a5,80005044 <_vfiprintf_r+0x120>
80004fdc:	fff00513          	li	a0,-1
80004fe0:	0ac12083          	lw	ra,172(sp)
80004fe4:	0a812403          	lw	s0,168(sp)
80004fe8:	0a412483          	lw	s1,164(sp)
80004fec:	0a012903          	lw	s2,160(sp)
80004ff0:	09c12983          	lw	s3,156(sp)
80004ff4:	09812a03          	lw	s4,152(sp)
80004ff8:	09412a83          	lw	s5,148(sp)
80004ffc:	09012b03          	lw	s6,144(sp)
80005000:	08c12b83          	lw	s7,140(sp)
80005004:	08812c03          	lw	s8,136(sp)
80005008:	08412c83          	lw	s9,132(sp)
8000500c:	08012d03          	lw	s10,128(sp)
80005010:	07c12d83          	lw	s11,124(sp)
80005014:	0b010113          	addi	sp,sp,176
80005018:	00008067          	ret
8000501c:	800077b7          	lui	a5,0x80007
80005020:	a7478793          	addi	a5,a5,-1420 # 80006a74 <CONFIG_SYSTEM_WORKQUEUE_PRIORITY+0x80006a75>
80005024:	00f41663          	bne	s0,a5,80005030 <_vfiprintf_r+0x10c>
80005028:	0089a403          	lw	s0,8(s3)
8000502c:	f61ff06f          	j	80004f8c <_vfiprintf_r+0x68>
80005030:	800077b7          	lui	a5,0x80007
80005034:	a5478793          	addi	a5,a5,-1452 # 80006a54 <CONFIG_SYSTEM_WORKQUEUE_PRIORITY+0x80006a55>
80005038:	f4f41ae3          	bne	s0,a5,80004f8c <_vfiprintf_r+0x68>
8000503c:	00c9a403          	lw	s0,12(s3)
80005040:	f4dff06f          	j	80004f8c <_vfiprintf_r+0x68>
80005044:	00c45783          	lhu	a5,12(s0)
80005048:	2007f793          	andi	a5,a5,512
8000504c:	f80798e3          	bnez	a5,80004fdc <_vfiprintf_r+0xb8>
80005050:	05842503          	lw	a0,88(s0)
80005054:	84cfd0ef          	jal	ra,800020a0 <__retarget_lock_release_recursive>
80005058:	f85ff06f          	j	80004fdc <_vfiprintf_r+0xb8>
8000505c:	02000793          	li	a5,32
80005060:	02f104a3          	sb	a5,41(sp)
80005064:	03000793          	li	a5,48
80005068:	02012223          	sw	zero,36(sp)
8000506c:	02f10523          	sb	a5,42(sp)
80005070:	00912623          	sw	s1,12(sp)
80005074:	02500c93          	li	s9,37
80005078:	80007b37          	lui	s6,0x80007
8000507c:	80007bb7          	lui	s7,0x80007
80005080:	80007d37          	lui	s10,0x80007
80005084:	80005c37          	lui	s8,0x80005
80005088:	00000a93          	li	s5,0
8000508c:	00090493          	mv	s1,s2
80005090:	0004c783          	lbu	a5,0(s1)
80005094:	00078463          	beqz	a5,8000509c <_vfiprintf_r+0x178>
80005098:	0d979c63          	bne	a5,s9,80005170 <_vfiprintf_r+0x24c>
8000509c:	41248db3          	sub	s11,s1,s2
800050a0:	03248663          	beq	s1,s2,800050cc <_vfiprintf_r+0x1a8>
800050a4:	000d8693          	mv	a3,s11
800050a8:	00090613          	mv	a2,s2
800050ac:	00040593          	mv	a1,s0
800050b0:	00098513          	mv	a0,s3
800050b4:	dfdff0ef          	jal	ra,80004eb0 <__sfputs_r>
800050b8:	fff00793          	li	a5,-1
800050bc:	24f50463          	beq	a0,a5,80005304 <_vfiprintf_r+0x3e0>
800050c0:	02412783          	lw	a5,36(sp)
800050c4:	01b787b3          	add	a5,a5,s11
800050c8:	02f12223          	sw	a5,36(sp)
800050cc:	0004c783          	lbu	a5,0(s1)
800050d0:	22078a63          	beqz	a5,80005304 <_vfiprintf_r+0x3e0>
800050d4:	fff00793          	li	a5,-1
800050d8:	00148913          	addi	s2,s1,1
800050dc:	00012823          	sw	zero,16(sp)
800050e0:	00012e23          	sw	zero,28(sp)
800050e4:	00f12a23          	sw	a5,20(sp)
800050e8:	00012c23          	sw	zero,24(sp)
800050ec:	040109a3          	sb	zero,83(sp)
800050f0:	06012423          	sw	zero,104(sp)
800050f4:	00100d93          	li	s11,1
800050f8:	00094583          	lbu	a1,0(s2)
800050fc:	00500613          	li	a2,5
80005100:	ab4b0513          	addi	a0,s6,-1356 # 80006ab4 <CONFIG_SYSTEM_WORKQUEUE_PRIORITY+0x80006ab5>
80005104:	0d0010ef          	jal	ra,800061d4 <memchr>
80005108:	01012783          	lw	a5,16(sp)
8000510c:	00190493          	addi	s1,s2,1
80005110:	06051463          	bnez	a0,80005178 <_vfiprintf_r+0x254>
80005114:	0107f713          	andi	a4,a5,16
80005118:	00070663          	beqz	a4,80005124 <_vfiprintf_r+0x200>
8000511c:	02000713          	li	a4,32
80005120:	04e109a3          	sb	a4,83(sp)
80005124:	0087f713          	andi	a4,a5,8
80005128:	00070663          	beqz	a4,80005134 <_vfiprintf_r+0x210>
8000512c:	02b00713          	li	a4,43
80005130:	04e109a3          	sb	a4,83(sp)
80005134:	00094683          	lbu	a3,0(s2)
80005138:	02a00713          	li	a4,42
8000513c:	04e68c63          	beq	a3,a4,80005194 <_vfiprintf_r+0x270>
80005140:	01c12783          	lw	a5,28(sp)
80005144:	00090493          	mv	s1,s2
80005148:	00000693          	li	a3,0
8000514c:	00900613          	li	a2,9
80005150:	00a00513          	li	a0,10
80005154:	0004c703          	lbu	a4,0(s1)
80005158:	00148593          	addi	a1,s1,1
8000515c:	fd070713          	addi	a4,a4,-48
80005160:	08e67e63          	bgeu	a2,a4,800051fc <_vfiprintf_r+0x2d8>
80005164:	04068463          	beqz	a3,800051ac <_vfiprintf_r+0x288>
80005168:	00f12e23          	sw	a5,28(sp)
8000516c:	0400006f          	j	800051ac <_vfiprintf_r+0x288>
80005170:	00148493          	addi	s1,s1,1
80005174:	f1dff06f          	j	80005090 <_vfiprintf_r+0x16c>
80005178:	ab4b0713          	addi	a4,s6,-1356
8000517c:	40e50533          	sub	a0,a0,a4
80005180:	00ad9533          	sll	a0,s11,a0
80005184:	00a7e7b3          	or	a5,a5,a0
80005188:	00f12823          	sw	a5,16(sp)
8000518c:	00048913          	mv	s2,s1
80005190:	f69ff06f          	j	800050f8 <_vfiprintf_r+0x1d4>
80005194:	00c12703          	lw	a4,12(sp)
80005198:	00470693          	addi	a3,a4,4
8000519c:	00072703          	lw	a4,0(a4)
800051a0:	00d12623          	sw	a3,12(sp)
800051a4:	04074263          	bltz	a4,800051e8 <_vfiprintf_r+0x2c4>
800051a8:	00e12e23          	sw	a4,28(sp)
800051ac:	0004c703          	lbu	a4,0(s1)
800051b0:	02e00793          	li	a5,46
800051b4:	08f71463          	bne	a4,a5,8000523c <_vfiprintf_r+0x318>
800051b8:	0014c703          	lbu	a4,1(s1)
800051bc:	02a00793          	li	a5,42
800051c0:	04f71863          	bne	a4,a5,80005210 <_vfiprintf_r+0x2ec>
800051c4:	00c12783          	lw	a5,12(sp)
800051c8:	00248493          	addi	s1,s1,2
800051cc:	00478713          	addi	a4,a5,4
800051d0:	0007a783          	lw	a5,0(a5)
800051d4:	00e12623          	sw	a4,12(sp)
800051d8:	0007d463          	bgez	a5,800051e0 <_vfiprintf_r+0x2bc>
800051dc:	fff00793          	li	a5,-1
800051e0:	00f12a23          	sw	a5,20(sp)
800051e4:	0580006f          	j	8000523c <_vfiprintf_r+0x318>
800051e8:	40e00733          	neg	a4,a4
800051ec:	0027e793          	ori	a5,a5,2
800051f0:	00e12e23          	sw	a4,28(sp)
800051f4:	00f12823          	sw	a5,16(sp)
800051f8:	fb5ff06f          	j	800051ac <_vfiprintf_r+0x288>
800051fc:	02a787b3          	mul	a5,a5,a0
80005200:	00058493          	mv	s1,a1
80005204:	00100693          	li	a3,1
80005208:	00e787b3          	add	a5,a5,a4
8000520c:	f49ff06f          	j	80005154 <_vfiprintf_r+0x230>
80005210:	00148493          	addi	s1,s1,1
80005214:	00012a23          	sw	zero,20(sp)
80005218:	00000693          	li	a3,0
8000521c:	00000793          	li	a5,0
80005220:	00900613          	li	a2,9
80005224:	00a00513          	li	a0,10
80005228:	0004c703          	lbu	a4,0(s1)
8000522c:	00148593          	addi	a1,s1,1
80005230:	fd070713          	addi	a4,a4,-48
80005234:	08e67263          	bgeu	a2,a4,800052b8 <_vfiprintf_r+0x394>
80005238:	fa0694e3          	bnez	a3,800051e0 <_vfiprintf_r+0x2bc>
8000523c:	0004c583          	lbu	a1,0(s1)
80005240:	00300613          	li	a2,3
80005244:	abcb8513          	addi	a0,s7,-1348 # 80006abc <CONFIG_SYSTEM_WORKQUEUE_PRIORITY+0x80006abd>
80005248:	78d000ef          	jal	ra,800061d4 <memchr>
8000524c:	02050263          	beqz	a0,80005270 <_vfiprintf_r+0x34c>
80005250:	abcb8793          	addi	a5,s7,-1348
80005254:	40f50533          	sub	a0,a0,a5
80005258:	01012783          	lw	a5,16(sp)
8000525c:	04000713          	li	a4,64
80005260:	00a71733          	sll	a4,a4,a0
80005264:	00e7e7b3          	or	a5,a5,a4
80005268:	00148493          	addi	s1,s1,1
8000526c:	00f12823          	sw	a5,16(sp)
80005270:	0004c583          	lbu	a1,0(s1)
80005274:	00600613          	li	a2,6
80005278:	ac0d0513          	addi	a0,s10,-1344 # 80006ac0 <CONFIG_SYSTEM_WORKQUEUE_PRIORITY+0x80006ac1>
8000527c:	00148913          	addi	s2,s1,1
80005280:	02b10423          	sb	a1,40(sp)
80005284:	751000ef          	jal	ra,800061d4 <memchr>
80005288:	0a050863          	beqz	a0,80005338 <_vfiprintf_r+0x414>
8000528c:	040a9863          	bnez	s5,800052dc <_vfiprintf_r+0x3b8>
80005290:	01012703          	lw	a4,16(sp)
80005294:	00c12783          	lw	a5,12(sp)
80005298:	10077713          	andi	a4,a4,256
8000529c:	02070863          	beqz	a4,800052cc <_vfiprintf_r+0x3a8>
800052a0:	00478793          	addi	a5,a5,4
800052a4:	00f12623          	sw	a5,12(sp)
800052a8:	02412783          	lw	a5,36(sp)
800052ac:	014787b3          	add	a5,a5,s4
800052b0:	02f12223          	sw	a5,36(sp)
800052b4:	dd9ff06f          	j	8000508c <_vfiprintf_r+0x168>
800052b8:	02a787b3          	mul	a5,a5,a0
800052bc:	00058493          	mv	s1,a1
800052c0:	00100693          	li	a3,1
800052c4:	00e787b3          	add	a5,a5,a4
800052c8:	f61ff06f          	j	80005228 <_vfiprintf_r+0x304>
800052cc:	00778793          	addi	a5,a5,7
800052d0:	ff87f793          	andi	a5,a5,-8
800052d4:	00878793          	addi	a5,a5,8
800052d8:	fcdff06f          	j	800052a4 <_vfiprintf_r+0x380>
800052dc:	00c10713          	addi	a4,sp,12
800052e0:	eb0c0693          	addi	a3,s8,-336 # 80004eb0 <CONFIG_SYSTEM_WORKQUEUE_PRIORITY+0x80004eb1>
800052e4:	00040613          	mv	a2,s0
800052e8:	01010593          	addi	a1,sp,16
800052ec:	00098513          	mv	a0,s3
800052f0:	00000097          	auipc	ra,0x0
800052f4:	000000e7          	jalr	zero # 0 <CONFIG_2ND_LVL_INTR_01_OFFSET>
800052f8:	fff00793          	li	a5,-1
800052fc:	00050a13          	mv	s4,a0
80005300:	faf514e3          	bne	a0,a5,800052a8 <_vfiprintf_r+0x384>
80005304:	06442783          	lw	a5,100(s0)
80005308:	0017f793          	andi	a5,a5,1
8000530c:	00079c63          	bnez	a5,80005324 <_vfiprintf_r+0x400>
80005310:	00c45783          	lhu	a5,12(s0)
80005314:	2007f793          	andi	a5,a5,512
80005318:	00079663          	bnez	a5,80005324 <_vfiprintf_r+0x400>
8000531c:	05842503          	lw	a0,88(s0)
80005320:	d81fc0ef          	jal	ra,800020a0 <__retarget_lock_release_recursive>
80005324:	00c45783          	lhu	a5,12(s0)
80005328:	0407f793          	andi	a5,a5,64
8000532c:	ca0798e3          	bnez	a5,80004fdc <_vfiprintf_r+0xb8>
80005330:	02412503          	lw	a0,36(sp)
80005334:	cadff06f          	j	80004fe0 <_vfiprintf_r+0xbc>
80005338:	00c10713          	addi	a4,sp,12
8000533c:	eb0c0693          	addi	a3,s8,-336
80005340:	00040613          	mv	a2,s0
80005344:	01010593          	addi	a1,sp,16
80005348:	00098513          	mv	a0,s3
8000534c:	1b8000ef          	jal	ra,80005504 <_printf_i>
80005350:	fa9ff06f          	j	800052f8 <_vfiprintf_r+0x3d4>

80005354 <_printf_common>:
80005354:	fd010113          	addi	sp,sp,-48
80005358:	01512a23          	sw	s5,20(sp)
8000535c:	0105a783          	lw	a5,16(a1)
80005360:	00070a93          	mv	s5,a4
80005364:	0085a703          	lw	a4,8(a1)
80005368:	02812423          	sw	s0,40(sp)
8000536c:	03212023          	sw	s2,32(sp)
80005370:	01312e23          	sw	s3,28(sp)
80005374:	01412c23          	sw	s4,24(sp)
80005378:	02112623          	sw	ra,44(sp)
8000537c:	02912223          	sw	s1,36(sp)
80005380:	01612823          	sw	s6,16(sp)
80005384:	01712623          	sw	s7,12(sp)
80005388:	00050993          	mv	s3,a0
8000538c:	00058413          	mv	s0,a1
80005390:	00060913          	mv	s2,a2
80005394:	00068a13          	mv	s4,a3
80005398:	00e7d463          	bge	a5,a4,800053a0 <_printf_common+0x4c>
8000539c:	00070793          	mv	a5,a4
800053a0:	00f92023          	sw	a5,0(s2)
800053a4:	04344703          	lbu	a4,67(s0)
800053a8:	00070663          	beqz	a4,800053b4 <_printf_common+0x60>
800053ac:	00178793          	addi	a5,a5,1
800053b0:	00f92023          	sw	a5,0(s2)
800053b4:	00042783          	lw	a5,0(s0)
800053b8:	0207f793          	andi	a5,a5,32
800053bc:	00078863          	beqz	a5,800053cc <_printf_common+0x78>
800053c0:	00092783          	lw	a5,0(s2)
800053c4:	00278793          	addi	a5,a5,2
800053c8:	00f92023          	sw	a5,0(s2)
800053cc:	00042483          	lw	s1,0(s0)
800053d0:	0064f493          	andi	s1,s1,6
800053d4:	00049e63          	bnez	s1,800053f0 <_printf_common+0x9c>
800053d8:	01940b13          	addi	s6,s0,25
800053dc:	fff00b93          	li	s7,-1
800053e0:	00c42783          	lw	a5,12(s0)
800053e4:	00092703          	lw	a4,0(s2)
800053e8:	40e787b3          	sub	a5,a5,a4
800053ec:	08f4c263          	blt	s1,a5,80005470 <_printf_common+0x11c>
800053f0:	04344783          	lbu	a5,67(s0)
800053f4:	00f036b3          	snez	a3,a5
800053f8:	00042783          	lw	a5,0(s0)
800053fc:	0207f793          	andi	a5,a5,32
80005400:	0c079063          	bnez	a5,800054c0 <_printf_common+0x16c>
80005404:	04340613          	addi	a2,s0,67
80005408:	000a0593          	mv	a1,s4
8000540c:	00098513          	mv	a0,s3
80005410:	000a80e7          	jalr	s5
80005414:	fff00793          	li	a5,-1
80005418:	06f50863          	beq	a0,a5,80005488 <_printf_common+0x134>
8000541c:	00042783          	lw	a5,0(s0)
80005420:	00400713          	li	a4,4
80005424:	00000493          	li	s1,0
80005428:	0067f793          	andi	a5,a5,6
8000542c:	00e79c63          	bne	a5,a4,80005444 <_printf_common+0xf0>
80005430:	00c42483          	lw	s1,12(s0)
80005434:	00092783          	lw	a5,0(s2)
80005438:	40f484b3          	sub	s1,s1,a5
8000543c:	0004d463          	bgez	s1,80005444 <_printf_common+0xf0>
80005440:	00000493          	li	s1,0
80005444:	00842783          	lw	a5,8(s0)
80005448:	01042703          	lw	a4,16(s0)
8000544c:	00f75663          	bge	a4,a5,80005458 <_printf_common+0x104>
80005450:	40e787b3          	sub	a5,a5,a4
80005454:	00f484b3          	add	s1,s1,a5
80005458:	00000913          	li	s2,0
8000545c:	01a40413          	addi	s0,s0,26
80005460:	fff00b13          	li	s6,-1
80005464:	09249063          	bne	s1,s2,800054e4 <_printf_common+0x190>
80005468:	00000513          	li	a0,0
8000546c:	0200006f          	j	8000548c <_printf_common+0x138>
80005470:	00100693          	li	a3,1
80005474:	000b0613          	mv	a2,s6
80005478:	000a0593          	mv	a1,s4
8000547c:	00098513          	mv	a0,s3
80005480:	000a80e7          	jalr	s5
80005484:	03751a63          	bne	a0,s7,800054b8 <_printf_common+0x164>
80005488:	fff00513          	li	a0,-1
8000548c:	02c12083          	lw	ra,44(sp)
80005490:	02812403          	lw	s0,40(sp)
80005494:	02412483          	lw	s1,36(sp)
80005498:	02012903          	lw	s2,32(sp)
8000549c:	01c12983          	lw	s3,28(sp)
800054a0:	01812a03          	lw	s4,24(sp)
800054a4:	01412a83          	lw	s5,20(sp)
800054a8:	01012b03          	lw	s6,16(sp)
800054ac:	00c12b83          	lw	s7,12(sp)
800054b0:	03010113          	addi	sp,sp,48
800054b4:	00008067          	ret
800054b8:	00148493          	addi	s1,s1,1
800054bc:	f25ff06f          	j	800053e0 <_printf_common+0x8c>
800054c0:	00d40733          	add	a4,s0,a3
800054c4:	03000613          	li	a2,48
800054c8:	04c701a3          	sb	a2,67(a4)
800054cc:	04544703          	lbu	a4,69(s0)
800054d0:	00168793          	addi	a5,a3,1
800054d4:	00f407b3          	add	a5,s0,a5
800054d8:	00268693          	addi	a3,a3,2
800054dc:	04e781a3          	sb	a4,67(a5)
800054e0:	f25ff06f          	j	80005404 <_printf_common+0xb0>
800054e4:	00100693          	li	a3,1
800054e8:	00040613          	mv	a2,s0
800054ec:	000a0593          	mv	a1,s4
800054f0:	00098513          	mv	a0,s3
800054f4:	000a80e7          	jalr	s5
800054f8:	f96508e3          	beq	a0,s6,80005488 <_printf_common+0x134>
800054fc:	00190913          	addi	s2,s2,1
80005500:	f65ff06f          	j	80005464 <_printf_common+0x110>

80005504 <_printf_i>:
80005504:	fd010113          	addi	sp,sp,-48
80005508:	02812423          	sw	s0,40(sp)
8000550c:	02912223          	sw	s1,36(sp)
80005510:	03212023          	sw	s2,32(sp)
80005514:	01312e23          	sw	s3,28(sp)
80005518:	02112623          	sw	ra,44(sp)
8000551c:	01412c23          	sw	s4,24(sp)
80005520:	01512a23          	sw	s5,20(sp)
80005524:	01612823          	sw	s6,16(sp)
80005528:	0185c883          	lbu	a7,24(a1)
8000552c:	07800793          	li	a5,120
80005530:	00050493          	mv	s1,a0
80005534:	00058413          	mv	s0,a1
80005538:	00060913          	mv	s2,a2
8000553c:	00068993          	mv	s3,a3
80005540:	0117ee63          	bltu	a5,a7,8000555c <_printf_i+0x58>
80005544:	06200793          	li	a5,98
80005548:	04358693          	addi	a3,a1,67
8000554c:	0117ee63          	bltu	a5,a7,80005568 <_printf_i+0x64>
80005550:	2a088a63          	beqz	a7,80005804 <_printf_i+0x300>
80005554:	05800793          	li	a5,88
80005558:	20f88a63          	beq	a7,a5,8000576c <_printf_i+0x268>
8000555c:	04240a93          	addi	s5,s0,66
80005560:	05140123          	sb	a7,66(s0)
80005564:	0440006f          	j	800055a8 <_printf_i+0xa4>
80005568:	f9d88793          	addi	a5,a7,-99 # ffff9d <CONFIG_SRAM_SIZE+0xefff9d>
8000556c:	0ff7f793          	zext.b	a5,a5
80005570:	01500613          	li	a2,21
80005574:	fef664e3          	bltu	a2,a5,8000555c <_printf_i+0x58>
80005578:	80007637          	lui	a2,0x80007
8000557c:	00279793          	slli	a5,a5,0x2
80005580:	af060613          	addi	a2,a2,-1296 # 80006af0 <CONFIG_SYSTEM_WORKQUEUE_PRIORITY+0x80006af1>
80005584:	00c787b3          	add	a5,a5,a2
80005588:	0007a783          	lw	a5,0(a5)
8000558c:	00078067          	jr	a5
80005590:	00072783          	lw	a5,0(a4)
80005594:	04258a93          	addi	s5,a1,66
80005598:	00478693          	addi	a3,a5,4
8000559c:	0007a783          	lw	a5,0(a5)
800055a0:	00d72023          	sw	a3,0(a4)
800055a4:	04f58123          	sb	a5,66(a1)
800055a8:	00100793          	li	a5,1
800055ac:	2940006f          	j	80005840 <_printf_i+0x33c>
800055b0:	0005a603          	lw	a2,0(a1)
800055b4:	00072783          	lw	a5,0(a4)
800055b8:	08067513          	andi	a0,a2,128
800055bc:	00478593          	addi	a1,a5,4
800055c0:	04050e63          	beqz	a0,8000561c <_printf_i+0x118>
800055c4:	0007a783          	lw	a5,0(a5)
800055c8:	00b72023          	sw	a1,0(a4)
800055cc:	80007737          	lui	a4,0x80007
800055d0:	00442583          	lw	a1,4(s0)
800055d4:	ac870813          	addi	a6,a4,-1336 # 80006ac8 <CONFIG_SYSTEM_WORKQUEUE_PRIORITY+0x80006ac9>
800055d8:	1e07d263          	bgez	a5,800057bc <_printf_i+0x2b8>
800055dc:	02d00713          	li	a4,45
800055e0:	04e401a3          	sb	a4,67(s0)
800055e4:	00b42423          	sw	a1,8(s0)
800055e8:	0405d863          	bgez	a1,80005638 <_printf_i+0x134>
800055ec:	40f007b3          	neg	a5,a5
800055f0:	00a00713          	li	a4,10
800055f4:	00068a93          	mv	s5,a3
800055f8:	02e7f633          	remu	a2,a5,a4
800055fc:	fffa8a93          	addi	s5,s5,-1
80005600:	00c80633          	add	a2,a6,a2
80005604:	00064603          	lbu	a2,0(a2)
80005608:	00ca8023          	sb	a2,0(s5)
8000560c:	00078613          	mv	a2,a5
80005610:	02e7d7b3          	divu	a5,a5,a4
80005614:	fee672e3          	bgeu	a2,a4,800055f8 <_printf_i+0xf4>
80005618:	0980006f          	j	800056b0 <_printf_i+0x1ac>
8000561c:	0007a783          	lw	a5,0(a5)
80005620:	04067513          	andi	a0,a2,64
80005624:	00b72023          	sw	a1,0(a4)
80005628:	fa0502e3          	beqz	a0,800055cc <_printf_i+0xc8>
8000562c:	01079793          	slli	a5,a5,0x10
80005630:	4107d793          	srai	a5,a5,0x10
80005634:	f99ff06f          	j	800055cc <_printf_i+0xc8>
80005638:	ffb67613          	andi	a2,a2,-5
8000563c:	00c42023          	sw	a2,0(s0)
80005640:	fadff06f          	j	800055ec <_printf_i+0xe8>
80005644:	0005a603          	lw	a2,0(a1)
80005648:	00072783          	lw	a5,0(a4)
8000564c:	08067513          	andi	a0,a2,128
80005650:	00478593          	addi	a1,a5,4
80005654:	00050863          	beqz	a0,80005664 <_printf_i+0x160>
80005658:	00b72023          	sw	a1,0(a4)
8000565c:	0007a783          	lw	a5,0(a5)
80005660:	0140006f          	j	80005674 <_printf_i+0x170>
80005664:	04067613          	andi	a2,a2,64
80005668:	00b72023          	sw	a1,0(a4)
8000566c:	fe0608e3          	beqz	a2,8000565c <_printf_i+0x158>
80005670:	0007d783          	lhu	a5,0(a5)
80005674:	80007837          	lui	a6,0x80007
80005678:	06f00713          	li	a4,111
8000567c:	ac880813          	addi	a6,a6,-1336 # 80006ac8 <CONFIG_SYSTEM_WORKQUEUE_PRIORITY+0x80006ac9>
80005680:	12e89a63          	bne	a7,a4,800057b4 <_printf_i+0x2b0>
80005684:	00800713          	li	a4,8
80005688:	040401a3          	sb	zero,67(s0)
8000568c:	00442603          	lw	a2,4(s0)
80005690:	00c42423          	sw	a2,8(s0)
80005694:	f60640e3          	bltz	a2,800055f4 <_printf_i+0xf0>
80005698:	00042583          	lw	a1,0(s0)
8000569c:	ffb5f593          	andi	a1,a1,-5
800056a0:	00b42023          	sw	a1,0(s0)
800056a4:	f40798e3          	bnez	a5,800055f4 <_printf_i+0xf0>
800056a8:	00068a93          	mv	s5,a3
800056ac:	f40614e3          	bnez	a2,800055f4 <_printf_i+0xf0>
800056b0:	00800793          	li	a5,8
800056b4:	02f71463          	bne	a4,a5,800056dc <_printf_i+0x1d8>
800056b8:	00042783          	lw	a5,0(s0)
800056bc:	0017f793          	andi	a5,a5,1
800056c0:	00078e63          	beqz	a5,800056dc <_printf_i+0x1d8>
800056c4:	00442703          	lw	a4,4(s0)
800056c8:	01042783          	lw	a5,16(s0)
800056cc:	00e7c863          	blt	a5,a4,800056dc <_printf_i+0x1d8>
800056d0:	03000793          	li	a5,48
800056d4:	fefa8fa3          	sb	a5,-1(s5)
800056d8:	fffa8a93          	addi	s5,s5,-1
800056dc:	415686b3          	sub	a3,a3,s5
800056e0:	00d42823          	sw	a3,16(s0)
800056e4:	00098713          	mv	a4,s3
800056e8:	00090693          	mv	a3,s2
800056ec:	00c10613          	addi	a2,sp,12
800056f0:	00040593          	mv	a1,s0
800056f4:	00048513          	mv	a0,s1
800056f8:	c5dff0ef          	jal	ra,80005354 <_printf_common>
800056fc:	fff00a13          	li	s4,-1
80005700:	15451663          	bne	a0,s4,8000584c <_printf_i+0x348>
80005704:	fff00513          	li	a0,-1
80005708:	02c12083          	lw	ra,44(sp)
8000570c:	02812403          	lw	s0,40(sp)
80005710:	02412483          	lw	s1,36(sp)
80005714:	02012903          	lw	s2,32(sp)
80005718:	01c12983          	lw	s3,28(sp)
8000571c:	01812a03          	lw	s4,24(sp)
80005720:	01412a83          	lw	s5,20(sp)
80005724:	01012b03          	lw	s6,16(sp)
80005728:	03010113          	addi	sp,sp,48
8000572c:	00008067          	ret
80005730:	0005a783          	lw	a5,0(a1)
80005734:	0207e793          	ori	a5,a5,32
80005738:	00f5a023          	sw	a5,0(a1)
8000573c:	80007837          	lui	a6,0x80007
80005740:	07800893          	li	a7,120
80005744:	adc80813          	addi	a6,a6,-1316 # 80006adc <CONFIG_SYSTEM_WORKQUEUE_PRIORITY+0x80006add>
80005748:	00042603          	lw	a2,0(s0)
8000574c:	051402a3          	sb	a7,69(s0)
80005750:	00072783          	lw	a5,0(a4)
80005754:	08067513          	andi	a0,a2,128
80005758:	00478593          	addi	a1,a5,4
8000575c:	00050e63          	beqz	a0,80005778 <_printf_i+0x274>
80005760:	00b72023          	sw	a1,0(a4)
80005764:	0007a783          	lw	a5,0(a5)
80005768:	0200006f          	j	80005788 <_printf_i+0x284>
8000576c:	80007837          	lui	a6,0x80007
80005770:	ac880813          	addi	a6,a6,-1336 # 80006ac8 <CONFIG_SYSTEM_WORKQUEUE_PRIORITY+0x80006ac9>
80005774:	fd5ff06f          	j	80005748 <_printf_i+0x244>
80005778:	04067513          	andi	a0,a2,64
8000577c:	00b72023          	sw	a1,0(a4)
80005780:	fe0502e3          	beqz	a0,80005764 <_printf_i+0x260>
80005784:	0007d783          	lhu	a5,0(a5)
80005788:	00167713          	andi	a4,a2,1
8000578c:	00070663          	beqz	a4,80005798 <_printf_i+0x294>
80005790:	02066613          	ori	a2,a2,32
80005794:	00c42023          	sw	a2,0(s0)
80005798:	00078663          	beqz	a5,800057a4 <_printf_i+0x2a0>
8000579c:	01000713          	li	a4,16
800057a0:	ee9ff06f          	j	80005688 <_printf_i+0x184>
800057a4:	00042703          	lw	a4,0(s0)
800057a8:	fdf77713          	andi	a4,a4,-33
800057ac:	00e42023          	sw	a4,0(s0)
800057b0:	fedff06f          	j	8000579c <_printf_i+0x298>
800057b4:	00a00713          	li	a4,10
800057b8:	ed1ff06f          	j	80005688 <_printf_i+0x184>
800057bc:	ac870813          	addi	a6,a4,-1336
800057c0:	00a00713          	li	a4,10
800057c4:	ec9ff06f          	j	8000568c <_printf_i+0x188>
800057c8:	0005a603          	lw	a2,0(a1)
800057cc:	00072783          	lw	a5,0(a4)
800057d0:	0145a583          	lw	a1,20(a1)
800057d4:	08067813          	andi	a6,a2,128
800057d8:	00478513          	addi	a0,a5,4
800057dc:	00080a63          	beqz	a6,800057f0 <_printf_i+0x2ec>
800057e0:	00a72023          	sw	a0,0(a4)
800057e4:	0007a783          	lw	a5,0(a5)
800057e8:	00b7a023          	sw	a1,0(a5)
800057ec:	0180006f          	j	80005804 <_printf_i+0x300>
800057f0:	00a72023          	sw	a0,0(a4)
800057f4:	04067613          	andi	a2,a2,64
800057f8:	0007a783          	lw	a5,0(a5)
800057fc:	fe0606e3          	beqz	a2,800057e8 <_printf_i+0x2e4>
80005800:	00b79023          	sh	a1,0(a5)
80005804:	00042823          	sw	zero,16(s0)
80005808:	00068a93          	mv	s5,a3
8000580c:	ed9ff06f          	j	800056e4 <_printf_i+0x1e0>
80005810:	00072783          	lw	a5,0(a4)
80005814:	0045a603          	lw	a2,4(a1)
80005818:	00000593          	li	a1,0
8000581c:	00478693          	addi	a3,a5,4
80005820:	00d72023          	sw	a3,0(a4)
80005824:	0007aa83          	lw	s5,0(a5)
80005828:	000a8513          	mv	a0,s5
8000582c:	1a9000ef          	jal	ra,800061d4 <memchr>
80005830:	00050663          	beqz	a0,8000583c <_printf_i+0x338>
80005834:	41550533          	sub	a0,a0,s5
80005838:	00a42223          	sw	a0,4(s0)
8000583c:	00442783          	lw	a5,4(s0)
80005840:	00f42823          	sw	a5,16(s0)
80005844:	040401a3          	sb	zero,67(s0)
80005848:	e9dff06f          	j	800056e4 <_printf_i+0x1e0>
8000584c:	01042683          	lw	a3,16(s0)
80005850:	000a8613          	mv	a2,s5
80005854:	00090593          	mv	a1,s2
80005858:	00048513          	mv	a0,s1
8000585c:	000980e7          	jalr	s3
80005860:	eb4502e3          	beq	a0,s4,80005704 <_printf_i+0x200>
80005864:	00042783          	lw	a5,0(s0)
80005868:	0027f793          	andi	a5,a5,2
8000586c:	04079463          	bnez	a5,800058b4 <_printf_i+0x3b0>
80005870:	00c12783          	lw	a5,12(sp)
80005874:	00c42503          	lw	a0,12(s0)
80005878:	e8f558e3          	bge	a0,a5,80005708 <_printf_i+0x204>
8000587c:	00078513          	mv	a0,a5
80005880:	e89ff06f          	j	80005708 <_printf_i+0x204>
80005884:	00100693          	li	a3,1
80005888:	000a8613          	mv	a2,s5
8000588c:	00090593          	mv	a1,s2
80005890:	00048513          	mv	a0,s1
80005894:	000980e7          	jalr	s3
80005898:	e76506e3          	beq	a0,s6,80005704 <_printf_i+0x200>
8000589c:	001a0a13          	addi	s4,s4,1
800058a0:	00c42783          	lw	a5,12(s0)
800058a4:	00c12703          	lw	a4,12(sp)
800058a8:	40e787b3          	sub	a5,a5,a4
800058ac:	fcfa4ce3          	blt	s4,a5,80005884 <_printf_i+0x380>
800058b0:	fc1ff06f          	j	80005870 <_printf_i+0x36c>
800058b4:	00000a13          	li	s4,0
800058b8:	01940a93          	addi	s5,s0,25
800058bc:	fff00b13          	li	s6,-1
800058c0:	fe1ff06f          	j	800058a0 <_printf_i+0x39c>

800058c4 <__sread>:
800058c4:	ff010113          	addi	sp,sp,-16
800058c8:	00812423          	sw	s0,8(sp)
800058cc:	00058413          	mv	s0,a1
800058d0:	00e59583          	lh	a1,14(a1)
800058d4:	00112623          	sw	ra,12(sp)
800058d8:	121000ef          	jal	ra,800061f8 <_read_r>
800058dc:	02054063          	bltz	a0,800058fc <__sread+0x38>
800058e0:	05442783          	lw	a5,84(s0)
800058e4:	00a787b3          	add	a5,a5,a0
800058e8:	04f42a23          	sw	a5,84(s0)
800058ec:	00c12083          	lw	ra,12(sp)
800058f0:	00812403          	lw	s0,8(sp)
800058f4:	01010113          	addi	sp,sp,16
800058f8:	00008067          	ret
800058fc:	00c45783          	lhu	a5,12(s0)
80005900:	fffff737          	lui	a4,0xfffff
80005904:	fff70713          	addi	a4,a4,-1 # ffffefff <CONFIG_SYSTEM_WORKQUEUE_PRIORITY+0xfffff000>
80005908:	00e7f7b3          	and	a5,a5,a4
8000590c:	00f41623          	sh	a5,12(s0)
80005910:	fddff06f          	j	800058ec <__sread+0x28>

80005914 <__swrite>:
80005914:	00c5d783          	lhu	a5,12(a1)
80005918:	fe010113          	addi	sp,sp,-32
8000591c:	00812c23          	sw	s0,24(sp)
80005920:	00912a23          	sw	s1,20(sp)
80005924:	01212823          	sw	s2,16(sp)
80005928:	01312623          	sw	s3,12(sp)
8000592c:	00112e23          	sw	ra,28(sp)
80005930:	1007f793          	andi	a5,a5,256
80005934:	00050493          	mv	s1,a0
80005938:	00058413          	mv	s0,a1
8000593c:	00060913          	mv	s2,a2
80005940:	00068993          	mv	s3,a3
80005944:	00078a63          	beqz	a5,80005958 <__swrite+0x44>
80005948:	00e59583          	lh	a1,14(a1)
8000594c:	00200693          	li	a3,2
80005950:	00000613          	li	a2,0
80005954:	6a4000ef          	jal	ra,80005ff8 <_lseek_r>
80005958:	00c45783          	lhu	a5,12(s0)
8000595c:	fffff737          	lui	a4,0xfffff
80005960:	fff70713          	addi	a4,a4,-1 # ffffefff <CONFIG_SYSTEM_WORKQUEUE_PRIORITY+0xfffff000>
80005964:	00e7f7b3          	and	a5,a5,a4
80005968:	00e41583          	lh	a1,14(s0)
8000596c:	00f41623          	sh	a5,12(s0)
80005970:	01812403          	lw	s0,24(sp)
80005974:	01c12083          	lw	ra,28(sp)
80005978:	00098693          	mv	a3,s3
8000597c:	00090613          	mv	a2,s2
80005980:	00c12983          	lw	s3,12(sp)
80005984:	01012903          	lw	s2,16(sp)
80005988:	00048513          	mv	a0,s1
8000598c:	01412483          	lw	s1,20(sp)
80005990:	02010113          	addi	sp,sp,32
80005994:	19c0006f          	j	80005b30 <_write_r>

80005998 <__sseek>:
80005998:	ff010113          	addi	sp,sp,-16
8000599c:	00812423          	sw	s0,8(sp)
800059a0:	00058413          	mv	s0,a1
800059a4:	00e59583          	lh	a1,14(a1)
800059a8:	00112623          	sw	ra,12(sp)
800059ac:	64c000ef          	jal	ra,80005ff8 <_lseek_r>
800059b0:	fff00713          	li	a4,-1
800059b4:	00c45783          	lhu	a5,12(s0)
800059b8:	02e51263          	bne	a0,a4,800059dc <__sseek+0x44>
800059bc:	fffff737          	lui	a4,0xfffff
800059c0:	fff70713          	addi	a4,a4,-1 # ffffefff <CONFIG_SYSTEM_WORKQUEUE_PRIORITY+0xfffff000>
800059c4:	00e7f7b3          	and	a5,a5,a4
800059c8:	00f41623          	sh	a5,12(s0)
800059cc:	00c12083          	lw	ra,12(sp)
800059d0:	00812403          	lw	s0,8(sp)
800059d4:	01010113          	addi	sp,sp,16
800059d8:	00008067          	ret
800059dc:	00001737          	lui	a4,0x1
800059e0:	00e7e7b3          	or	a5,a5,a4
800059e4:	00f41623          	sh	a5,12(s0)
800059e8:	04a42a23          	sw	a0,84(s0)
800059ec:	fe1ff06f          	j	800059cc <__sseek+0x34>

800059f0 <__sclose>:
800059f0:	00e59583          	lh	a1,14(a1)
800059f4:	2f40006f          	j	80005ce8 <_close_r>

800059f8 <__swbuf_r>:
800059f8:	fe010113          	addi	sp,sp,-32
800059fc:	00812c23          	sw	s0,24(sp)
80005a00:	00912a23          	sw	s1,20(sp)
80005a04:	01212823          	sw	s2,16(sp)
80005a08:	00112e23          	sw	ra,28(sp)
80005a0c:	01312623          	sw	s3,12(sp)
80005a10:	00050493          	mv	s1,a0
80005a14:	00058913          	mv	s2,a1
80005a18:	00060413          	mv	s0,a2
80005a1c:	00050863          	beqz	a0,80005a2c <__swbuf_r+0x34>
80005a20:	01852783          	lw	a5,24(a0)
80005a24:	00079463          	bnez	a5,80005a2c <__swbuf_r+0x34>
80005a28:	9ccff0ef          	jal	ra,80004bf4 <__sinit>
80005a2c:	800077b7          	lui	a5,0x80007
80005a30:	a9478793          	addi	a5,a5,-1388 # 80006a94 <CONFIG_SYSTEM_WORKQUEUE_PRIORITY+0x80006a95>
80005a34:	04f41c63          	bne	s0,a5,80005a8c <__swbuf_r+0x94>
80005a38:	0044a403          	lw	s0,4(s1)
80005a3c:	01842783          	lw	a5,24(s0)
80005a40:	00f42423          	sw	a5,8(s0)
80005a44:	00c45783          	lhu	a5,12(s0)
80005a48:	0087f793          	andi	a5,a5,8
80005a4c:	00078663          	beqz	a5,80005a58 <__swbuf_r+0x60>
80005a50:	01042783          	lw	a5,16(s0)
80005a54:	06079063          	bnez	a5,80005ab4 <__swbuf_r+0xbc>
80005a58:	00040593          	mv	a1,s0
80005a5c:	00048513          	mv	a0,s1
80005a60:	124000ef          	jal	ra,80005b84 <__swsetup_r>
80005a64:	04050863          	beqz	a0,80005ab4 <__swbuf_r+0xbc>
80005a68:	fff00913          	li	s2,-1
80005a6c:	01c12083          	lw	ra,28(sp)
80005a70:	01812403          	lw	s0,24(sp)
80005a74:	01412483          	lw	s1,20(sp)
80005a78:	00c12983          	lw	s3,12(sp)
80005a7c:	00090513          	mv	a0,s2
80005a80:	01012903          	lw	s2,16(sp)
80005a84:	02010113          	addi	sp,sp,32
80005a88:	00008067          	ret
80005a8c:	800077b7          	lui	a5,0x80007
80005a90:	a7478793          	addi	a5,a5,-1420 # 80006a74 <CONFIG_SYSTEM_WORKQUEUE_PRIORITY+0x80006a75>
80005a94:	00f41663          	bne	s0,a5,80005aa0 <__swbuf_r+0xa8>
80005a98:	0084a403          	lw	s0,8(s1)
80005a9c:	fa1ff06f          	j	80005a3c <__swbuf_r+0x44>
80005aa0:	800077b7          	lui	a5,0x80007
80005aa4:	a5478793          	addi	a5,a5,-1452 # 80006a54 <CONFIG_SYSTEM_WORKQUEUE_PRIORITY+0x80006a55>
80005aa8:	f8f41ae3          	bne	s0,a5,80005a3c <__swbuf_r+0x44>
80005aac:	00c4a403          	lw	s0,12(s1)
80005ab0:	f8dff06f          	j	80005a3c <__swbuf_r+0x44>
80005ab4:	01042783          	lw	a5,16(s0)
80005ab8:	00042503          	lw	a0,0(s0)
80005abc:	0ff97993          	zext.b	s3,s2
80005ac0:	0ff97913          	zext.b	s2,s2
80005ac4:	40f50533          	sub	a0,a0,a5
80005ac8:	01442783          	lw	a5,20(s0)
80005acc:	00f54a63          	blt	a0,a5,80005ae0 <__swbuf_r+0xe8>
80005ad0:	00040593          	mv	a1,s0
80005ad4:	00048513          	mv	a0,s1
80005ad8:	444000ef          	jal	ra,80005f1c <_fflush_r>
80005adc:	f80516e3          	bnez	a0,80005a68 <__swbuf_r+0x70>
80005ae0:	00842783          	lw	a5,8(s0)
80005ae4:	00150513          	addi	a0,a0,1
80005ae8:	fff78793          	addi	a5,a5,-1
80005aec:	00f42423          	sw	a5,8(s0)
80005af0:	00042783          	lw	a5,0(s0)
80005af4:	00178713          	addi	a4,a5,1
80005af8:	00e42023          	sw	a4,0(s0)
80005afc:	01378023          	sb	s3,0(a5)
80005b00:	01442783          	lw	a5,20(s0)
80005b04:	00a78c63          	beq	a5,a0,80005b1c <__swbuf_r+0x124>
80005b08:	00c45783          	lhu	a5,12(s0)
80005b0c:	0017f793          	andi	a5,a5,1
80005b10:	f4078ee3          	beqz	a5,80005a6c <__swbuf_r+0x74>
80005b14:	00a00793          	li	a5,10
80005b18:	f4f91ae3          	bne	s2,a5,80005a6c <__swbuf_r+0x74>
80005b1c:	00040593          	mv	a1,s0
80005b20:	00048513          	mv	a0,s1
80005b24:	3f8000ef          	jal	ra,80005f1c <_fflush_r>
80005b28:	f40502e3          	beqz	a0,80005a6c <__swbuf_r+0x74>
80005b2c:	f3dff06f          	j	80005a68 <__swbuf_r+0x70>

80005b30 <_write_r>:
80005b30:	ff010113          	addi	sp,sp,-16
80005b34:	00812423          	sw	s0,8(sp)
80005b38:	00912223          	sw	s1,4(sp)
80005b3c:	00050413          	mv	s0,a0
80005b40:	800074b7          	lui	s1,0x80007
80005b44:	00058513          	mv	a0,a1
80005b48:	00060593          	mv	a1,a2
80005b4c:	00068613          	mv	a2,a3
80005b50:	00112623          	sw	ra,12(sp)
80005b54:	b804a223          	sw	zero,-1148(s1) # 80006b84 <CONFIG_SYSTEM_WORKQUEUE_PRIORITY+0x80006b85>
80005b58:	c78fc0ef          	jal	ra,80001fd0 <_write>
80005b5c:	fff00793          	li	a5,-1
80005b60:	00f51863          	bne	a0,a5,80005b70 <_write_r+0x40>
80005b64:	b844a783          	lw	a5,-1148(s1)
80005b68:	00078463          	beqz	a5,80005b70 <_write_r+0x40>
80005b6c:	00f42023          	sw	a5,0(s0)
80005b70:	00c12083          	lw	ra,12(sp)
80005b74:	00812403          	lw	s0,8(sp)
80005b78:	00412483          	lw	s1,4(sp)
80005b7c:	01010113          	addi	sp,sp,16
80005b80:	00008067          	ret

80005b84 <__swsetup_r>:
80005b84:	ff010113          	addi	sp,sp,-16
80005b88:	00912223          	sw	s1,4(sp)
80005b8c:	8141a483          	lw	s1,-2028(gp) # 80009154 <_impure_ptr>
80005b90:	00812423          	sw	s0,8(sp)
80005b94:	01212023          	sw	s2,0(sp)
80005b98:	00112623          	sw	ra,12(sp)
80005b9c:	00050913          	mv	s2,a0
80005ba0:	00058413          	mv	s0,a1
80005ba4:	00048a63          	beqz	s1,80005bb8 <__swsetup_r+0x34>
80005ba8:	0184a783          	lw	a5,24(s1)
80005bac:	00079663          	bnez	a5,80005bb8 <__swsetup_r+0x34>
80005bb0:	00048513          	mv	a0,s1
80005bb4:	840ff0ef          	jal	ra,80004bf4 <__sinit>
80005bb8:	800077b7          	lui	a5,0x80007
80005bbc:	a9478793          	addi	a5,a5,-1388 # 80006a94 <CONFIG_SYSTEM_WORKQUEUE_PRIORITY+0x80006a95>
80005bc0:	02f41a63          	bne	s0,a5,80005bf4 <__swsetup_r+0x70>
80005bc4:	0044a403          	lw	s0,4(s1)
80005bc8:	00c41783          	lh	a5,12(s0)
80005bcc:	0087f713          	andi	a4,a5,8
80005bd0:	08071a63          	bnez	a4,80005c64 <__swsetup_r+0xe0>
80005bd4:	0107f713          	andi	a4,a5,16
80005bd8:	04071263          	bnez	a4,80005c1c <__swsetup_r+0x98>
80005bdc:	00900713          	li	a4,9
80005be0:	00e92023          	sw	a4,0(s2)
80005be4:	0407e793          	ori	a5,a5,64
80005be8:	00f41623          	sh	a5,12(s0)
80005bec:	fff00513          	li	a0,-1
80005bf0:	0c80006f          	j	80005cb8 <__swsetup_r+0x134>
80005bf4:	800077b7          	lui	a5,0x80007
80005bf8:	a7478793          	addi	a5,a5,-1420 # 80006a74 <CONFIG_SYSTEM_WORKQUEUE_PRIORITY+0x80006a75>
80005bfc:	00f41663          	bne	s0,a5,80005c08 <__swsetup_r+0x84>
80005c00:	0084a403          	lw	s0,8(s1)
80005c04:	fc5ff06f          	j	80005bc8 <__swsetup_r+0x44>
80005c08:	800077b7          	lui	a5,0x80007
80005c0c:	a5478793          	addi	a5,a5,-1452 # 80006a54 <CONFIG_SYSTEM_WORKQUEUE_PRIORITY+0x80006a55>
80005c10:	faf41ce3          	bne	s0,a5,80005bc8 <__swsetup_r+0x44>
80005c14:	00c4a403          	lw	s0,12(s1)
80005c18:	fb1ff06f          	j	80005bc8 <__swsetup_r+0x44>
80005c1c:	0047f793          	andi	a5,a5,4
80005c20:	02078c63          	beqz	a5,80005c58 <__swsetup_r+0xd4>
80005c24:	03442583          	lw	a1,52(s0)
80005c28:	00058c63          	beqz	a1,80005c40 <__swsetup_r+0xbc>
80005c2c:	04440793          	addi	a5,s0,68
80005c30:	00f58663          	beq	a1,a5,80005c3c <__swsetup_r+0xb8>
80005c34:	00090513          	mv	a0,s2
80005c38:	b59fe0ef          	jal	ra,80004790 <_free_r>
80005c3c:	02042a23          	sw	zero,52(s0)
80005c40:	00c45783          	lhu	a5,12(s0)
80005c44:	00042223          	sw	zero,4(s0)
80005c48:	fdb7f793          	andi	a5,a5,-37
80005c4c:	00f41623          	sh	a5,12(s0)
80005c50:	01042783          	lw	a5,16(s0)
80005c54:	00f42023          	sw	a5,0(s0)
80005c58:	00c45783          	lhu	a5,12(s0)
80005c5c:	0087e793          	ori	a5,a5,8
80005c60:	00f41623          	sh	a5,12(s0)
80005c64:	01042783          	lw	a5,16(s0)
80005c68:	02079063          	bnez	a5,80005c88 <__swsetup_r+0x104>
80005c6c:	00c45783          	lhu	a5,12(s0)
80005c70:	20000713          	li	a4,512
80005c74:	2807f793          	andi	a5,a5,640
80005c78:	00e78863          	beq	a5,a4,80005c88 <__swsetup_r+0x104>
80005c7c:	00040593          	mv	a1,s0
80005c80:	00090513          	mv	a0,s2
80005c84:	458000ef          	jal	ra,800060dc <__smakebuf_r>
80005c88:	00c41783          	lh	a5,12(s0)
80005c8c:	0017f713          	andi	a4,a5,1
80005c90:	04070063          	beqz	a4,80005cd0 <__swsetup_r+0x14c>
80005c94:	01442703          	lw	a4,20(s0)
80005c98:	00042423          	sw	zero,8(s0)
80005c9c:	40e00733          	neg	a4,a4
80005ca0:	00e42c23          	sw	a4,24(s0)
80005ca4:	01042703          	lw	a4,16(s0)
80005ca8:	00000513          	li	a0,0
80005cac:	00071663          	bnez	a4,80005cb8 <__swsetup_r+0x134>
80005cb0:	0807f713          	andi	a4,a5,128
80005cb4:	f20718e3          	bnez	a4,80005be4 <__swsetup_r+0x60>
80005cb8:	00c12083          	lw	ra,12(sp)
80005cbc:	00812403          	lw	s0,8(sp)
80005cc0:	00412483          	lw	s1,4(sp)
80005cc4:	00012903          	lw	s2,0(sp)
80005cc8:	01010113          	addi	sp,sp,16
80005ccc:	00008067          	ret
80005cd0:	0027f713          	andi	a4,a5,2
80005cd4:	00000693          	li	a3,0
80005cd8:	00071463          	bnez	a4,80005ce0 <__swsetup_r+0x15c>
80005cdc:	01442683          	lw	a3,20(s0)
80005ce0:	00d42423          	sw	a3,8(s0)
80005ce4:	fc1ff06f          	j	80005ca4 <__swsetup_r+0x120>

80005ce8 <_close_r>:
80005ce8:	ff010113          	addi	sp,sp,-16
80005cec:	00812423          	sw	s0,8(sp)
80005cf0:	00912223          	sw	s1,4(sp)
80005cf4:	00050413          	mv	s0,a0
80005cf8:	800074b7          	lui	s1,0x80007
80005cfc:	00058513          	mv	a0,a1
80005d00:	00112623          	sw	ra,12(sp)
80005d04:	b804a223          	sw	zero,-1148(s1) # 80006b84 <CONFIG_SYSTEM_WORKQUEUE_PRIORITY+0x80006b85>
80005d08:	ae8fc0ef          	jal	ra,80001ff0 <_close>
80005d0c:	fff00793          	li	a5,-1
80005d10:	00f51863          	bne	a0,a5,80005d20 <_close_r+0x38>
80005d14:	b844a783          	lw	a5,-1148(s1)
80005d18:	00078463          	beqz	a5,80005d20 <_close_r+0x38>
80005d1c:	00f42023          	sw	a5,0(s0)
80005d20:	00c12083          	lw	ra,12(sp)
80005d24:	00812403          	lw	s0,8(sp)
80005d28:	00412483          	lw	s1,4(sp)
80005d2c:	01010113          	addi	sp,sp,16
80005d30:	00008067          	ret

80005d34 <__sflush_r>:
80005d34:	00c59783          	lh	a5,12(a1)
80005d38:	fe010113          	addi	sp,sp,-32
80005d3c:	00812c23          	sw	s0,24(sp)
80005d40:	00912a23          	sw	s1,20(sp)
80005d44:	00112e23          	sw	ra,28(sp)
80005d48:	01212823          	sw	s2,16(sp)
80005d4c:	01312623          	sw	s3,12(sp)
80005d50:	0087f713          	andi	a4,a5,8
80005d54:	00050493          	mv	s1,a0
80005d58:	00058413          	mv	s0,a1
80005d5c:	14071063          	bnez	a4,80005e9c <__sflush_r+0x168>
80005d60:	0045a703          	lw	a4,4(a1)
80005d64:	00e04663          	bgtz	a4,80005d70 <__sflush_r+0x3c>
80005d68:	0405a703          	lw	a4,64(a1)
80005d6c:	0ee05263          	blez	a4,80005e50 <__sflush_r+0x11c>
80005d70:	02c42703          	lw	a4,44(s0)
80005d74:	0c070e63          	beqz	a4,80005e50 <__sflush_r+0x11c>
80005d78:	00c7d793          	srli	a5,a5,0xc
80005d7c:	0004a903          	lw	s2,0(s1)
80005d80:	0017f793          	andi	a5,a5,1
80005d84:	0004a023          	sw	zero,0(s1)
80005d88:	02042583          	lw	a1,32(s0)
80005d8c:	08078663          	beqz	a5,80005e18 <__sflush_r+0xe4>
80005d90:	05442603          	lw	a2,84(s0)
80005d94:	00c45783          	lhu	a5,12(s0)
80005d98:	0047f793          	andi	a5,a5,4
80005d9c:	00078e63          	beqz	a5,80005db8 <__sflush_r+0x84>
80005da0:	00442783          	lw	a5,4(s0)
80005da4:	40f60633          	sub	a2,a2,a5
80005da8:	03442783          	lw	a5,52(s0)
80005dac:	00078663          	beqz	a5,80005db8 <__sflush_r+0x84>
80005db0:	04042783          	lw	a5,64(s0)
80005db4:	40f60633          	sub	a2,a2,a5
80005db8:	02c42783          	lw	a5,44(s0)
80005dbc:	02042583          	lw	a1,32(s0)
80005dc0:	00000693          	li	a3,0
80005dc4:	00048513          	mv	a0,s1
80005dc8:	000780e7          	jalr	a5
80005dcc:	fff00793          	li	a5,-1
80005dd0:	08f50463          	beq	a0,a5,80005e58 <__sflush_r+0x124>
80005dd4:	01042783          	lw	a5,16(s0)
80005dd8:	00001737          	lui	a4,0x1
80005ddc:	00042223          	sw	zero,4(s0)
80005de0:	00f42023          	sw	a5,0(s0)
80005de4:	00c45783          	lhu	a5,12(s0)
80005de8:	00e7f7b3          	and	a5,a5,a4
80005dec:	00078463          	beqz	a5,80005df4 <__sflush_r+0xc0>
80005df0:	04a42a23          	sw	a0,84(s0)
80005df4:	03442583          	lw	a1,52(s0)
80005df8:	0124a023          	sw	s2,0(s1)
80005dfc:	04058a63          	beqz	a1,80005e50 <__sflush_r+0x11c>
80005e00:	04440793          	addi	a5,s0,68
80005e04:	00f58663          	beq	a1,a5,80005e10 <__sflush_r+0xdc>
80005e08:	00048513          	mv	a0,s1
80005e0c:	985fe0ef          	jal	ra,80004790 <_free_r>
80005e10:	02042a23          	sw	zero,52(s0)
80005e14:	03c0006f          	j	80005e50 <__sflush_r+0x11c>
80005e18:	00000613          	li	a2,0
80005e1c:	00100693          	li	a3,1
80005e20:	00048513          	mv	a0,s1
80005e24:	000700e7          	jalr	a4 # 1000 <CONFIG_ISR_STACK_SIZE>
80005e28:	fff00793          	li	a5,-1
80005e2c:	00050613          	mv	a2,a0
80005e30:	f6f512e3          	bne	a0,a5,80005d94 <__sflush_r+0x60>
80005e34:	0004a783          	lw	a5,0(s1)
80005e38:	f4078ee3          	beqz	a5,80005d94 <__sflush_r+0x60>
80005e3c:	01d00713          	li	a4,29
80005e40:	00e78663          	beq	a5,a4,80005e4c <__sflush_r+0x118>
80005e44:	01600713          	li	a4,22
80005e48:	08e79e63          	bne	a5,a4,80005ee4 <__sflush_r+0x1b0>
80005e4c:	0124a023          	sw	s2,0(s1)
80005e50:	00000513          	li	a0,0
80005e54:	0a00006f          	j	80005ef4 <__sflush_r+0x1c0>
80005e58:	0004a703          	lw	a4,0(s1)
80005e5c:	00c41783          	lh	a5,12(s0)
80005e60:	02070263          	beqz	a4,80005e84 <__sflush_r+0x150>
80005e64:	01d00693          	li	a3,29
80005e68:	00d70663          	beq	a4,a3,80005e74 <__sflush_r+0x140>
80005e6c:	01600693          	li	a3,22
80005e70:	06d71c63          	bne	a4,a3,80005ee8 <__sflush_r+0x1b4>
80005e74:	01042783          	lw	a5,16(s0)
80005e78:	00042223          	sw	zero,4(s0)
80005e7c:	00f42023          	sw	a5,0(s0)
80005e80:	f75ff06f          	j	80005df4 <__sflush_r+0xc0>
80005e84:	01042703          	lw	a4,16(s0)
80005e88:	00c7d793          	srli	a5,a5,0xc
80005e8c:	00042223          	sw	zero,4(s0)
80005e90:	00e42023          	sw	a4,0(s0)
80005e94:	0017f793          	andi	a5,a5,1
80005e98:	f55ff06f          	j	80005dec <__sflush_r+0xb8>
80005e9c:	0105a983          	lw	s3,16(a1)
80005ea0:	fa0988e3          	beqz	s3,80005e50 <__sflush_r+0x11c>
80005ea4:	0005a903          	lw	s2,0(a1)
80005ea8:	0037f793          	andi	a5,a5,3
80005eac:	0135a023          	sw	s3,0(a1)
80005eb0:	41390933          	sub	s2,s2,s3
80005eb4:	00000713          	li	a4,0
80005eb8:	00079463          	bnez	a5,80005ec0 <__sflush_r+0x18c>
80005ebc:	0145a703          	lw	a4,20(a1)
80005ec0:	00e42423          	sw	a4,8(s0)
80005ec4:	f92056e3          	blez	s2,80005e50 <__sflush_r+0x11c>
80005ec8:	02842783          	lw	a5,40(s0)
80005ecc:	02042583          	lw	a1,32(s0)
80005ed0:	00090693          	mv	a3,s2
80005ed4:	00098613          	mv	a2,s3
80005ed8:	00048513          	mv	a0,s1
80005edc:	000780e7          	jalr	a5
80005ee0:	02a04863          	bgtz	a0,80005f10 <__sflush_r+0x1dc>
80005ee4:	00c41783          	lh	a5,12(s0)
80005ee8:	0407e793          	ori	a5,a5,64
80005eec:	00f41623          	sh	a5,12(s0)
80005ef0:	fff00513          	li	a0,-1
80005ef4:	01c12083          	lw	ra,28(sp)
80005ef8:	01812403          	lw	s0,24(sp)
80005efc:	01412483          	lw	s1,20(sp)
80005f00:	01012903          	lw	s2,16(sp)
80005f04:	00c12983          	lw	s3,12(sp)
80005f08:	02010113          	addi	sp,sp,32
80005f0c:	00008067          	ret
80005f10:	00a989b3          	add	s3,s3,a0
80005f14:	40a90933          	sub	s2,s2,a0
80005f18:	fadff06f          	j	80005ec4 <__sflush_r+0x190>

80005f1c <_fflush_r>:
80005f1c:	0105a783          	lw	a5,16(a1)
80005f20:	ff010113          	addi	sp,sp,-16
80005f24:	00112623          	sw	ra,12(sp)
80005f28:	00812423          	sw	s0,8(sp)
80005f2c:	00912223          	sw	s1,4(sp)
80005f30:	02079063          	bnez	a5,80005f50 <_fflush_r+0x34>
80005f34:	00000493          	li	s1,0
80005f38:	00c12083          	lw	ra,12(sp)
80005f3c:	00812403          	lw	s0,8(sp)
80005f40:	00048513          	mv	a0,s1
80005f44:	00412483          	lw	s1,4(sp)
80005f48:	01010113          	addi	sp,sp,16
80005f4c:	00008067          	ret
80005f50:	00050493          	mv	s1,a0
80005f54:	00058413          	mv	s0,a1
80005f58:	00050863          	beqz	a0,80005f68 <_fflush_r+0x4c>
80005f5c:	01852783          	lw	a5,24(a0)
80005f60:	00079463          	bnez	a5,80005f68 <_fflush_r+0x4c>
80005f64:	c91fe0ef          	jal	ra,80004bf4 <__sinit>
80005f68:	800077b7          	lui	a5,0x80007
80005f6c:	a9478793          	addi	a5,a5,-1388 # 80006a94 <CONFIG_SYSTEM_WORKQUEUE_PRIORITY+0x80006a95>
80005f70:	06f41063          	bne	s0,a5,80005fd0 <_fflush_r+0xb4>
80005f74:	0044a403          	lw	s0,4(s1)
80005f78:	00c41783          	lh	a5,12(s0)
80005f7c:	fa078ce3          	beqz	a5,80005f34 <_fflush_r+0x18>
80005f80:	06442703          	lw	a4,100(s0)
80005f84:	00177713          	andi	a4,a4,1
80005f88:	00071a63          	bnez	a4,80005f9c <_fflush_r+0x80>
80005f8c:	2007f793          	andi	a5,a5,512
80005f90:	00079663          	bnez	a5,80005f9c <_fflush_r+0x80>
80005f94:	05842503          	lw	a0,88(s0)
80005f98:	8e8fc0ef          	jal	ra,80002080 <__retarget_lock_acquire_recursive>
80005f9c:	00048513          	mv	a0,s1
80005fa0:	00040593          	mv	a1,s0
80005fa4:	d91ff0ef          	jal	ra,80005d34 <__sflush_r>
80005fa8:	06442783          	lw	a5,100(s0)
80005fac:	00050493          	mv	s1,a0
80005fb0:	0017f793          	andi	a5,a5,1
80005fb4:	f80792e3          	bnez	a5,80005f38 <_fflush_r+0x1c>
80005fb8:	00c45783          	lhu	a5,12(s0)
80005fbc:	2007f793          	andi	a5,a5,512
80005fc0:	f6079ce3          	bnez	a5,80005f38 <_fflush_r+0x1c>
80005fc4:	05842503          	lw	a0,88(s0)
80005fc8:	8d8fc0ef          	jal	ra,800020a0 <__retarget_lock_release_recursive>
80005fcc:	f6dff06f          	j	80005f38 <_fflush_r+0x1c>
80005fd0:	800077b7          	lui	a5,0x80007
80005fd4:	a7478793          	addi	a5,a5,-1420 # 80006a74 <CONFIG_SYSTEM_WORKQUEUE_PRIORITY+0x80006a75>
80005fd8:	00f41663          	bne	s0,a5,80005fe4 <_fflush_r+0xc8>
80005fdc:	0084a403          	lw	s0,8(s1)
80005fe0:	f99ff06f          	j	80005f78 <_fflush_r+0x5c>
80005fe4:	800077b7          	lui	a5,0x80007
80005fe8:	a5478793          	addi	a5,a5,-1452 # 80006a54 <CONFIG_SYSTEM_WORKQUEUE_PRIORITY+0x80006a55>
80005fec:	f8f416e3          	bne	s0,a5,80005f78 <_fflush_r+0x5c>
80005ff0:	00c4a403          	lw	s0,12(s1)
80005ff4:	f85ff06f          	j	80005f78 <_fflush_r+0x5c>

80005ff8 <_lseek_r>:
80005ff8:	ff010113          	addi	sp,sp,-16
80005ffc:	00812423          	sw	s0,8(sp)
80006000:	00912223          	sw	s1,4(sp)
80006004:	00050413          	mv	s0,a0
80006008:	800074b7          	lui	s1,0x80007
8000600c:	00058513          	mv	a0,a1
80006010:	00060593          	mv	a1,a2
80006014:	00068613          	mv	a2,a3
80006018:	00112623          	sw	ra,12(sp)
8000601c:	b804a223          	sw	zero,-1148(s1) # 80006b84 <CONFIG_SYSTEM_WORKQUEUE_PRIORITY+0x80006b85>
80006020:	fd9fb0ef          	jal	ra,80001ff8 <_lseek>
80006024:	fff00793          	li	a5,-1
80006028:	00f51863          	bne	a0,a5,80006038 <_lseek_r+0x40>
8000602c:	b844a783          	lw	a5,-1148(s1)
80006030:	00078463          	beqz	a5,80006038 <_lseek_r+0x40>
80006034:	00f42023          	sw	a5,0(s0)
80006038:	00c12083          	lw	ra,12(sp)
8000603c:	00812403          	lw	s0,8(sp)
80006040:	00412483          	lw	s1,4(sp)
80006044:	01010113          	addi	sp,sp,16
80006048:	00008067          	ret

8000604c <__swhatbuf_r>:
8000604c:	f9010113          	addi	sp,sp,-112
80006050:	06812423          	sw	s0,104(sp)
80006054:	00058413          	mv	s0,a1
80006058:	00e59583          	lh	a1,14(a1)
8000605c:	06912223          	sw	s1,100(sp)
80006060:	07212023          	sw	s2,96(sp)
80006064:	06112623          	sw	ra,108(sp)
80006068:	00060493          	mv	s1,a2
8000606c:	00068913          	mv	s2,a3
80006070:	0205dc63          	bgez	a1,800060a8 <__swhatbuf_r+0x5c>
80006074:	00c45783          	lhu	a5,12(s0)
80006078:	0807f793          	andi	a5,a5,128
8000607c:	04079a63          	bnez	a5,800060d0 <__swhatbuf_r+0x84>
80006080:	40000713          	li	a4,1024
80006084:	06c12083          	lw	ra,108(sp)
80006088:	06812403          	lw	s0,104(sp)
8000608c:	00f92023          	sw	a5,0(s2)
80006090:	00e4a023          	sw	a4,0(s1)
80006094:	06012903          	lw	s2,96(sp)
80006098:	06412483          	lw	s1,100(sp)
8000609c:	00000513          	li	a0,0
800060a0:	07010113          	addi	sp,sp,112
800060a4:	00008067          	ret
800060a8:	00810613          	addi	a2,sp,8
800060ac:	1a0000ef          	jal	ra,8000624c <_fstat_r>
800060b0:	fc0542e3          	bltz	a0,80006074 <__swhatbuf_r+0x28>
800060b4:	00c12703          	lw	a4,12(sp)
800060b8:	0000f7b7          	lui	a5,0xf
800060bc:	00e7f7b3          	and	a5,a5,a4
800060c0:	ffffe737          	lui	a4,0xffffe
800060c4:	00e787b3          	add	a5,a5,a4
800060c8:	0017b793          	seqz	a5,a5
800060cc:	fb5ff06f          	j	80006080 <__swhatbuf_r+0x34>
800060d0:	00000793          	li	a5,0
800060d4:	04000713          	li	a4,64
800060d8:	fadff06f          	j	80006084 <__swhatbuf_r+0x38>

800060dc <__smakebuf_r>:
800060dc:	00c5d783          	lhu	a5,12(a1)
800060e0:	fd010113          	addi	sp,sp,-48
800060e4:	02812423          	sw	s0,40(sp)
800060e8:	02112623          	sw	ra,44(sp)
800060ec:	02912223          	sw	s1,36(sp)
800060f0:	03212023          	sw	s2,32(sp)
800060f4:	01312e23          	sw	s3,28(sp)
800060f8:	0027f793          	andi	a5,a5,2
800060fc:	00058413          	mv	s0,a1
80006100:	02078a63          	beqz	a5,80006134 <__smakebuf_r+0x58>
80006104:	04740793          	addi	a5,s0,71
80006108:	00f42023          	sw	a5,0(s0)
8000610c:	00f42823          	sw	a5,16(s0)
80006110:	00100793          	li	a5,1
80006114:	00f42a23          	sw	a5,20(s0)
80006118:	02c12083          	lw	ra,44(sp)
8000611c:	02812403          	lw	s0,40(sp)
80006120:	02412483          	lw	s1,36(sp)
80006124:	02012903          	lw	s2,32(sp)
80006128:	01c12983          	lw	s3,28(sp)
8000612c:	03010113          	addi	sp,sp,48
80006130:	00008067          	ret
80006134:	00c10693          	addi	a3,sp,12
80006138:	00810613          	addi	a2,sp,8
8000613c:	00050493          	mv	s1,a0
80006140:	f0dff0ef          	jal	ra,8000604c <__swhatbuf_r>
80006144:	00812983          	lw	s3,8(sp)
80006148:	00050913          	mv	s2,a0
8000614c:	00048513          	mv	a0,s1
80006150:	00098593          	mv	a1,s3
80006154:	f38fe0ef          	jal	ra,8000488c <_malloc_r>
80006158:	02051063          	bnez	a0,80006178 <__smakebuf_r+0x9c>
8000615c:	00c41783          	lh	a5,12(s0)
80006160:	2007f713          	andi	a4,a5,512
80006164:	fa071ae3          	bnez	a4,80006118 <__smakebuf_r+0x3c>
80006168:	ffc7f793          	andi	a5,a5,-4
8000616c:	0027e793          	ori	a5,a5,2
80006170:	00f41623          	sh	a5,12(s0)
80006174:	f91ff06f          	j	80006104 <__smakebuf_r+0x28>
80006178:	800057b7          	lui	a5,0x80005
8000617c:	b5c78793          	addi	a5,a5,-1188 # 80004b5c <CONFIG_SYSTEM_WORKQUEUE_PRIORITY+0x80004b5d>
80006180:	02f4a423          	sw	a5,40(s1)
80006184:	00c45783          	lhu	a5,12(s0)
80006188:	00a42023          	sw	a0,0(s0)
8000618c:	00a42823          	sw	a0,16(s0)
80006190:	0807e793          	ori	a5,a5,128
80006194:	00f41623          	sh	a5,12(s0)
80006198:	00c12783          	lw	a5,12(sp)
8000619c:	01342a23          	sw	s3,20(s0)
800061a0:	02078263          	beqz	a5,800061c4 <__smakebuf_r+0xe8>
800061a4:	00e41583          	lh	a1,14(s0)
800061a8:	00048513          	mv	a0,s1
800061ac:	0f0000ef          	jal	ra,8000629c <_isatty_r>
800061b0:	00050a63          	beqz	a0,800061c4 <__smakebuf_r+0xe8>
800061b4:	00c45783          	lhu	a5,12(s0)
800061b8:	ffc7f793          	andi	a5,a5,-4
800061bc:	0017e793          	ori	a5,a5,1
800061c0:	00f41623          	sh	a5,12(s0)
800061c4:	00c45783          	lhu	a5,12(s0)
800061c8:	0127e533          	or	a0,a5,s2
800061cc:	00a41623          	sh	a0,12(s0)
800061d0:	f49ff06f          	j	80006118 <__smakebuf_r+0x3c>

800061d4 <memchr>:
800061d4:	0ff5f593          	zext.b	a1,a1
800061d8:	00c50633          	add	a2,a0,a2
800061dc:	00c51663          	bne	a0,a2,800061e8 <memchr+0x14>
800061e0:	00000513          	li	a0,0
800061e4:	00008067          	ret
800061e8:	00054783          	lbu	a5,0(a0)
800061ec:	feb78ce3          	beq	a5,a1,800061e4 <memchr+0x10>
800061f0:	00150513          	addi	a0,a0,1
800061f4:	fe9ff06f          	j	800061dc <memchr+0x8>

800061f8 <_read_r>:
800061f8:	ff010113          	addi	sp,sp,-16
800061fc:	00812423          	sw	s0,8(sp)
80006200:	00912223          	sw	s1,4(sp)
80006204:	00050413          	mv	s0,a0
80006208:	800074b7          	lui	s1,0x80007
8000620c:	00058513          	mv	a0,a1
80006210:	00060593          	mv	a1,a2
80006214:	00068613          	mv	a2,a3
80006218:	00112623          	sw	ra,12(sp)
8000621c:	b804a223          	sw	zero,-1148(s1) # 80006b84 <CONFIG_SYSTEM_WORKQUEUE_PRIORITY+0x80006b85>
80006220:	d91fb0ef          	jal	ra,80001fb0 <_read>
80006224:	fff00793          	li	a5,-1
80006228:	00f51863          	bne	a0,a5,80006238 <_read_r+0x40>
8000622c:	b844a783          	lw	a5,-1148(s1)
80006230:	00078463          	beqz	a5,80006238 <_read_r+0x40>
80006234:	00f42023          	sw	a5,0(s0)
80006238:	00c12083          	lw	ra,12(sp)
8000623c:	00812403          	lw	s0,8(sp)
80006240:	00412483          	lw	s1,4(sp)
80006244:	01010113          	addi	sp,sp,16
80006248:	00008067          	ret

8000624c <_fstat_r>:
8000624c:	ff010113          	addi	sp,sp,-16
80006250:	00812423          	sw	s0,8(sp)
80006254:	00912223          	sw	s1,4(sp)
80006258:	00050413          	mv	s0,a0
8000625c:	800074b7          	lui	s1,0x80007
80006260:	00058513          	mv	a0,a1
80006264:	00060593          	mv	a1,a2
80006268:	00112623          	sw	ra,12(sp)
8000626c:	b804a223          	sw	zero,-1148(s1) # 80006b84 <CONFIG_SYSTEM_WORKQUEUE_PRIORITY+0x80006b85>
80006270:	d99fb0ef          	jal	ra,80002008 <_fstat>
80006274:	fff00793          	li	a5,-1
80006278:	00f51863          	bne	a0,a5,80006288 <_fstat_r+0x3c>
8000627c:	b844a783          	lw	a5,-1148(s1)
80006280:	00078463          	beqz	a5,80006288 <_fstat_r+0x3c>
80006284:	00f42023          	sw	a5,0(s0)
80006288:	00c12083          	lw	ra,12(sp)
8000628c:	00812403          	lw	s0,8(sp)
80006290:	00412483          	lw	s1,4(sp)
80006294:	01010113          	addi	sp,sp,16
80006298:	00008067          	ret

8000629c <_isatty_r>:
8000629c:	ff010113          	addi	sp,sp,-16
800062a0:	00812423          	sw	s0,8(sp)
800062a4:	00912223          	sw	s1,4(sp)
800062a8:	00050413          	mv	s0,a0
800062ac:	800074b7          	lui	s1,0x80007
800062b0:	00058513          	mv	a0,a1
800062b4:	00112623          	sw	ra,12(sp)
800062b8:	b804a223          	sw	zero,-1148(s1) # 80006b84 <CONFIG_SYSTEM_WORKQUEUE_PRIORITY+0x80006b85>
800062bc:	d45fb0ef          	jal	ra,80002000 <_isatty>
800062c0:	fff00793          	li	a5,-1
800062c4:	00f51863          	bne	a0,a5,800062d4 <_isatty_r+0x38>
800062c8:	b844a783          	lw	a5,-1148(s1)
800062cc:	00078463          	beqz	a5,800062d4 <_isatty_r+0x38>
800062d0:	00f42023          	sw	a5,0(s0)
800062d4:	00c12083          	lw	ra,12(sp)
800062d8:	00812403          	lw	s0,8(sp)
800062dc:	00412483          	lw	s1,4(sp)
800062e0:	01010113          	addi	sp,sp,16
800062e4:	00008067          	ret
