
zephyr.elf:     file format elf32-littleriscv


Disassembly of section rom_start:

80000000 <__start>:
SECTION_FUNC(vectors, __start)
#if defined(CONFIG_RISCV_GP)
	/* Initialize global pointer */
	.option push
	.option norelax
	la gp, __global_pointer$
80000000:	0000a197          	auipc	gp,0xa
80000004:	bf018193          	addi	gp,gp,-1040 # 80009bf0 <__global_pointer$>
#else
	/*
	 * Set mtvec (Machine Trap-Vector Base-Address Register)
	 * to _isr_wrapper.
	 */
	la t0, _isr_wrapper
80000008:	00000297          	auipc	t0,0x0
8000000c:	01428293          	addi	t0,t0,20 # 8000001c <_isr_wrapper>
#endif

	csrw mtvec, t0
80000010:	30529073          	csrw	mtvec,t0

	/* Jump to __reset */
	tail __reset
80000014:	0040006f          	j	80000018 <__reset>

Disassembly of section reset:

80000018 <__reset>:
	/*
	 * jump to __initialize
	 * use call opcode in case __initialize is far away.
	 * This will be dependent on linker.ld configuration.
	 */
	call __initialize
80000018:	5c9010ef          	jal	ra,80001de0 <__initialize>

Disassembly of section exceptions:

8000001c <_isr_wrapper>:
	csrrw sp, mscratch, sp
1:
#endif

	/* Save caller-saved registers on current thread stack. */
	addi sp, sp, -__z_arch_esf_t_SIZEOF
8000001c:	fb010113          	addi	sp,sp,-80
	DO_CALLER_SAVED(sr)		;
80000020:	00512223          	sw	t0,4(sp)
80000024:	00612423          	sw	t1,8(sp)
80000028:	00712623          	sw	t2,12(sp)
8000002c:	01c12823          	sw	t3,16(sp)
80000030:	01d12a23          	sw	t4,20(sp)
80000034:	01e12c23          	sw	t5,24(sp)
80000038:	01f12e23          	sw	t6,28(sp)
8000003c:	02a12023          	sw	a0,32(sp)
80000040:	02b12223          	sw	a1,36(sp)
80000044:	02c12423          	sw	a2,40(sp)
80000048:	02d12623          	sw	a3,44(sp)
8000004c:	02e12823          	sw	a4,48(sp)
80000050:	02f12a23          	sw	a5,52(sp)
80000054:	03012c23          	sw	a6,56(sp)
80000058:	03112e23          	sw	a7,60(sp)
8000005c:	00112023          	sw	ra,0(sp)

	/* Save s0 in the esf and load it with &_current_cpu. */
	sr s0, __z_arch_esf_t_s0_OFFSET(sp)
80000060:	04812423          	sw	s0,72(sp)
	GET_CURRENT_CPU(s0, t0)
80000064:	00007417          	auipc	s0,0x7
80000068:	eec40413          	addi	s0,s0,-276 # 80006f50 <_kernel>
	add t0, t0, tp, %tprel_add(is_user_mode)
	sb zero, %tprel_lo(is_user_mode)(t0)
#endif

	/* Save MEPC register */
	csrr t0, mepc
8000006c:	341022f3          	csrr	t0,mepc
	sr t0, __z_arch_esf_t_mepc_OFFSET(sp)
80000070:	04512023          	sw	t0,64(sp)

	/* Save MSTATUS register */
	csrr t2, mstatus
80000074:	300023f3          	csrr	t2,mstatus
	sr t2, __z_arch_esf_t_mstatus_OFFSET(sp)
80000078:	04712223          	sw	t2,68(sp)
	 * SOCs (like pulpino or riscv-qemu), the MSB is never set to indicate
	 * interrupt. Hence, check for interrupt/exception via the __soc_is_irq
	 * function (that needs to be implemented by each SOC). The result is
	 * returned via register a0 (1: interrupt, 0 exception)
	 */
	jal ra, __soc_is_irq
8000007c:	14c000ef          	jal	ra,800001c8 <__soc_is_irq>

	/* If a0 != 0, jump to is_interrupt */
	bnez a0, is_interrupt
80000080:	04051a63          	bnez	a0,800000d4 <is_interrupt>
	/*
	 * If the exception is the result of an ECALL, check whether to
	 * perform a context-switch or an IRQ offload. Otherwise call _Fault
	 * to report the exception.
	 */
	csrr t0, mcause
80000084:	342022f3          	csrr	t0,mcause
	li t2, SOC_MCAUSE_EXP_MASK
80000088:	800003b7          	lui	t2,0x80000
8000008c:	fff38393          	addi	t2,t2,-1 # 7fffffff <CONFIG_SYSTEM_WORKQUEUE_PRIORITY+0x80000000>
	and t0, t0, t2
80000090:	0072f2b3          	and	t0,t0,t2

	/*
	 * If mcause == SOC_MCAUSE_ECALL_EXP, handle system call from
	 * kernel thread.
	 */
	li t1, SOC_MCAUSE_ECALL_EXP
80000094:	00b00313          	li	t1,11
	beq t0, t1, is_kernel_syscall
80000098:	00628a63          	beq	t0,t1,800000ac <is_kernel_syscall>
	 * Stack pointer is pointing to a z_arch_esf_t structure, pass it
	 * to _Fault (via register a0).
	 * If _Fault shall return, set return address to
	 * no_reschedule to restore stack.
	 */
	mv a0, sp
8000009c:	00010513          	mv	a0,sp
	la ra, no_reschedule
800000a0:	00000097          	auipc	ra,0x0
800000a4:	0bc08093          	addi	ra,ra,188 # 8000015c <z_riscv_thread_start>
	tail _Fault
800000a8:	4d50106f          	j	80001d7c <_Fault>

800000ac <is_kernel_syscall>:
	 * again upon exiting the ISR.
	 *
	 * It's safe to always increment by 4, even with compressed
	 * instructions, because the ecall instruction is always 4 bytes.
	 */
	lr t0, __z_arch_esf_t_mepc_OFFSET(sp)
800000ac:	04012283          	lw	t0,64(sp)
	addi t0, t0, 4
800000b0:	00428293          	addi	t0,t0,4
	sr t0, __z_arch_esf_t_mepc_OFFSET(sp)
800000b4:	04512023          	sw	t0,64(sp)
	li t1, MSTATUS_MPRV
	csrs mstatus, t1
#endif

	/* Determine what to do. Operation code is in t0. */
	lr t0, __z_arch_esf_t_t0_OFFSET(sp)
800000b8:	00412283          	lw	t0,4(sp)

	.if RV_ECALL_RUNTIME_EXCEPT != 0; .err; .endif
	beqz t0, do_fault
800000bc:	00028663          	beqz	t0,800000c8 <do_fault>
	j reschedule
skip_schedule:
#endif

	/* default fault code is K_ERR_KERNEL_OOPS */
	li a0, 3
800000c0:	00300513          	li	a0,3
	j 1f
800000c4:	0080006f          	j	800000cc <do_fault+0x4>

800000c8 <do_fault>:

do_fault:
	/* Handle RV_ECALL_RUNTIME_EXCEPT. Retrieve reason in a0, esf in A1. */
	lr a0, __z_arch_esf_t_a0_OFFSET(sp)
800000c8:	02012503          	lw	a0,32(sp)
1:	mv a1, sp
800000cc:	00010593          	mv	a1,sp
	tail z_riscv_fatal_error
800000d0:	49d0106f          	j	80001d6c <z_riscv_fatal_error>

800000d4 <is_interrupt>:
	csrs mstatus, t1
2:
#endif

	/* Increment _current_cpu->nested */
	lw t1, ___cpu_t_nested_OFFSET(s0)
800000d4:	00042303          	lw	t1,0(s0)
	addi t2, t1, 1
800000d8:	00130393          	addi	t2,t1,1
	sw t2, ___cpu_t_nested_OFFSET(s0)
800000dc:	00742023          	sw	t2,0(s0)
	bnez t1, on_irq_stack
800000e0:	00031a63          	bnez	t1,800000f4 <on_irq_stack>

	/* Switch to interrupt stack */
	mv t0, sp
800000e4:	00010293          	mv	t0,sp
	lr sp, ___cpu_t_irq_stack_OFFSET(s0)
800000e8:	00442103          	lw	sp,4(s0)

	/*
	 * Save thread stack pointer on interrupt stack
	 * In RISC-V, stack pointer needs to be 16-byte aligned
	 */
	addi sp, sp, -16
800000ec:	ff010113          	addi	sp,sp,-16
	sr t0, 0(sp)
800000f0:	00512023          	sw	t0,0(sp)

800000f4 <on_irq_stack>:
#ifdef CONFIG_TRACING_ISR
	call sys_trace_isr_enter
#endif

	/* Get IRQ causing interrupt */
	csrr a0, mcause
800000f4:	34202573          	csrr	a0,mcause
	li t0, SOC_MCAUSE_EXP_MASK
800000f8:	800002b7          	lui	t0,0x80000
800000fc:	fff28293          	addi	t0,t0,-1 # 7fffffff <CONFIG_SYSTEM_WORKQUEUE_PRIORITY+0x80000000>
	and a0, a0, t0
80000100:	00557533          	and	a0,a0,t0

	/*
	 * Clear pending IRQ generating the interrupt at SOC level
	 * Pass IRQ number to __soc_handle_irq via register a0
	 */
	jal ra, __soc_handle_irq
80000104:	0b4000ef          	jal	ra,800001b8 <__soc_handle_irq>

	/*
	 * Call corresponding registered function in _sw_isr_table.
	 * (table is 2-word wide, we should shift index accordingly)
	 */
	la t0, _sw_isr_table
80000108:	00006297          	auipc	t0,0x6
8000010c:	4a428293          	addi	t0,t0,1188 # 800065ac <_sw_isr_table>
	slli a0, a0, (RV_REGSHIFT + 1)
80000110:	00351513          	slli	a0,a0,0x3
	add t0, t0, a0
80000114:	00a282b3          	add	t0,t0,a0

	/* Load argument in a0 register */
	lr a0, 0(t0)
80000118:	0002a503          	lw	a0,0(t0)

	/* Load ISR function address in register t1 */
	lr t1, RV_REGSIZE(t0)
8000011c:	0042a303          	lw	t1,4(t0)

	/* Call ISR function */
	jalr ra, t1, 0
80000120:	000300e7          	jalr	t1

80000124 <irq_done>:
    call sys_trace_isr_exit
#endif

irq_done:
	/* Decrement _current_cpu->nested */
	lw t2, ___cpu_t_nested_OFFSET(s0)
80000124:	00042383          	lw	t2,0(s0)
	addi t2, t2, -1
80000128:	fff38393          	addi	t2,t2,-1
	sw t2, ___cpu_t_nested_OFFSET(s0)
8000012c:	00742023          	sw	t2,0(s0)
	bnez t2, no_reschedule
80000130:	02039663          	bnez	t2,8000015c <z_riscv_thread_start>

	/* nested count is back to 0: Return to thread stack */
	lr sp, 0(sp)
80000134:	00012103          	lw	sp,0(sp)

80000138 <check_reschedule>:
#endif

check_reschedule:

	/* Get pointer to current thread on this CPU */
	lr a1, ___cpu_t_current_OFFSET(s0)
80000138:	00842583          	lw	a1,8(s0)
	/*
	 * Get next thread to schedule with z_get_next_switch_handle().
	 * We pass it a NULL as we didn't save the whole thread context yet.
	 * If no scheduling is necessary then NULL will be returned.
	 */
	addi sp, sp, -16
8000013c:	ff010113          	addi	sp,sp,-16
	sr a1, 0(sp)
80000140:	00b12023          	sw	a1,0(sp)
	mv a0, zero
80000144:	00000513          	li	a0,0
	call z_get_next_switch_handle
80000148:	714030ef          	jal	ra,8000385c <z_get_next_switch_handle>
	lr a1, 0(sp)
8000014c:	00012583          	lw	a1,0(sp)
	addi sp, sp, 16
80000150:	01010113          	addi	sp,sp,16
	beqz a0, no_reschedule
80000154:	00050463          	beqz	a0,8000015c <z_riscv_thread_start>

80000158 <reschedule>:
	/*
	 * Perform context switch:
	 * a0 = new thread
	 * a1 = old thread
	 */
	call z_riscv_switch
80000158:	505010ef          	jal	ra,80001e5c <z_riscv_switch>

8000015c <z_riscv_thread_start>:
	addi a0, sp, __z_arch_esf_t_soc_context_OFFSET
	jal ra, __soc_restore_context
#endif /* CONFIG_RISCV_SOC_CONTEXT_SAVE */

	/* Restore MEPC register */
	lr t0, __z_arch_esf_t_mepc_OFFSET(sp)
8000015c:	04012283          	lw	t0,64(sp)
	csrw mepc, t0
80000160:	34129073          	csrw	mepc,t0

	/* Restore MSTATUS register */
	lr t2, __z_arch_esf_t_mstatus_OFFSET(sp)
80000164:	04412383          	lw	t2,68(sp)
	csrrw t0, mstatus, t2
80000168:	300392f3          	csrrw	t0,mstatus,t2
	csrw mscratch, t0
1:
#endif

	/* Restore s0 (it is no longer ours) */
	lr s0, __z_arch_esf_t_s0_OFFSET(sp)
8000016c:	04812403          	lw	s0,72(sp)

	/* Restore caller-saved registers from thread stack */
	DO_CALLER_SAVED(lr)
80000170:	00412283          	lw	t0,4(sp)
80000174:	00812303          	lw	t1,8(sp)
80000178:	00c12383          	lw	t2,12(sp)
8000017c:	01012e03          	lw	t3,16(sp)
80000180:	01412e83          	lw	t4,20(sp)
80000184:	01812f03          	lw	t5,24(sp)
80000188:	01c12f83          	lw	t6,28(sp)
8000018c:	02012503          	lw	a0,32(sp)
80000190:	02412583          	lw	a1,36(sp)
80000194:	02812603          	lw	a2,40(sp)
80000198:	02c12683          	lw	a3,44(sp)
8000019c:	03012703          	lw	a4,48(sp)
800001a0:	03412783          	lw	a5,52(sp)
800001a4:	03812803          	lw	a6,56(sp)
800001a8:	03c12883          	lw	a7,60(sp)
800001ac:	00012083          	lw	ra,0(sp)
#ifdef CONFIG_USERSPACE
	/* retrieve saved stack pointer */
	lr sp, __z_arch_esf_t_sp_OFFSET(sp)
#else
	/* remove esf from the stack */
	addi sp, sp, __z_arch_esf_t_SIZEOF
800001b0:	05010113          	addi	sp,sp,80
#endif

	mret
800001b4:	30200073          	mret

800001b8 <__soc_handle_irq>:
 * SOC-specific function to handle pending IRQ number generating the interrupt.
 * Exception number is given as parameter via register a0.
 */
SECTION_FUNC(exception.other, __soc_handle_irq)
	/* Clear exception number from CSR mip register */
	li t1, 1
800001b8:	00100313          	li	t1,1
	sll t0, t1, a0
800001bc:	00a312b3          	sll	t0,t1,a0
	csrrc t1, mip, t0
800001c0:	3442b373          	csrrc	t1,mip,t0

	/* Return */
	ret
800001c4:	00008067          	ret

800001c8 <__soc_is_irq>:
 * return 1 (interrupt) or 0 (exception)
 *
 */
SECTION_FUNC(exception.other, __soc_is_irq)
	/* Read mcause and check if interrupt bit is set */
	csrr t0, mcause
800001c8:	342022f3          	csrr	t0,mcause
	li t1, SOC_MCAUSE_IRQ_MASK
800001cc:	80000337          	lui	t1,0x80000
	and t0, t0, t1
800001d0:	0062f2b3          	and	t0,t0,t1

	/* If interrupt bit is not set, return with 0 */
	addi a0, x0, 0
800001d4:	00000513          	li	a0,0
	beqz t0, not_interrupt
800001d8:	00028463          	beqz	t0,800001e0 <not_interrupt>
	addi a0, a0, 1
800001dc:	00150513          	addi	a0,a0,1

800001e0 <not_interrupt>:

not_interrupt:
	/* return */
	ret
800001e0:	00008067          	ret

Disassembly of section text:

800001e4 <__udivdi3>:
800001e4:	00050893          	mv	a7,a0
800001e8:	00058313          	mv	t1,a1
800001ec:	00060713          	mv	a4,a2
800001f0:	00050813          	mv	a6,a0
800001f4:	00058793          	mv	a5,a1
800001f8:	28069263          	bnez	a3,8000047c <__udivdi3+0x298>
800001fc:	800065b7          	lui	a1,0x80006
80000200:	7b858593          	addi	a1,a1,1976 # 800067b8 <CONFIG_SYSTEM_WORKQUEUE_PRIORITY+0x800067b9>
80000204:	0ec37663          	bgeu	t1,a2,800002f0 <__udivdi3+0x10c>
80000208:	000106b7          	lui	a3,0x10
8000020c:	0cd67863          	bgeu	a2,a3,800002dc <__udivdi3+0xf8>
80000210:	10063693          	sltiu	a3,a2,256
80000214:	0016c693          	xori	a3,a3,1
80000218:	00369693          	slli	a3,a3,0x3
8000021c:	00d65533          	srl	a0,a2,a3
80000220:	00a585b3          	add	a1,a1,a0
80000224:	0005c583          	lbu	a1,0(a1)
80000228:	02000513          	li	a0,32
8000022c:	00d586b3          	add	a3,a1,a3
80000230:	40d505b3          	sub	a1,a0,a3
80000234:	00d50c63          	beq	a0,a3,8000024c <__udivdi3+0x68>
80000238:	00b317b3          	sll	a5,t1,a1
8000023c:	00d8d6b3          	srl	a3,a7,a3
80000240:	00b61733          	sll	a4,a2,a1
80000244:	00f6e7b3          	or	a5,a3,a5
80000248:	00b89833          	sll	a6,a7,a1
8000024c:	01075593          	srli	a1,a4,0x10
80000250:	02b7d333          	divu	t1,a5,a1
80000254:	01071613          	slli	a2,a4,0x10
80000258:	01065613          	srli	a2,a2,0x10
8000025c:	02b7f7b3          	remu	a5,a5,a1
80000260:	00030513          	mv	a0,t1
80000264:	026608b3          	mul	a7,a2,t1
80000268:	01079693          	slli	a3,a5,0x10
8000026c:	01085793          	srli	a5,a6,0x10
80000270:	00d7e7b3          	or	a5,a5,a3
80000274:	0117fe63          	bgeu	a5,a7,80000290 <__udivdi3+0xac>
80000278:	00f707b3          	add	a5,a4,a5
8000027c:	fff30513          	addi	a0,t1,-1 # 7fffffff <CONFIG_SYSTEM_WORKQUEUE_PRIORITY+0x80000000>
80000280:	00e7e863          	bltu	a5,a4,80000290 <__udivdi3+0xac>
80000284:	0117f663          	bgeu	a5,a7,80000290 <__udivdi3+0xac>
80000288:	ffe30513          	addi	a0,t1,-2
8000028c:	00e787b3          	add	a5,a5,a4
80000290:	411787b3          	sub	a5,a5,a7
80000294:	02b7d8b3          	divu	a7,a5,a1
80000298:	01081813          	slli	a6,a6,0x10
8000029c:	01085813          	srli	a6,a6,0x10
800002a0:	02b7f7b3          	remu	a5,a5,a1
800002a4:	031606b3          	mul	a3,a2,a7
800002a8:	01079793          	slli	a5,a5,0x10
800002ac:	00f86833          	or	a6,a6,a5
800002b0:	00088793          	mv	a5,a7
800002b4:	00d87c63          	bgeu	a6,a3,800002cc <__udivdi3+0xe8>
800002b8:	01070833          	add	a6,a4,a6
800002bc:	fff88793          	addi	a5,a7,-1
800002c0:	00e86663          	bltu	a6,a4,800002cc <__udivdi3+0xe8>
800002c4:	00d87463          	bgeu	a6,a3,800002cc <__udivdi3+0xe8>
800002c8:	ffe88793          	addi	a5,a7,-2
800002cc:	01051513          	slli	a0,a0,0x10
800002d0:	00f56533          	or	a0,a0,a5
800002d4:	00000593          	li	a1,0
800002d8:	00008067          	ret
800002dc:	01000537          	lui	a0,0x1000
800002e0:	01000693          	li	a3,16
800002e4:	f2a66ce3          	bltu	a2,a0,8000021c <__udivdi3+0x38>
800002e8:	01800693          	li	a3,24
800002ec:	f31ff06f          	j	8000021c <__udivdi3+0x38>
800002f0:	00000693          	li	a3,0
800002f4:	00060c63          	beqz	a2,8000030c <__udivdi3+0x128>
800002f8:	000107b7          	lui	a5,0x10
800002fc:	0cf67063          	bgeu	a2,a5,800003bc <__udivdi3+0x1d8>
80000300:	10063693          	sltiu	a3,a2,256
80000304:	0016c693          	xori	a3,a3,1
80000308:	00369693          	slli	a3,a3,0x3
8000030c:	00d657b3          	srl	a5,a2,a3
80000310:	00f585b3          	add	a1,a1,a5
80000314:	0005c783          	lbu	a5,0(a1)
80000318:	00d787b3          	add	a5,a5,a3
8000031c:	02000693          	li	a3,32
80000320:	40f685b3          	sub	a1,a3,a5
80000324:	0af69663          	bne	a3,a5,800003d0 <__udivdi3+0x1ec>
80000328:	40c307b3          	sub	a5,t1,a2
8000032c:	00100593          	li	a1,1
80000330:	01075893          	srli	a7,a4,0x10
80000334:	0317de33          	divu	t3,a5,a7
80000338:	01071613          	slli	a2,a4,0x10
8000033c:	01065613          	srli	a2,a2,0x10
80000340:	01085693          	srli	a3,a6,0x10
80000344:	0317f7b3          	remu	a5,a5,a7
80000348:	000e0513          	mv	a0,t3
8000034c:	03c60333          	mul	t1,a2,t3
80000350:	01079793          	slli	a5,a5,0x10
80000354:	00f6e7b3          	or	a5,a3,a5
80000358:	0067fe63          	bgeu	a5,t1,80000374 <__udivdi3+0x190>
8000035c:	00f707b3          	add	a5,a4,a5
80000360:	fffe0513          	addi	a0,t3,-1
80000364:	00e7e863          	bltu	a5,a4,80000374 <__udivdi3+0x190>
80000368:	0067f663          	bgeu	a5,t1,80000374 <__udivdi3+0x190>
8000036c:	ffee0513          	addi	a0,t3,-2
80000370:	00e787b3          	add	a5,a5,a4
80000374:	406787b3          	sub	a5,a5,t1
80000378:	0317d333          	divu	t1,a5,a7
8000037c:	01081813          	slli	a6,a6,0x10
80000380:	01085813          	srli	a6,a6,0x10
80000384:	0317f7b3          	remu	a5,a5,a7
80000388:	026606b3          	mul	a3,a2,t1
8000038c:	01079793          	slli	a5,a5,0x10
80000390:	00f86833          	or	a6,a6,a5
80000394:	00030793          	mv	a5,t1
80000398:	00d87c63          	bgeu	a6,a3,800003b0 <__udivdi3+0x1cc>
8000039c:	01070833          	add	a6,a4,a6
800003a0:	fff30793          	addi	a5,t1,-1
800003a4:	00e86663          	bltu	a6,a4,800003b0 <__udivdi3+0x1cc>
800003a8:	00d87463          	bgeu	a6,a3,800003b0 <__udivdi3+0x1cc>
800003ac:	ffe30793          	addi	a5,t1,-2
800003b0:	01051513          	slli	a0,a0,0x10
800003b4:	00f56533          	or	a0,a0,a5
800003b8:	00008067          	ret
800003bc:	010007b7          	lui	a5,0x1000
800003c0:	01000693          	li	a3,16
800003c4:	f4f664e3          	bltu	a2,a5,8000030c <__udivdi3+0x128>
800003c8:	01800693          	li	a3,24
800003cc:	f41ff06f          	j	8000030c <__udivdi3+0x128>
800003d0:	00b61733          	sll	a4,a2,a1
800003d4:	00f356b3          	srl	a3,t1,a5
800003d8:	01075513          	srli	a0,a4,0x10
800003dc:	00b31333          	sll	t1,t1,a1
800003e0:	00f8d7b3          	srl	a5,a7,a5
800003e4:	0067e7b3          	or	a5,a5,t1
800003e8:	02a6d333          	divu	t1,a3,a0
800003ec:	01071613          	slli	a2,a4,0x10
800003f0:	01065613          	srli	a2,a2,0x10
800003f4:	00b89833          	sll	a6,a7,a1
800003f8:	02a6f6b3          	remu	a3,a3,a0
800003fc:	026608b3          	mul	a7,a2,t1
80000400:	01069593          	slli	a1,a3,0x10
80000404:	0107d693          	srli	a3,a5,0x10
80000408:	00b6e6b3          	or	a3,a3,a1
8000040c:	00030593          	mv	a1,t1
80000410:	0116fe63          	bgeu	a3,a7,8000042c <__udivdi3+0x248>
80000414:	00d706b3          	add	a3,a4,a3
80000418:	fff30593          	addi	a1,t1,-1
8000041c:	00e6e863          	bltu	a3,a4,8000042c <__udivdi3+0x248>
80000420:	0116f663          	bgeu	a3,a7,8000042c <__udivdi3+0x248>
80000424:	ffe30593          	addi	a1,t1,-2
80000428:	00e686b3          	add	a3,a3,a4
8000042c:	411686b3          	sub	a3,a3,a7
80000430:	02a6d8b3          	divu	a7,a3,a0
80000434:	01079793          	slli	a5,a5,0x10
80000438:	0107d793          	srli	a5,a5,0x10
8000043c:	02a6f6b3          	remu	a3,a3,a0
80000440:	03160633          	mul	a2,a2,a7
80000444:	01069693          	slli	a3,a3,0x10
80000448:	00d7e7b3          	or	a5,a5,a3
8000044c:	00088693          	mv	a3,a7
80000450:	00c7fe63          	bgeu	a5,a2,8000046c <__udivdi3+0x288>
80000454:	00f707b3          	add	a5,a4,a5
80000458:	fff88693          	addi	a3,a7,-1
8000045c:	00e7e863          	bltu	a5,a4,8000046c <__udivdi3+0x288>
80000460:	00c7f663          	bgeu	a5,a2,8000046c <__udivdi3+0x288>
80000464:	ffe88693          	addi	a3,a7,-2
80000468:	00e787b3          	add	a5,a5,a4
8000046c:	01059593          	slli	a1,a1,0x10
80000470:	40c787b3          	sub	a5,a5,a2
80000474:	00d5e5b3          	or	a1,a1,a3
80000478:	eb9ff06f          	j	80000330 <__udivdi3+0x14c>
8000047c:	18d5e663          	bltu	a1,a3,80000608 <__udivdi3+0x424>
80000480:	000107b7          	lui	a5,0x10
80000484:	04f6f463          	bgeu	a3,a5,800004cc <__udivdi3+0x2e8>
80000488:	1006b713          	sltiu	a4,a3,256
8000048c:	00174713          	xori	a4,a4,1
80000490:	00371713          	slli	a4,a4,0x3
80000494:	800067b7          	lui	a5,0x80006
80000498:	00e6d5b3          	srl	a1,a3,a4
8000049c:	7b878793          	addi	a5,a5,1976 # 800067b8 <CONFIG_SYSTEM_WORKQUEUE_PRIORITY+0x800067b9>
800004a0:	00b787b3          	add	a5,a5,a1
800004a4:	0007c783          	lbu	a5,0(a5)
800004a8:	00e787b3          	add	a5,a5,a4
800004ac:	02000713          	li	a4,32
800004b0:	40f705b3          	sub	a1,a4,a5
800004b4:	02f71663          	bne	a4,a5,800004e0 <__udivdi3+0x2fc>
800004b8:	00100513          	li	a0,1
800004bc:	e066eee3          	bltu	a3,t1,800002d8 <__udivdi3+0xf4>
800004c0:	00c8b533          	sltu	a0,a7,a2
800004c4:	00154513          	xori	a0,a0,1
800004c8:	00008067          	ret
800004cc:	010007b7          	lui	a5,0x1000
800004d0:	01000713          	li	a4,16
800004d4:	fcf6e0e3          	bltu	a3,a5,80000494 <__udivdi3+0x2b0>
800004d8:	01800713          	li	a4,24
800004dc:	fb9ff06f          	j	80000494 <__udivdi3+0x2b0>
800004e0:	00f65733          	srl	a4,a2,a5
800004e4:	00b696b3          	sll	a3,a3,a1
800004e8:	00d766b3          	or	a3,a4,a3
800004ec:	00f35733          	srl	a4,t1,a5
800004f0:	00b31333          	sll	t1,t1,a1
800004f4:	00f8d7b3          	srl	a5,a7,a5
800004f8:	0067e7b3          	or	a5,a5,t1
800004fc:	0106d313          	srli	t1,a3,0x10
80000500:	02675eb3          	divu	t4,a4,t1
80000504:	01069813          	slli	a6,a3,0x10
80000508:	01085813          	srli	a6,a6,0x10
8000050c:	00b61633          	sll	a2,a2,a1
80000510:	02677733          	remu	a4,a4,t1
80000514:	03d80e33          	mul	t3,a6,t4
80000518:	01071513          	slli	a0,a4,0x10
8000051c:	0107d713          	srli	a4,a5,0x10
80000520:	00a76733          	or	a4,a4,a0
80000524:	000e8513          	mv	a0,t4
80000528:	01c77e63          	bgeu	a4,t3,80000544 <__udivdi3+0x360>
8000052c:	00e68733          	add	a4,a3,a4
80000530:	fffe8513          	addi	a0,t4,-1
80000534:	00d76863          	bltu	a4,a3,80000544 <__udivdi3+0x360>
80000538:	01c77663          	bgeu	a4,t3,80000544 <__udivdi3+0x360>
8000053c:	ffee8513          	addi	a0,t4,-2
80000540:	00d70733          	add	a4,a4,a3
80000544:	41c70733          	sub	a4,a4,t3
80000548:	02675e33          	divu	t3,a4,t1
8000054c:	01079793          	slli	a5,a5,0x10
80000550:	0107d793          	srli	a5,a5,0x10
80000554:	02677733          	remu	a4,a4,t1
80000558:	03c80833          	mul	a6,a6,t3
8000055c:	01071713          	slli	a4,a4,0x10
80000560:	00e7e7b3          	or	a5,a5,a4
80000564:	000e0713          	mv	a4,t3
80000568:	0107fe63          	bgeu	a5,a6,80000584 <__udivdi3+0x3a0>
8000056c:	00f687b3          	add	a5,a3,a5
80000570:	fffe0713          	addi	a4,t3,-1
80000574:	00d7e863          	bltu	a5,a3,80000584 <__udivdi3+0x3a0>
80000578:	0107f663          	bgeu	a5,a6,80000584 <__udivdi3+0x3a0>
8000057c:	ffee0713          	addi	a4,t3,-2
80000580:	00d787b3          	add	a5,a5,a3
80000584:	01051513          	slli	a0,a0,0x10
80000588:	00010e37          	lui	t3,0x10
8000058c:	00e56533          	or	a0,a0,a4
80000590:	fffe0693          	addi	a3,t3,-1 # ffff <CONFIG_SYS_CLOCK_HW_CYCLES_PER_SEC+0x7fff>
80000594:	00d57733          	and	a4,a0,a3
80000598:	410787b3          	sub	a5,a5,a6
8000059c:	00d676b3          	and	a3,a2,a3
800005a0:	01055813          	srli	a6,a0,0x10
800005a4:	01065613          	srli	a2,a2,0x10
800005a8:	02d70333          	mul	t1,a4,a3
800005ac:	02d806b3          	mul	a3,a6,a3
800005b0:	02c70733          	mul	a4,a4,a2
800005b4:	02c80833          	mul	a6,a6,a2
800005b8:	00d70633          	add	a2,a4,a3
800005bc:	01035713          	srli	a4,t1,0x10
800005c0:	00c70733          	add	a4,a4,a2
800005c4:	00d77463          	bgeu	a4,a3,800005cc <__udivdi3+0x3e8>
800005c8:	01c80833          	add	a6,a6,t3
800005cc:	01075693          	srli	a3,a4,0x10
800005d0:	010686b3          	add	a3,a3,a6
800005d4:	02d7e663          	bltu	a5,a3,80000600 <__udivdi3+0x41c>
800005d8:	ced79ee3          	bne	a5,a3,800002d4 <__udivdi3+0xf0>
800005dc:	000107b7          	lui	a5,0x10
800005e0:	fff78793          	addi	a5,a5,-1 # ffff <CONFIG_SYS_CLOCK_HW_CYCLES_PER_SEC+0x7fff>
800005e4:	00f77733          	and	a4,a4,a5
800005e8:	01071713          	slli	a4,a4,0x10
800005ec:	00f37333          	and	t1,t1,a5
800005f0:	00b898b3          	sll	a7,a7,a1
800005f4:	00670733          	add	a4,a4,t1
800005f8:	00000593          	li	a1,0
800005fc:	cce8fee3          	bgeu	a7,a4,800002d8 <__udivdi3+0xf4>
80000600:	fff50513          	addi	a0,a0,-1 # ffffff <CONFIG_SRAM_SIZE+0xefffff>
80000604:	cd1ff06f          	j	800002d4 <__udivdi3+0xf0>
80000608:	00000593          	li	a1,0
8000060c:	00000513          	li	a0,0
80000610:	00008067          	ret

80000614 <__umoddi3>:
80000614:	00060813          	mv	a6,a2
80000618:	00050793          	mv	a5,a0
8000061c:	00058713          	mv	a4,a1
80000620:	20069663          	bnez	a3,8000082c <__umoddi3+0x218>
80000624:	800068b7          	lui	a7,0x80006
80000628:	7b888893          	addi	a7,a7,1976 # 800067b8 <CONFIG_SYSTEM_WORKQUEUE_PRIORITY+0x800067b9>
8000062c:	0cc5fc63          	bgeu	a1,a2,80000704 <__umoddi3+0xf0>
80000630:	000106b7          	lui	a3,0x10
80000634:	0ad67e63          	bgeu	a2,a3,800006f0 <__umoddi3+0xdc>
80000638:	10063693          	sltiu	a3,a2,256
8000063c:	0016c693          	xori	a3,a3,1
80000640:	00369693          	slli	a3,a3,0x3
80000644:	00d65333          	srl	t1,a2,a3
80000648:	006888b3          	add	a7,a7,t1
8000064c:	0008c883          	lbu	a7,0(a7)
80000650:	02000313          	li	t1,32
80000654:	00d886b3          	add	a3,a7,a3
80000658:	40d308b3          	sub	a7,t1,a3
8000065c:	00d30c63          	beq	t1,a3,80000674 <__umoddi3+0x60>
80000660:	01159733          	sll	a4,a1,a7
80000664:	00d556b3          	srl	a3,a0,a3
80000668:	01161833          	sll	a6,a2,a7
8000066c:	00e6e733          	or	a4,a3,a4
80000670:	011517b3          	sll	a5,a0,a7
80000674:	01085613          	srli	a2,a6,0x10
80000678:	02c756b3          	divu	a3,a4,a2
8000067c:	01081513          	slli	a0,a6,0x10
80000680:	01055513          	srli	a0,a0,0x10
80000684:	02c77733          	remu	a4,a4,a2
80000688:	02a686b3          	mul	a3,a3,a0
8000068c:	01071593          	slli	a1,a4,0x10
80000690:	0107d713          	srli	a4,a5,0x10
80000694:	00b76733          	or	a4,a4,a1
80000698:	00d77a63          	bgeu	a4,a3,800006ac <__umoddi3+0x98>
8000069c:	00e80733          	add	a4,a6,a4
800006a0:	01076663          	bltu	a4,a6,800006ac <__umoddi3+0x98>
800006a4:	00d77463          	bgeu	a4,a3,800006ac <__umoddi3+0x98>
800006a8:	01070733          	add	a4,a4,a6
800006ac:	40d70733          	sub	a4,a4,a3
800006b0:	02c756b3          	divu	a3,a4,a2
800006b4:	02c77733          	remu	a4,a4,a2
800006b8:	02a686b3          	mul	a3,a3,a0
800006bc:	01079793          	slli	a5,a5,0x10
800006c0:	01071713          	slli	a4,a4,0x10
800006c4:	0107d793          	srli	a5,a5,0x10
800006c8:	00e7e7b3          	or	a5,a5,a4
800006cc:	00d7fa63          	bgeu	a5,a3,800006e0 <__umoddi3+0xcc>
800006d0:	00f807b3          	add	a5,a6,a5
800006d4:	0107e663          	bltu	a5,a6,800006e0 <__umoddi3+0xcc>
800006d8:	00d7f463          	bgeu	a5,a3,800006e0 <__umoddi3+0xcc>
800006dc:	010787b3          	add	a5,a5,a6
800006e0:	40d787b3          	sub	a5,a5,a3
800006e4:	0117d533          	srl	a0,a5,a7
800006e8:	00000593          	li	a1,0
800006ec:	00008067          	ret
800006f0:	01000337          	lui	t1,0x1000
800006f4:	01000693          	li	a3,16
800006f8:	f46666e3          	bltu	a2,t1,80000644 <__umoddi3+0x30>
800006fc:	01800693          	li	a3,24
80000700:	f45ff06f          	j	80000644 <__umoddi3+0x30>
80000704:	00000693          	li	a3,0
80000708:	00060c63          	beqz	a2,80000720 <__umoddi3+0x10c>
8000070c:	00010737          	lui	a4,0x10
80000710:	06e67e63          	bgeu	a2,a4,8000078c <__umoddi3+0x178>
80000714:	10063693          	sltiu	a3,a2,256
80000718:	0016c693          	xori	a3,a3,1
8000071c:	00369693          	slli	a3,a3,0x3
80000720:	00d65733          	srl	a4,a2,a3
80000724:	00e888b3          	add	a7,a7,a4
80000728:	0008c703          	lbu	a4,0(a7)
8000072c:	00d70733          	add	a4,a4,a3
80000730:	02000693          	li	a3,32
80000734:	40e688b3          	sub	a7,a3,a4
80000738:	06e69463          	bne	a3,a4,800007a0 <__umoddi3+0x18c>
8000073c:	40c58733          	sub	a4,a1,a2
80000740:	01085593          	srli	a1,a6,0x10
80000744:	02b75633          	divu	a2,a4,a1
80000748:	01081513          	slli	a0,a6,0x10
8000074c:	01055513          	srli	a0,a0,0x10
80000750:	0107d693          	srli	a3,a5,0x10
80000754:	02b77733          	remu	a4,a4,a1
80000758:	02a60633          	mul	a2,a2,a0
8000075c:	01071713          	slli	a4,a4,0x10
80000760:	00e6e733          	or	a4,a3,a4
80000764:	00c77a63          	bgeu	a4,a2,80000778 <__umoddi3+0x164>
80000768:	00e80733          	add	a4,a6,a4
8000076c:	01076663          	bltu	a4,a6,80000778 <__umoddi3+0x164>
80000770:	00c77463          	bgeu	a4,a2,80000778 <__umoddi3+0x164>
80000774:	01070733          	add	a4,a4,a6
80000778:	40c70733          	sub	a4,a4,a2
8000077c:	02b756b3          	divu	a3,a4,a1
80000780:	02b77733          	remu	a4,a4,a1
80000784:	02a686b3          	mul	a3,a3,a0
80000788:	f35ff06f          	j	800006bc <__umoddi3+0xa8>
8000078c:	01000737          	lui	a4,0x1000
80000790:	01000693          	li	a3,16
80000794:	f8e666e3          	bltu	a2,a4,80000720 <__umoddi3+0x10c>
80000798:	01800693          	li	a3,24
8000079c:	f85ff06f          	j	80000720 <__umoddi3+0x10c>
800007a0:	01161833          	sll	a6,a2,a7
800007a4:	00e5d6b3          	srl	a3,a1,a4
800007a8:	011517b3          	sll	a5,a0,a7
800007ac:	011595b3          	sll	a1,a1,a7
800007b0:	00e55733          	srl	a4,a0,a4
800007b4:	01085513          	srli	a0,a6,0x10
800007b8:	00b76733          	or	a4,a4,a1
800007bc:	02a6d5b3          	divu	a1,a3,a0
800007c0:	01081313          	slli	t1,a6,0x10
800007c4:	01035313          	srli	t1,t1,0x10
800007c8:	02a6f6b3          	remu	a3,a3,a0
800007cc:	026585b3          	mul	a1,a1,t1
800007d0:	01069613          	slli	a2,a3,0x10
800007d4:	01075693          	srli	a3,a4,0x10
800007d8:	00c6e6b3          	or	a3,a3,a2
800007dc:	00b6fa63          	bgeu	a3,a1,800007f0 <__umoddi3+0x1dc>
800007e0:	00d806b3          	add	a3,a6,a3
800007e4:	0106e663          	bltu	a3,a6,800007f0 <__umoddi3+0x1dc>
800007e8:	00b6f463          	bgeu	a3,a1,800007f0 <__umoddi3+0x1dc>
800007ec:	010686b3          	add	a3,a3,a6
800007f0:	40b686b3          	sub	a3,a3,a1
800007f4:	02a6d633          	divu	a2,a3,a0
800007f8:	01071713          	slli	a4,a4,0x10
800007fc:	01075713          	srli	a4,a4,0x10
80000800:	02a6f6b3          	remu	a3,a3,a0
80000804:	02660633          	mul	a2,a2,t1
80000808:	01069693          	slli	a3,a3,0x10
8000080c:	00d76733          	or	a4,a4,a3
80000810:	00c77a63          	bgeu	a4,a2,80000824 <__umoddi3+0x210>
80000814:	00e80733          	add	a4,a6,a4
80000818:	01076663          	bltu	a4,a6,80000824 <__umoddi3+0x210>
8000081c:	00c77463          	bgeu	a4,a2,80000824 <__umoddi3+0x210>
80000820:	01070733          	add	a4,a4,a6
80000824:	40c70733          	sub	a4,a4,a2
80000828:	f19ff06f          	j	80000740 <__umoddi3+0x12c>
8000082c:	1cd5e463          	bltu	a1,a3,800009f4 <__umoddi3+0x3e0>
80000830:	00010837          	lui	a6,0x10
80000834:	0506fe63          	bgeu	a3,a6,80000890 <__umoddi3+0x27c>
80000838:	1006b813          	sltiu	a6,a3,256
8000083c:	00184813          	xori	a6,a6,1
80000840:	00381813          	slli	a6,a6,0x3
80000844:	800068b7          	lui	a7,0x80006
80000848:	0106d333          	srl	t1,a3,a6
8000084c:	7b888893          	addi	a7,a7,1976 # 800067b8 <CONFIG_SYSTEM_WORKQUEUE_PRIORITY+0x800067b9>
80000850:	006888b3          	add	a7,a7,t1
80000854:	0008c883          	lbu	a7,0(a7)
80000858:	02000313          	li	t1,32
8000085c:	010888b3          	add	a7,a7,a6
80000860:	41130833          	sub	a6,t1,a7
80000864:	05131063          	bne	t1,a7,800008a4 <__umoddi3+0x290>
80000868:	00b6e463          	bltu	a3,a1,80000870 <__umoddi3+0x25c>
8000086c:	00c56c63          	bltu	a0,a2,80000884 <__umoddi3+0x270>
80000870:	40c50633          	sub	a2,a0,a2
80000874:	40d586b3          	sub	a3,a1,a3
80000878:	00c53733          	sltu	a4,a0,a2
8000087c:	00060793          	mv	a5,a2
80000880:	40e68733          	sub	a4,a3,a4
80000884:	00078513          	mv	a0,a5
80000888:	00070593          	mv	a1,a4
8000088c:	00008067          	ret
80000890:	010008b7          	lui	a7,0x1000
80000894:	01000813          	li	a6,16
80000898:	fb16e6e3          	bltu	a3,a7,80000844 <__umoddi3+0x230>
8000089c:	01800813          	li	a6,24
800008a0:	fa5ff06f          	j	80000844 <__umoddi3+0x230>
800008a4:	011657b3          	srl	a5,a2,a7
800008a8:	010696b3          	sll	a3,a3,a6
800008ac:	00d7e6b3          	or	a3,a5,a3
800008b0:	0115d733          	srl	a4,a1,a7
800008b4:	0106de13          	srli	t3,a3,0x10
800008b8:	03c75f33          	divu	t5,a4,t3
800008bc:	01069313          	slli	t1,a3,0x10
800008c0:	01035313          	srli	t1,t1,0x10
800008c4:	010597b3          	sll	a5,a1,a6
800008c8:	011555b3          	srl	a1,a0,a7
800008cc:	00f5e5b3          	or	a1,a1,a5
800008d0:	0105d793          	srli	a5,a1,0x10
800008d4:	01061633          	sll	a2,a2,a6
800008d8:	01051533          	sll	a0,a0,a6
800008dc:	03c77733          	remu	a4,a4,t3
800008e0:	03e30eb3          	mul	t4,t1,t5
800008e4:	01071713          	slli	a4,a4,0x10
800008e8:	00e7e7b3          	or	a5,a5,a4
800008ec:	000f0713          	mv	a4,t5
800008f0:	01d7fe63          	bgeu	a5,t4,8000090c <__umoddi3+0x2f8>
800008f4:	00f687b3          	add	a5,a3,a5
800008f8:	ffff0713          	addi	a4,t5,-1
800008fc:	00d7e863          	bltu	a5,a3,8000090c <__umoddi3+0x2f8>
80000900:	01d7f663          	bgeu	a5,t4,8000090c <__umoddi3+0x2f8>
80000904:	ffef0713          	addi	a4,t5,-2
80000908:	00d787b3          	add	a5,a5,a3
8000090c:	41d787b3          	sub	a5,a5,t4
80000910:	03c7deb3          	divu	t4,a5,t3
80000914:	01059593          	slli	a1,a1,0x10
80000918:	0105d593          	srli	a1,a1,0x10
8000091c:	03c7f7b3          	remu	a5,a5,t3
80000920:	000e8e13          	mv	t3,t4
80000924:	03d30333          	mul	t1,t1,t4
80000928:	01079793          	slli	a5,a5,0x10
8000092c:	00f5e5b3          	or	a1,a1,a5
80000930:	0065fe63          	bgeu	a1,t1,8000094c <__umoddi3+0x338>
80000934:	00b685b3          	add	a1,a3,a1
80000938:	fffe8e13          	addi	t3,t4,-1
8000093c:	00d5e863          	bltu	a1,a3,8000094c <__umoddi3+0x338>
80000940:	0065f663          	bgeu	a1,t1,8000094c <__umoddi3+0x338>
80000944:	ffee8e13          	addi	t3,t4,-2
80000948:	00d585b3          	add	a1,a1,a3
8000094c:	01071793          	slli	a5,a4,0x10
80000950:	00010f37          	lui	t5,0x10
80000954:	01c7e7b3          	or	a5,a5,t3
80000958:	406585b3          	sub	a1,a1,t1
8000095c:	ffff0313          	addi	t1,t5,-1 # ffff <CONFIG_SYS_CLOCK_HW_CYCLES_PER_SEC+0x7fff>
80000960:	0067f733          	and	a4,a5,t1
80000964:	01065e13          	srli	t3,a2,0x10
80000968:	0107d793          	srli	a5,a5,0x10
8000096c:	00667333          	and	t1,a2,t1
80000970:	02670eb3          	mul	t4,a4,t1
80000974:	02678333          	mul	t1,a5,t1
80000978:	03c70733          	mul	a4,a4,t3
8000097c:	03c787b3          	mul	a5,a5,t3
80000980:	00670e33          	add	t3,a4,t1
80000984:	010ed713          	srli	a4,t4,0x10
80000988:	01c70733          	add	a4,a4,t3
8000098c:	00677463          	bgeu	a4,t1,80000994 <__umoddi3+0x380>
80000990:	01e787b3          	add	a5,a5,t5
80000994:	01075313          	srli	t1,a4,0x10
80000998:	00f307b3          	add	a5,t1,a5
8000099c:	00010337          	lui	t1,0x10
800009a0:	fff30313          	addi	t1,t1,-1 # ffff <CONFIG_SYS_CLOCK_HW_CYCLES_PER_SEC+0x7fff>
800009a4:	00677733          	and	a4,a4,t1
800009a8:	01071713          	slli	a4,a4,0x10
800009ac:	006efeb3          	and	t4,t4,t1
800009b0:	01d70733          	add	a4,a4,t4
800009b4:	00f5e663          	bltu	a1,a5,800009c0 <__umoddi3+0x3ac>
800009b8:	00f59e63          	bne	a1,a5,800009d4 <__umoddi3+0x3c0>
800009bc:	00e57c63          	bgeu	a0,a4,800009d4 <__umoddi3+0x3c0>
800009c0:	40c70633          	sub	a2,a4,a2
800009c4:	00c73333          	sltu	t1,a4,a2
800009c8:	00d306b3          	add	a3,t1,a3
800009cc:	00060713          	mv	a4,a2
800009d0:	40d787b3          	sub	a5,a5,a3
800009d4:	40e50733          	sub	a4,a0,a4
800009d8:	00e53533          	sltu	a0,a0,a4
800009dc:	40f585b3          	sub	a1,a1,a5
800009e0:	40a585b3          	sub	a1,a1,a0
800009e4:	011598b3          	sll	a7,a1,a7
800009e8:	01075733          	srl	a4,a4,a6
800009ec:	00e8e533          	or	a0,a7,a4
800009f0:	0105d5b3          	srl	a1,a1,a6
800009f4:	00008067          	ret

800009f8 <memset>:
800009f8:	00050313          	mv	t1,a0
800009fc:	00060a63          	beqz	a2,80000a10 <memset+0x18>
80000a00:	00b30023          	sb	a1,0(t1)
80000a04:	fff60613          	addi	a2,a2,-1
80000a08:	00130313          	addi	t1,t1,1
80000a0c:	fe061ae3          	bnez	a2,80000a00 <memset+0x8>
80000a10:	00008067          	ret

80000a14 <jsp_ma_fonction>:
80000a14:	00308013          	addi	zero,ra,3
{
80000a18:	ff010113          	addi	sp,sp,-16
80000a1c:	00112623          	sw	ra,12(sp)
	printf("Je rentre dans ma fonction\n ");
80000a20:	80007537          	lui	a0,0x80007
80000a24:	8b850513          	addi	a0,a0,-1864 # 800068b8 <CONFIG_SYSTEM_WORKQUEUE_PRIORITY+0x800068b9>
80000a28:	238040ef          	jal	ra,80004c60 <iprintf>
}
80000a2c:	00c12083          	lw	ra,12(sp)
80000a30:	01010113          	addi	sp,sp,16
80000a34:	00008067          	ret

80000a38 <main>:
80000a38:	00308013          	addi	zero,ra,3
{
80000a3c:	ff010113          	addi	sp,sp,-16
80000a40:	00112623          	sw	ra,12(sp)
	printf("Canette");
80000a44:	80007537          	lui	a0,0x80007
80000a48:	8d850513          	addi	a0,a0,-1832 # 800068d8 <CONFIG_SYSTEM_WORKQUEUE_PRIORITY+0x800068d9>
80000a4c:	214040ef          	jal	ra,80004c60 <iprintf>
	__asm__("ADDI x0, x1, 3");
80000a50:	00308013          	addi	zero,ra,3
	printf("test");
80000a54:	80007537          	lui	a0,0x80007
80000a58:	8e050513          	addi	a0,a0,-1824 # 800068e0 <CONFIG_SYSTEM_WORKQUEUE_PRIORITY+0x800068e1>
80000a5c:	204040ef          	jal	ra,80004c60 <iprintf>
	__asm__("ADDI x0, x0, 3");
80000a60:	00300013          	li	zero,3
	jsp_ma_fonction();
80000a64:	fb1ff0ef          	jal	ra,80000a14 <jsp_ma_fonction>
}
80000a68:	00c12083          	lw	ra,12(sp)
80000a6c:	01010113          	addi	sp,sp,16
80000a70:	00008067          	ret

80000a74 <arch_printk_char_out>:
80000a74:	00308013          	addi	zero,ra,3
}
80000a78:	00000513          	li	a0,0
80000a7c:	00008067          	ret

80000a80 <char_out>:
80000a80:	00308013          	addi	zero,ra,3
{
80000a84:	ff010113          	addi	sp,sp,-16
80000a88:	00112623          	sw	ra,12(sp)
	return _char_out(c);
80000a8c:	800097b7          	lui	a5,0x80009
80000a90:	3f07a783          	lw	a5,1008(a5) # 800093f0 <CONFIG_SYSTEM_WORKQUEUE_PRIORITY+0x800093f1>
80000a94:	000780e7          	jalr	a5
}
80000a98:	00c12083          	lw	ra,12(sp)
80000a9c:	01010113          	addi	sp,sp,16
80000aa0:	00008067          	ret

80000aa4 <__printk_hook_install>:
80000aa4:	00308013          	addi	zero,ra,3
	_char_out = fn;
80000aa8:	800097b7          	lui	a5,0x80009
80000aac:	3ea7a823          	sw	a0,1008(a5) # 800093f0 <CONFIG_SYSTEM_WORKQUEUE_PRIORITY+0x800093f1>
}
80000ab0:	00008067          	ret

80000ab4 <vprintk>:
80000ab4:	00308013          	addi	zero,ra,3
{
80000ab8:	ff010113          	addi	sp,sp,-16
80000abc:	00112623          	sw	ra,12(sp)
80000ac0:	00050613          	mv	a2,a0
80000ac4:	00058693          	mv	a3,a1
int cbvprintf(cbprintf_cb out, void *ctx, const char *format, va_list ap);
#else
static inline
int cbvprintf(cbprintf_cb out, void *ctx, const char *format, va_list ap)
{
	return z_cbvprintf_impl(out, ctx, format, ap, 0);
80000ac8:	00000713          	li	a4,0
80000acc:	00000593          	li	a1,0
80000ad0:	80001537          	lui	a0,0x80001
80000ad4:	a8050513          	addi	a0,a0,-1408 # 80000a80 <CONFIG_SYSTEM_WORKQUEUE_PRIORITY+0x80000a81>
80000ad8:	1d5000ef          	jal	ra,800014ac <z_cbvprintf_impl>
}
80000adc:	00c12083          	lw	ra,12(sp)
80000ae0:	01010113          	addi	sp,sp,16
80000ae4:	00008067          	ret

80000ae8 <printk>:
80000ae8:	00308013          	addi	zero,ra,3
{
80000aec:	fc010113          	addi	sp,sp,-64
80000af0:	00112e23          	sw	ra,28(sp)
80000af4:	02b12223          	sw	a1,36(sp)
80000af8:	02c12423          	sw	a2,40(sp)
80000afc:	02d12623          	sw	a3,44(sp)
80000b00:	02e12823          	sw	a4,48(sp)
80000b04:	02f12a23          	sw	a5,52(sp)
80000b08:	03012c23          	sw	a6,56(sp)
80000b0c:	03112e23          	sw	a7,60(sp)
	va_start(ap, fmt);
80000b10:	02410593          	addi	a1,sp,36
80000b14:	00b12623          	sw	a1,12(sp)
	vprintk(fmt, ap);
80000b18:	f9dff0ef          	jal	ra,80000ab4 <vprintk>
}
80000b1c:	01c12083          	lw	ra,28(sp)
80000b20:	04010113          	addi	sp,sp,64
80000b24:	00008067          	ret

80000b28 <z_thread_entry>:
80000b28:	00308013          	addi	zero,ra,3
{
80000b2c:	ff010113          	addi	sp,sp,-16
80000b30:	00112623          	sw	ra,12(sp)
80000b34:	00050793          	mv	a5,a0
80000b38:	00058513          	mv	a0,a1
80000b3c:	00060593          	mv	a1,a2
	entry(p1, p2, p3);
80000b40:	00068613          	mv	a2,a3
80000b44:	000780e7          	jalr	a5
	if (z_syscall_trap()) {
		return (k_tid_t) arch_syscall_invoke0(K_SYSCALL_Z_CURRENT_GET);
	}
#endif
	compiler_barrier();
	return z_impl_z_current_get();
80000b48:	015030ef          	jal	ra,8000435c <z_impl_z_current_get>
		(void) arch_syscall_invoke1(parm0.x, K_SYSCALL_K_THREAD_ABORT);
		return;
	}
#endif
	compiler_barrier();
	z_impl_k_thread_abort(thread);
80000b4c:	0cd030ef          	jal	ra,80004418 <z_impl_k_thread_abort>

80000b50 <extract_decimal>:
80000b50:	00308013          	addi	zero,ra,3
{
80000b54:	00050613          	mv	a2,a0
	const char *sp = *str;
80000b58:	00052703          	lw	a4,0(a0)
	size_t val = 0;
80000b5c:	00000513          	li	a0,0
	while (isdigit((int)(unsigned char)*sp)) {
80000b60:	01c0006f          	j	80000b7c <extract_decimal+0x2c>
		val = 10U * val + *sp++ - '0';
80000b64:	00251793          	slli	a5,a0,0x2
80000b68:	00a787b3          	add	a5,a5,a0
80000b6c:	00179793          	slli	a5,a5,0x1
80000b70:	00170713          	addi	a4,a4,1 # 1000001 <CONFIG_SRAM_SIZE+0xf00001>
80000b74:	00d787b3          	add	a5,a5,a3
80000b78:	fd078513          	addi	a0,a5,-48
	while (isdigit((int)(unsigned char)*sp)) {
80000b7c:	00074683          	lbu	a3,0(a4)
80000b80:	800077b7          	lui	a5,0x80007
80000b84:	bfd78793          	addi	a5,a5,-1027 # 80006bfd <CONFIG_SYSTEM_WORKQUEUE_PRIORITY+0x80006bfe>
80000b88:	00f687b3          	add	a5,a3,a5
80000b8c:	0007c783          	lbu	a5,0(a5)
80000b90:	0047f793          	andi	a5,a5,4
80000b94:	fc0798e3          	bnez	a5,80000b64 <extract_decimal+0x14>
	*str = sp;
80000b98:	00e62023          	sw	a4,0(a2)
}
80000b9c:	00008067          	ret

80000ba0 <extract_flags>:
80000ba0:	00308013          	addi	zero,ra,3
{
80000ba4:	00050613          	mv	a2,a0
80000ba8:	00058513          	mv	a0,a1
	bool loop = true;
80000bac:	00100693          	li	a3,1
80000bb0:	0640006f          	j	80000c14 <extract_flags+0x74>
			conv->flag_dash = true;
80000bb4:	00065783          	lhu	a5,0(a2)
80000bb8:	0047e793          	ori	a5,a5,4
80000bbc:	00f61023          	sh	a5,0(a2)
		if (loop) {
80000bc0:	04068863          	beqz	a3,80000c10 <extract_flags+0x70>
			++sp;
80000bc4:	00150513          	addi	a0,a0,1
80000bc8:	0480006f          	j	80000c10 <extract_flags+0x70>
			conv->flag_plus = true;
80000bcc:	00065783          	lhu	a5,0(a2)
80000bd0:	0087e793          	ori	a5,a5,8
80000bd4:	00f61023          	sh	a5,0(a2)
			break;
80000bd8:	fe9ff06f          	j	80000bc0 <extract_flags+0x20>
			conv->flag_space = true;
80000bdc:	00065783          	lhu	a5,0(a2)
80000be0:	0107e793          	ori	a5,a5,16
80000be4:	00f61023          	sh	a5,0(a2)
			break;
80000be8:	fd9ff06f          	j	80000bc0 <extract_flags+0x20>
			conv->flag_hash = true;
80000bec:	00065783          	lhu	a5,0(a2)
80000bf0:	0207e793          	ori	a5,a5,32
80000bf4:	00f61023          	sh	a5,0(a2)
			break;
80000bf8:	fc9ff06f          	j	80000bc0 <extract_flags+0x20>
			conv->flag_zero = true;
80000bfc:	00065783          	lhu	a5,0(a2)
80000c00:	0407e793          	ori	a5,a5,64
80000c04:	00f61023          	sh	a5,0(a2)
			break;
80000c08:	fb9ff06f          	j	80000bc0 <extract_flags+0x20>
		switch (*sp) {
80000c0c:	00000693          	li	a3,0
	} while (loop);
80000c10:	02068863          	beqz	a3,80000c40 <extract_flags+0xa0>
		switch (*sp) {
80000c14:	00054783          	lbu	a5,0(a0)
80000c18:	fe078793          	addi	a5,a5,-32
80000c1c:	0ff7f593          	zext.b	a1,a5
80000c20:	01000713          	li	a4,16
80000c24:	feb764e3          	bltu	a4,a1,80000c0c <extract_flags+0x6c>
80000c28:	00259793          	slli	a5,a1,0x2
80000c2c:	80007737          	lui	a4,0x80007
80000c30:	8e870713          	addi	a4,a4,-1816 # 800068e8 <CONFIG_SYSTEM_WORKQUEUE_PRIORITY+0x800068e9>
80000c34:	00e787b3          	add	a5,a5,a4
80000c38:	0007a783          	lw	a5,0(a5)
80000c3c:	00078067          	jr	a5
	if (conv->flag_zero && conv->flag_dash) {
80000c40:	00062783          	lw	a5,0(a2)
80000c44:	0447f793          	andi	a5,a5,68
80000c48:	04400713          	li	a4,68
80000c4c:	00e78463          	beq	a5,a4,80000c54 <extract_flags+0xb4>
}
80000c50:	00008067          	ret
		conv->flag_zero = false;
80000c54:	00065783          	lhu	a5,0(a2)
80000c58:	fbf7f793          	andi	a5,a5,-65
80000c5c:	00f61023          	sh	a5,0(a2)
80000c60:	ff1ff06f          	j	80000c50 <extract_flags+0xb0>

80000c64 <extract_width>:
80000c64:	00308013          	addi	zero,ra,3
{
80000c68:	fe010113          	addi	sp,sp,-32
80000c6c:	00112e23          	sw	ra,28(sp)
80000c70:	00812c23          	sw	s0,24(sp)
80000c74:	00912a23          	sw	s1,20(sp)
80000c78:	00050413          	mv	s0,a0
80000c7c:	00b12623          	sw	a1,12(sp)
	conv->width_present = true;
80000c80:	00055783          	lhu	a5,0(a0)
80000c84:	0807e793          	ori	a5,a5,128
80000c88:	00f51023          	sh	a5,0(a0)
	if (*sp == '*') {
80000c8c:	00058493          	mv	s1,a1
80000c90:	0005c703          	lbu	a4,0(a1)
80000c94:	02a00793          	li	a5,42
80000c98:	06f70463          	beq	a4,a5,80000d00 <extract_width+0x9c>
	size_t width = extract_decimal(&sp);
80000c9c:	00c10513          	addi	a0,sp,12
80000ca0:	eb1ff0ef          	jal	ra,80000b50 <extract_decimal>
	if (sp != wp) {
80000ca4:	00c12783          	lw	a5,12(sp)
80000ca8:	04f48063          	beq	s1,a5,80000ce8 <extract_width+0x84>
		conv->width_present = true;
80000cac:	00045783          	lhu	a5,0(s0)
80000cb0:	0807e793          	ori	a5,a5,128
80000cb4:	00f41023          	sh	a5,0(s0)
		conv->width_value = width;
80000cb8:	00a42223          	sw	a0,4(s0)
		conv->unsupported |= ((conv->width_value < 0)
80000cbc:	00042783          	lw	a5,0(s0)
80000cc0:	0017d793          	srli	a5,a5,0x1
80000cc4:	0017f793          	andi	a5,a5,1
				      || (width != (size_t)conv->width_value));
80000cc8:	04054863          	bltz	a0,80000d18 <extract_width+0xb4>
80000ccc:	00000713          	li	a4,0
		conv->unsupported |= ((conv->width_value < 0)
80000cd0:	00e7e7b3          	or	a5,a5,a4
80000cd4:	00179793          	slli	a5,a5,0x1
80000cd8:	00045703          	lhu	a4,0(s0)
80000cdc:	ffd77713          	andi	a4,a4,-3
80000ce0:	00f767b3          	or	a5,a4,a5
80000ce4:	00f41023          	sh	a5,0(s0)
	return sp;
80000ce8:	00c12503          	lw	a0,12(sp)
}
80000cec:	01c12083          	lw	ra,28(sp)
80000cf0:	01812403          	lw	s0,24(sp)
80000cf4:	01412483          	lw	s1,20(sp)
80000cf8:	02010113          	addi	sp,sp,32
80000cfc:	00008067          	ret
		conv->width_star = true;
80000d00:	00055783          	lhu	a5,0(a0)
80000d04:	1007e793          	ori	a5,a5,256
80000d08:	00f51023          	sh	a5,0(a0)
		return ++sp;
80000d0c:	00158513          	addi	a0,a1,1
80000d10:	00a12623          	sw	a0,12(sp)
80000d14:	fd9ff06f          	j	80000cec <extract_width+0x88>
				      || (width != (size_t)conv->width_value));
80000d18:	00100713          	li	a4,1
80000d1c:	fb5ff06f          	j	80000cd0 <extract_width+0x6c>

80000d20 <extract_prec>:
80000d20:	00308013          	addi	zero,ra,3
{
80000d24:	fe010113          	addi	sp,sp,-32
80000d28:	00112e23          	sw	ra,28(sp)
80000d2c:	00812c23          	sw	s0,24(sp)
80000d30:	00b12623          	sw	a1,12(sp)
	conv->prec_present = (*sp == '.');
80000d34:	0005c703          	lbu	a4,0(a1)
80000d38:	fd270713          	addi	a4,a4,-46
80000d3c:	00173693          	seqz	a3,a4
80000d40:	00969693          	slli	a3,a3,0x9
80000d44:	00055783          	lhu	a5,0(a0)
80000d48:	dff7f793          	andi	a5,a5,-513
80000d4c:	00d7e7b3          	or	a5,a5,a3
80000d50:	00f51023          	sh	a5,0(a0)
	if (!conv->prec_present) {
80000d54:	06071663          	bnez	a4,80000dc0 <extract_prec+0xa0>
80000d58:	00050413          	mv	s0,a0
	++sp;
80000d5c:	00c12783          	lw	a5,12(sp)
80000d60:	00178713          	addi	a4,a5,1
80000d64:	00e12623          	sw	a4,12(sp)
	if (*sp == '*') {
80000d68:	0017c703          	lbu	a4,1(a5)
80000d6c:	02a00793          	li	a5,42
80000d70:	04f70c63          	beq	a4,a5,80000dc8 <extract_prec+0xa8>
	size_t prec = extract_decimal(&sp);
80000d74:	00c10513          	addi	a0,sp,12
80000d78:	dd9ff0ef          	jal	ra,80000b50 <extract_decimal>
	conv->prec_value = prec;
80000d7c:	00a42423          	sw	a0,8(s0)
	conv->unsupported |= ((conv->prec_value < 0)
80000d80:	00042783          	lw	a5,0(s0)
80000d84:	0017d793          	srli	a5,a5,0x1
80000d88:	0017f793          	andi	a5,a5,1
			      || (prec != (size_t)conv->prec_value));
80000d8c:	04054c63          	bltz	a0,80000de4 <extract_prec+0xc4>
80000d90:	00000713          	li	a4,0
	conv->unsupported |= ((conv->prec_value < 0)
80000d94:	00e7e7b3          	or	a5,a5,a4
80000d98:	00179793          	slli	a5,a5,0x1
80000d9c:	00045703          	lhu	a4,0(s0)
80000da0:	ffd77713          	andi	a4,a4,-3
80000da4:	00f767b3          	or	a5,a4,a5
80000da8:	00f41023          	sh	a5,0(s0)
	return sp;
80000dac:	00c12503          	lw	a0,12(sp)
}
80000db0:	01c12083          	lw	ra,28(sp)
80000db4:	01812403          	lw	s0,24(sp)
80000db8:	02010113          	addi	sp,sp,32
80000dbc:	00008067          	ret
		return sp;
80000dc0:	00058513          	mv	a0,a1
80000dc4:	fedff06f          	j	80000db0 <extract_prec+0x90>
		conv->prec_star = true;
80000dc8:	00055783          	lhu	a5,0(a0)
80000dcc:	4007e793          	ori	a5,a5,1024
80000dd0:	00f51023          	sh	a5,0(a0)
		return ++sp;
80000dd4:	00c12503          	lw	a0,12(sp)
80000dd8:	00150513          	addi	a0,a0,1
80000ddc:	00a12623          	sw	a0,12(sp)
80000de0:	fd1ff06f          	j	80000db0 <extract_prec+0x90>
			      || (prec != (size_t)conv->prec_value));
80000de4:	00100713          	li	a4,1
80000de8:	fadff06f          	j	80000d94 <extract_prec+0x74>

80000dec <extract_length>:
80000dec:	00308013          	addi	zero,ra,3
{
80000df0:	00050613          	mv	a2,a0
	switch (*sp) {
80000df4:	0005c783          	lbu	a5,0(a1)
80000df8:	fb478793          	addi	a5,a5,-76
80000dfc:	0ff7f693          	zext.b	a3,a5
80000e00:	02e00713          	li	a4,46
80000e04:	16d76a63          	bltu	a4,a3,80000f78 <extract_length+0x18c>
80000e08:	00269793          	slli	a5,a3,0x2
80000e0c:	80007737          	lui	a4,0x80007
80000e10:	92c70713          	addi	a4,a4,-1748 # 8000692c <CONFIG_SYSTEM_WORKQUEUE_PRIORITY+0x8000692d>
80000e14:	00e787b3          	add	a5,a5,a4
80000e18:	0007a783          	lw	a5,0(a5)
80000e1c:	00078067          	jr	a5
		if (*++sp == 'h') {
80000e20:	00158513          	addi	a0,a1,1
80000e24:	0015c703          	lbu	a4,1(a1)
80000e28:	06800793          	li	a5,104
80000e2c:	02f70263          	beq	a4,a5,80000e50 <extract_length+0x64>
			conv->length_mod = LENGTH_H;
80000e30:	00065783          	lhu	a5,0(a2)
80000e34:	ffff8737          	lui	a4,0xffff8
80000e38:	7ff70713          	addi	a4,a4,2047 # ffff87ff <CONFIG_SYSTEM_WORKQUEUE_PRIORITY+0xffff8800>
80000e3c:	00e7f7b3          	and	a5,a5,a4
80000e40:	00001737          	lui	a4,0x1
80000e44:	00e7e7b3          	or	a5,a5,a4
80000e48:	00f61023          	sh	a5,0(a2)
80000e4c:	00008067          	ret
			conv->length_mod = LENGTH_HH;
80000e50:	00065783          	lhu	a5,0(a2)
80000e54:	ffff8737          	lui	a4,0xffff8
80000e58:	7ff70713          	addi	a4,a4,2047 # ffff87ff <CONFIG_SYSTEM_WORKQUEUE_PRIORITY+0xffff8800>
80000e5c:	00e7f7b3          	and	a5,a5,a4
80000e60:	00001737          	lui	a4,0x1
80000e64:	80070713          	addi	a4,a4,-2048 # 800 <CONFIG_NEWLIB_LIBC_MIN_REQUIRED_HEAP_SIZE>
80000e68:	00e7e7b3          	or	a5,a5,a4
80000e6c:	00f61023          	sh	a5,0(a2)
			++sp;
80000e70:	00258513          	addi	a0,a1,2
80000e74:	00008067          	ret
		if (*++sp == 'l') {
80000e78:	00158513          	addi	a0,a1,1
80000e7c:	0015c703          	lbu	a4,1(a1)
80000e80:	06c00793          	li	a5,108
80000e84:	02f70463          	beq	a4,a5,80000eac <extract_length+0xc0>
			conv->length_mod = LENGTH_L;
80000e88:	00065783          	lhu	a5,0(a2)
80000e8c:	ffff8737          	lui	a4,0xffff8
80000e90:	7ff70713          	addi	a4,a4,2047 # ffff87ff <CONFIG_SYSTEM_WORKQUEUE_PRIORITY+0xffff8800>
80000e94:	00e7f7b3          	and	a5,a5,a4
80000e98:	00002737          	lui	a4,0x2
80000e9c:	80070713          	addi	a4,a4,-2048 # 1800 <CONFIG_ISR_STACK_SIZE+0x800>
80000ea0:	00e7e7b3          	or	a5,a5,a4
80000ea4:	00f61023          	sh	a5,0(a2)
80000ea8:	00008067          	ret
			conv->length_mod = LENGTH_LL;
80000eac:	00065783          	lhu	a5,0(a2)
80000eb0:	ffff8737          	lui	a4,0xffff8
80000eb4:	7ff70713          	addi	a4,a4,2047 # ffff87ff <CONFIG_SYSTEM_WORKQUEUE_PRIORITY+0xffff8800>
80000eb8:	00e7f7b3          	and	a5,a5,a4
80000ebc:	00002737          	lui	a4,0x2
80000ec0:	00e7e7b3          	or	a5,a5,a4
80000ec4:	00f61023          	sh	a5,0(a2)
			++sp;
80000ec8:	00258513          	addi	a0,a1,2
80000ecc:	00008067          	ret
		conv->length_mod = LENGTH_J;
80000ed0:	00055783          	lhu	a5,0(a0)
80000ed4:	ffff8737          	lui	a4,0xffff8
80000ed8:	7ff70713          	addi	a4,a4,2047 # ffff87ff <CONFIG_SYSTEM_WORKQUEUE_PRIORITY+0xffff8800>
80000edc:	00e7f7b3          	and	a5,a5,a4
80000ee0:	00003737          	lui	a4,0x3
80000ee4:	80070713          	addi	a4,a4,-2048 # 2800 <__kernel_ram_size+0x1b0>
80000ee8:	00e7e7b3          	or	a5,a5,a4
80000eec:	00f51023          	sh	a5,0(a0)
		++sp;
80000ef0:	00158513          	addi	a0,a1,1
		break;
80000ef4:	00008067          	ret
		conv->length_mod = LENGTH_Z;
80000ef8:	00055783          	lhu	a5,0(a0)
80000efc:	ffff8737          	lui	a4,0xffff8
80000f00:	7ff70713          	addi	a4,a4,2047 # ffff87ff <CONFIG_SYSTEM_WORKQUEUE_PRIORITY+0xffff8800>
80000f04:	00e7f7b3          	and	a5,a5,a4
80000f08:	00003737          	lui	a4,0x3
80000f0c:	00e7e7b3          	or	a5,a5,a4
80000f10:	00f51023          	sh	a5,0(a0)
		++sp;
80000f14:	00158513          	addi	a0,a1,1
		break;
80000f18:	00008067          	ret
		conv->length_mod = LENGTH_T;
80000f1c:	00055783          	lhu	a5,0(a0)
80000f20:	ffff8737          	lui	a4,0xffff8
80000f24:	7ff70713          	addi	a4,a4,2047 # ffff87ff <CONFIG_SYSTEM_WORKQUEUE_PRIORITY+0xffff8800>
80000f28:	00e7f7b3          	and	a5,a5,a4
80000f2c:	00004737          	lui	a4,0x4
80000f30:	80070713          	addi	a4,a4,-2048 # 3800 <__kernel_ram_size+0x11b0>
80000f34:	00e7e7b3          	or	a5,a5,a4
80000f38:	00f51023          	sh	a5,0(a0)
		++sp;
80000f3c:	00158513          	addi	a0,a1,1
		break;
80000f40:	00008067          	ret
		conv->length_mod = LENGTH_UPPER_L;
80000f44:	00055783          	lhu	a5,0(a0)
80000f48:	ffff8737          	lui	a4,0xffff8
80000f4c:	7ff70713          	addi	a4,a4,2047 # ffff87ff <CONFIG_SYSTEM_WORKQUEUE_PRIORITY+0xffff8800>
80000f50:	00e7f7b3          	and	a5,a5,a4
80000f54:	00004737          	lui	a4,0x4
80000f58:	00e7e7b3          	or	a5,a5,a4
80000f5c:	00f51023          	sh	a5,0(a0)
		++sp;
80000f60:	00158513          	addi	a0,a1,1
		conv->unsupported = true;
80000f64:	01079793          	slli	a5,a5,0x10
80000f68:	0107d793          	srli	a5,a5,0x10
80000f6c:	0027e793          	ori	a5,a5,2
80000f70:	00f61023          	sh	a5,0(a2)
		break;
80000f74:	00008067          	ret
		conv->length_mod = LENGTH_NONE;
80000f78:	00065783          	lhu	a5,0(a2)
80000f7c:	ffff8737          	lui	a4,0xffff8
80000f80:	7ff70713          	addi	a4,a4,2047 # ffff87ff <CONFIG_SYSTEM_WORKQUEUE_PRIORITY+0xffff8800>
80000f84:	00e7f7b3          	and	a5,a5,a4
80000f88:	00f61023          	sh	a5,0(a2)
		break;
80000f8c:	00058513          	mv	a0,a1
}
80000f90:	00008067          	ret

80000f94 <extract_specifier>:
80000f94:	00308013          	addi	zero,ra,3
{
80000f98:	00050713          	mv	a4,a0
	conv->specifier = *sp++;
80000f9c:	00158513          	addi	a0,a1,1
80000fa0:	0005c783          	lbu	a5,0(a1)
80000fa4:	00f701a3          	sb	a5,3(a4)
	switch (conv->specifier) {
80000fa8:	07800693          	li	a3,120
80000fac:	04f6ea63          	bltu	a3,a5,80001000 <extract_specifier+0x6c>
80000fb0:	06e00693          	li	a3,110
80000fb4:	08d7fa63          	bgeu	a5,a3,80001048 <extract_specifier+0xb4>
80000fb8:	06900693          	li	a3,105
80000fbc:	04f6e263          	bltu	a3,a5,80001000 <extract_specifier+0x6c>
80000fc0:	05800693          	li	a3,88
80000fc4:	04d7e863          	bltu	a5,a3,80001014 <extract_specifier+0x80>
80000fc8:	fa878613          	addi	a2,a5,-88
80000fcc:	00100693          	li	a3,1
80000fd0:	00c696b3          	sll	a3,a3,a2
80000fd4:	0000e637          	lui	a2,0xe
80000fd8:	20060613          	addi	a2,a2,512 # e200 <CONFIG_SYS_CLOCK_HW_CYCLES_PER_SEC+0x6200>
80000fdc:	00c6f633          	and	a2,a3,a2
80000fe0:	04061863          	bnez	a2,80001030 <extract_specifier+0x9c>
80000fe4:	00001637          	lui	a2,0x1
80000fe8:	80160613          	addi	a2,a2,-2047 # 801 <CONFIG_NEWLIB_LIBC_MIN_REQUIRED_HEAP_SIZE+0x1>
80000fec:	00c6f633          	and	a2,a3,a2
80000ff0:	10061863          	bnez	a2,80001100 <extract_specifier+0x16c>
80000ff4:	00021637          	lui	a2,0x21
80000ff8:	00c6f6b3          	and	a3,a3,a2
80000ffc:	0a069463          	bnez	a3,800010a4 <extract_specifier+0x110>
		conv->invalid = true;
80001000:	00075783          	lhu	a5,0(a4)
80001004:	0017e793          	ori	a5,a5,1
80001008:	00f71023          	sh	a5,0(a4)
	bool unsupported = false;
8000100c:	00000793          	li	a5,0
		break;
80001010:	0c80006f          	j	800010d8 <extract_specifier+0x144>
	switch (conv->specifier) {
80001014:	04100693          	li	a3,65
80001018:	00d78c63          	beq	a5,a3,80001030 <extract_specifier+0x9c>
8000101c:	fed7e2e3          	bltu	a5,a3,80001000 <extract_specifier+0x6c>
80001020:	fbb78793          	addi	a5,a5,-69
80001024:	0ff7f793          	zext.b	a5,a5
80001028:	00200693          	li	a3,2
8000102c:	fcf6eae3          	bltu	a3,a5,80001000 <extract_specifier+0x6c>
		conv->specifier_cat = SPECIFIER_FP;
80001030:	00274783          	lbu	a5,2(a4)
80001034:	ff87f793          	andi	a5,a5,-8
80001038:	0047e793          	ori	a5,a5,4
8000103c:	00f70123          	sb	a5,2(a4)
			unsupported = true;
80001040:	00100793          	li	a5,1
			break;
80001044:	0940006f          	j	800010d8 <extract_specifier+0x144>
	switch (conv->specifier) {
80001048:	f9278613          	addi	a2,a5,-110
8000104c:	00100693          	li	a3,1
80001050:	00c696b3          	sll	a3,a3,a2
80001054:	4826f613          	andi	a2,a3,1154
80001058:	00c035b3          	snez	a1,a2
8000105c:	0a061263          	bnez	a2,80001100 <extract_specifier+0x16c>
80001060:	0246f613          	andi	a2,a3,36
80001064:	00c037b3          	snez	a5,a2
80001068:	0c061a63          	bnez	a2,8000113c <extract_specifier+0x1a8>
8000106c:	0016f693          	andi	a3,a3,1
80001070:	f80688e3          	beqz	a3,80001000 <extract_specifier+0x6c>
		conv->specifier_cat = SPECIFIER_PTR;
80001074:	00274603          	lbu	a2,2(a4)
80001078:	ff867613          	andi	a2,a2,-8
8000107c:	00366613          	ori	a2,a2,3
80001080:	00c70123          	sb	a2,2(a4)
		if (conv->length_mod == LENGTH_UPPER_L) {
80001084:	00075603          	lhu	a2,0(a4)
80001088:	000085b7          	lui	a1,0x8
8000108c:	80058593          	addi	a1,a1,-2048 # 7800 <__rom_region_size+0xa0c>
80001090:	00b67633          	and	a2,a2,a1
80001094:	000045b7          	lui	a1,0x4
80001098:	04b61063          	bne	a2,a1,800010d8 <extract_specifier+0x144>
			unsupported = true;
8000109c:	00068793          	mv	a5,a3
800010a0:	0380006f          	j	800010d8 <extract_specifier+0x144>
		conv->specifier_cat = SPECIFIER_SINT;
800010a4:	00274683          	lbu	a3,2(a4)
800010a8:	ff86f693          	andi	a3,a3,-8
800010ac:	0016e693          	ori	a3,a3,1
800010b0:	00d70123          	sb	a3,2(a4)
		if (conv->length_mod == LENGTH_UPPER_L) {
800010b4:	00075683          	lhu	a3,0(a4)
800010b8:	00008637          	lui	a2,0x8
800010bc:	80060613          	addi	a2,a2,-2048 # 7800 <__rom_region_size+0xa0c>
800010c0:	00c6f6b3          	and	a3,a3,a2
800010c4:	00004637          	lui	a2,0x4
800010c8:	04c68663          	beq	a3,a2,80001114 <extract_specifier+0x180>
		if (conv->specifier == 'c') {
800010cc:	06300693          	li	a3,99
800010d0:	04d78a63          	beq	a5,a3,80001124 <extract_specifier+0x190>
	bool unsupported = false;
800010d4:	00000793          	li	a5,0
	conv->unsupported |= unsupported;
800010d8:	00072683          	lw	a3,0(a4)
800010dc:	0016d693          	srli	a3,a3,0x1
800010e0:	0016f693          	andi	a3,a3,1
800010e4:	00d7e7b3          	or	a5,a5,a3
800010e8:	00179793          	slli	a5,a5,0x1
800010ec:	00075683          	lhu	a3,0(a4)
800010f0:	ffd6f693          	andi	a3,a3,-3
800010f4:	00f6e7b3          	or	a5,a3,a5
800010f8:	00f71023          	sh	a5,0(a4)
}
800010fc:	00008067          	ret
		conv->specifier_cat = SPECIFIER_UINT;
80001100:	00274683          	lbu	a3,2(a4)
80001104:	ff86f693          	andi	a3,a3,-8
80001108:	0026e693          	ori	a3,a3,2
8000110c:	00d70123          	sb	a3,2(a4)
80001110:	fa5ff06f          	j	800010b4 <extract_specifier+0x120>
			conv->invalid = true;
80001114:	00075683          	lhu	a3,0(a4)
80001118:	0016e693          	ori	a3,a3,1
8000111c:	00d71023          	sh	a3,0(a4)
80001120:	fadff06f          	j	800010cc <extract_specifier+0x138>
			unsupported = (conv->length_mod != LENGTH_NONE);
80001124:	00075783          	lhu	a5,0(a4)
80001128:	000086b7          	lui	a3,0x8
8000112c:	80068693          	addi	a3,a3,-2048 # 7800 <__rom_region_size+0xa0c>
80001130:	00d7f7b3          	and	a5,a5,a3
80001134:	00f037b3          	snez	a5,a5
80001138:	fa1ff06f          	j	800010d8 <extract_specifier+0x144>
		conv->specifier_cat = SPECIFIER_PTR;
8000113c:	00274683          	lbu	a3,2(a4)
80001140:	ff86f693          	andi	a3,a3,-8
80001144:	0036e693          	ori	a3,a3,3
80001148:	00d70123          	sb	a3,2(a4)
		if (conv->length_mod != LENGTH_NONE) {
8000114c:	00075683          	lhu	a3,0(a4)
80001150:	00008637          	lui	a2,0x8
80001154:	80060613          	addi	a2,a2,-2048 # 7800 <__rom_region_size+0xa0c>
80001158:	00c6f6b3          	and	a3,a3,a2
8000115c:	f6069ee3          	bnez	a3,800010d8 <extract_specifier+0x144>
	bool unsupported = false;
80001160:	00058793          	mv	a5,a1
80001164:	f75ff06f          	j	800010d8 <extract_specifier+0x144>

80001168 <extract_conversion>:
80001168:	00308013          	addi	zero,ra,3
{
8000116c:	ff010113          	addi	sp,sp,-16
80001170:	00112623          	sw	ra,12(sp)
80001174:	00812423          	sw	s0,8(sp)
80001178:	00050413          	mv	s0,a0
	*conv = (struct conversion) {
8000117c:	00052023          	sw	zero,0(a0)
80001180:	00052223          	sw	zero,4(a0)
80001184:	00052423          	sw	zero,8(a0)
	if (*sp == '%') {
80001188:	0015c783          	lbu	a5,1(a1) # 4001 <__kernel_ram_size+0x19b1>
8000118c:	02500713          	li	a4,37
80001190:	04e78863          	beq	a5,a4,800011e0 <extract_conversion+0x78>
80001194:	00158593          	addi	a1,a1,1
	sp = extract_flags(conv, sp);
80001198:	00040513          	mv	a0,s0
8000119c:	a05ff0ef          	jal	ra,80000ba0 <extract_flags>
800011a0:	00050593          	mv	a1,a0
	sp = extract_width(conv, sp);
800011a4:	00040513          	mv	a0,s0
800011a8:	abdff0ef          	jal	ra,80000c64 <extract_width>
800011ac:	00050593          	mv	a1,a0
	sp = extract_prec(conv, sp);
800011b0:	00040513          	mv	a0,s0
800011b4:	b6dff0ef          	jal	ra,80000d20 <extract_prec>
800011b8:	00050593          	mv	a1,a0
	sp = extract_length(conv, sp);
800011bc:	00040513          	mv	a0,s0
800011c0:	c2dff0ef          	jal	ra,80000dec <extract_length>
800011c4:	00050593          	mv	a1,a0
	sp = extract_specifier(conv, sp);
800011c8:	00040513          	mv	a0,s0
800011cc:	dc9ff0ef          	jal	ra,80000f94 <extract_specifier>
}
800011d0:	00c12083          	lw	ra,12(sp)
800011d4:	00812403          	lw	s0,8(sp)
800011d8:	01010113          	addi	sp,sp,16
800011dc:	00008067          	ret
		conv->specifier = *sp++;
800011e0:	00258513          	addi	a0,a1,2
800011e4:	00f401a3          	sb	a5,3(s0)
		return sp;
800011e8:	fe9ff06f          	j	800011d0 <extract_conversion+0x68>

800011ec <conversion_radix>:
800011ec:	00308013          	addi	zero,ra,3
	switch (specifier) {
800011f0:	06f00793          	li	a5,111
800011f4:	02f50c63          	beq	a0,a5,8000122c <conversion_radix+0x40>
800011f8:	00a7fe63          	bgeu	a5,a0,80001214 <conversion_radix+0x28>
800011fc:	07000793          	li	a5,112
80001200:	02f50a63          	beq	a0,a5,80001234 <conversion_radix+0x48>
80001204:	07800793          	li	a5,120
80001208:	02f51a63          	bne	a0,a5,8000123c <conversion_radix+0x50>
		return 16;
8000120c:	01000513          	li	a0,16
80001210:	00008067          	ret
	switch (specifier) {
80001214:	05800793          	li	a5,88
80001218:	00f50663          	beq	a0,a5,80001224 <conversion_radix+0x38>
8000121c:	00a00513          	li	a0,10
80001220:	00008067          	ret
		return 16;
80001224:	01000513          	li	a0,16
80001228:	00008067          	ret
		return 8;
8000122c:	00800513          	li	a0,8
80001230:	00008067          	ret
		return 16;
80001234:	01000513          	li	a0,16
80001238:	00008067          	ret
	switch (specifier) {
8000123c:	00a00513          	li	a0,10
}
80001240:	00008067          	ret

80001244 <encode_uint>:
80001244:	00308013          	addi	zero,ra,3
{
80001248:	fd010113          	addi	sp,sp,-48
8000124c:	02112623          	sw	ra,44(sp)
80001250:	02812423          	sw	s0,40(sp)
80001254:	02912223          	sw	s1,36(sp)
80001258:	03212023          	sw	s2,32(sp)
8000125c:	01312e23          	sw	s3,28(sp)
80001260:	01412c23          	sw	s4,24(sp)
80001264:	01512a23          	sw	s5,20(sp)
80001268:	01612823          	sw	s6,16(sp)
8000126c:	01712623          	sw	s7,12(sp)
80001270:	01812423          	sw	s8,8(sp)
80001274:	00050993          	mv	s3,a0
80001278:	00058413          	mv	s0,a1
8000127c:	00060c13          	mv	s8,a2
80001280:	00068a93          	mv	s5,a3
80001284:	00070493          	mv	s1,a4
	bool upcase = isupper((int)conv->specifier);
80001288:	00364503          	lbu	a0,3(a2)
8000128c:	800077b7          	lui	a5,0x80007
80001290:	bfd78793          	addi	a5,a5,-1027 # 80006bfd <CONFIG_SYSTEM_WORKQUEUE_PRIORITY+0x80006bfe>
80001294:	00f507b3          	add	a5,a0,a5
80001298:	0007cb83          	lbu	s7,0(a5)
8000129c:	003bfb93          	andi	s7,s7,3
	const unsigned int radix = conversion_radix(conv->specifier);
800012a0:	f4dff0ef          	jal	ra,800011ec <conversion_radix>
800012a4:	00050913          	mv	s2,a0
	char *bp = bps + (bpe - bps);
800012a8:	0480006f          	j	800012f0 <encode_uint+0xac>
		*--bp = (lsv <= 9) ? ('0' + lsv)
800012ac:	00100793          	li	a5,1
800012b0:	06fb8a63          	beq	s7,a5,80001324 <encode_uint+0xe0>
			: upcase ? ('A' + lsv - 10) : ('a' + lsv - 10);
800012b4:	0ff57793          	zext.b	a5,a0
		*--bp = (lsv <= 9) ? ('0' + lsv)
800012b8:	05778793          	addi	a5,a5,87
800012bc:	0ff7f793          	zext.b	a5,a5
800012c0:	fff48493          	addi	s1,s1,-1
800012c4:	00f48023          	sb	a5,0(s1)
		value /= radix;
800012c8:	00090613          	mv	a2,s2
800012cc:	00000693          	li	a3,0
800012d0:	00098513          	mv	a0,s3
800012d4:	00040593          	mv	a1,s0
800012d8:	f0dfe0ef          	jal	ra,800001e4 <__udivdi3>
	} while ((value != 0) && (bps < bp));
800012dc:	05446e63          	bltu	s0,s4,80001338 <encode_uint+0xf4>
800012e0:	048a0a63          	beq	s4,s0,80001334 <encode_uint+0xf0>
800012e4:	049afa63          	bgeu	s5,s1,80001338 <encode_uint+0xf4>
		value /= radix;
800012e8:	00050993          	mv	s3,a0
800012ec:	00058413          	mv	s0,a1
		unsigned int lsv = (unsigned int)(value % radix);
800012f0:	00090b13          	mv	s6,s2
800012f4:	00000a13          	li	s4,0
800012f8:	00090613          	mv	a2,s2
800012fc:	00000693          	li	a3,0
80001300:	00098513          	mv	a0,s3
80001304:	00040593          	mv	a1,s0
80001308:	b0cff0ef          	jal	ra,80000614 <__umoddi3>
		*--bp = (lsv <= 9) ? ('0' + lsv)
8000130c:	00900793          	li	a5,9
80001310:	f8a7eee3          	bltu	a5,a0,800012ac <encode_uint+0x68>
80001314:	0ff57793          	zext.b	a5,a0
80001318:	03078793          	addi	a5,a5,48
8000131c:	0ff7f793          	zext.b	a5,a5
80001320:	fa1ff06f          	j	800012c0 <encode_uint+0x7c>
			: upcase ? ('A' + lsv - 10) : ('a' + lsv - 10);
80001324:	0ff57793          	zext.b	a5,a0
		*--bp = (lsv <= 9) ? ('0' + lsv)
80001328:	03778793          	addi	a5,a5,55
8000132c:	0ff7f793          	zext.b	a5,a5
80001330:	f91ff06f          	j	800012c0 <encode_uint+0x7c>
	} while ((value != 0) && (bps < bp));
80001334:	fb69f8e3          	bgeu	s3,s6,800012e4 <encode_uint+0xa0>
	if (conv->flag_hash) {
80001338:	000c5783          	lhu	a5,0(s8)
8000133c:	0207f793          	andi	a5,a5,32
80001340:	00078a63          	beqz	a5,80001354 <encode_uint+0x110>
		if (radix == 8) {
80001344:	00800793          	li	a5,8
80001348:	04f90063          	beq	s2,a5,80001388 <encode_uint+0x144>
		} else if (radix == 16) {
8000134c:	01000793          	li	a5,16
80001350:	04f90463          	beq	s2,a5,80001398 <encode_uint+0x154>
}
80001354:	00048513          	mv	a0,s1
80001358:	02c12083          	lw	ra,44(sp)
8000135c:	02812403          	lw	s0,40(sp)
80001360:	02412483          	lw	s1,36(sp)
80001364:	02012903          	lw	s2,32(sp)
80001368:	01c12983          	lw	s3,28(sp)
8000136c:	01812a03          	lw	s4,24(sp)
80001370:	01412a83          	lw	s5,20(sp)
80001374:	01012b03          	lw	s6,16(sp)
80001378:	00c12b83          	lw	s7,12(sp)
8000137c:	00812c03          	lw	s8,8(sp)
80001380:	03010113          	addi	sp,sp,48
80001384:	00008067          	ret
			conv->altform_0 = true;
80001388:	002c4783          	lbu	a5,2(s8)
8000138c:	0087e793          	ori	a5,a5,8
80001390:	00fc0123          	sb	a5,2(s8)
80001394:	fc1ff06f          	j	80001354 <encode_uint+0x110>
			conv->altform_0c = true;
80001398:	002c4783          	lbu	a5,2(s8)
8000139c:	0107e793          	ori	a5,a5,16
800013a0:	00fc0123          	sb	a5,2(s8)
800013a4:	fb1ff06f          	j	80001354 <encode_uint+0x110>

800013a8 <store_count>:
800013a8:	00308013          	addi	zero,ra,3
	switch ((enum length_mod_enum)conv->length_mod) {
800013ac:	00052783          	lw	a5,0(a0)
800013b0:	00b7d793          	srli	a5,a5,0xb
800013b4:	00f7f793          	andi	a5,a5,15
800013b8:	00700713          	li	a4,7
800013bc:	06f76463          	bltu	a4,a5,80001424 <store_count+0x7c>
800013c0:	00279793          	slli	a5,a5,0x2
800013c4:	80007737          	lui	a4,0x80007
800013c8:	9e870713          	addi	a4,a4,-1560 # 800069e8 <CONFIG_SYSTEM_WORKQUEUE_PRIORITY+0x800069e9>
800013cc:	00e787b3          	add	a5,a5,a4
800013d0:	0007a783          	lw	a5,0(a5)
800013d4:	00078067          	jr	a5
		*(int *)dp = count;
800013d8:	00c5a023          	sw	a2,0(a1)
		break;
800013dc:	00008067          	ret
		*(signed char *)dp = (signed char)count;
800013e0:	00c58023          	sb	a2,0(a1)
		break;
800013e4:	00008067          	ret
		*(short *)dp = (short)count;
800013e8:	00c59023          	sh	a2,0(a1)
		break;
800013ec:	00008067          	ret
		*(long *)dp = (long)count;
800013f0:	00c5a023          	sw	a2,0(a1)
		break;
800013f4:	00008067          	ret
		*(long long *)dp = (long long)count;
800013f8:	41f65793          	srai	a5,a2,0x1f
800013fc:	00c5a023          	sw	a2,0(a1)
80001400:	00f5a223          	sw	a5,4(a1)
		break;
80001404:	00008067          	ret
		*(intmax_t *)dp = (intmax_t)count;
80001408:	41f65793          	srai	a5,a2,0x1f
8000140c:	00c5a023          	sw	a2,0(a1)
80001410:	00f5a223          	sw	a5,4(a1)
		break;
80001414:	00008067          	ret
		*(size_t *)dp = (size_t)count;
80001418:	00c5a023          	sw	a2,0(a1)
		break;
8000141c:	00008067          	ret
		*(ptrdiff_t *)dp = (ptrdiff_t)count;
80001420:	00c5a023          	sw	a2,0(a1)
}
80001424:	00008067          	ret

80001428 <outs>:
80001428:	00308013          	addi	zero,ra,3
{
8000142c:	fe010113          	addi	sp,sp,-32
80001430:	00112e23          	sw	ra,28(sp)
80001434:	00812c23          	sw	s0,24(sp)
80001438:	00912a23          	sw	s1,20(sp)
8000143c:	01212823          	sw	s2,16(sp)
80001440:	01312623          	sw	s3,12(sp)
80001444:	01412423          	sw	s4,8(sp)
80001448:	00050a13          	mv	s4,a0
8000144c:	00058993          	mv	s3,a1
80001450:	00068913          	mv	s2,a3
	size_t count = 0;
80001454:	00000413          	li	s0,0
	while ((sp < ep) || ((ep == NULL) && *sp)) {
80001458:	0200006f          	j	80001478 <outs+0x50>
		int rc = out((int)*sp++, ctx);
8000145c:	00160493          	addi	s1,a2,1
80001460:	00098593          	mv	a1,s3
80001464:	00064503          	lbu	a0,0(a2)
80001468:	000a00e7          	jalr	s4
		if (rc < 0) {
8000146c:	02054063          	bltz	a0,8000148c <outs+0x64>
		++count;
80001470:	00140413          	addi	s0,s0,1
		int rc = out((int)*sp++, ctx);
80001474:	00048613          	mv	a2,s1
	while ((sp < ep) || ((ep == NULL) && *sp)) {
80001478:	ff2662e3          	bltu	a2,s2,8000145c <outs+0x34>
8000147c:	00091663          	bnez	s2,80001488 <outs+0x60>
80001480:	00064783          	lbu	a5,0(a2)
80001484:	fc079ce3          	bnez	a5,8000145c <outs+0x34>
	return (int)count;
80001488:	00040513          	mv	a0,s0
}
8000148c:	01c12083          	lw	ra,28(sp)
80001490:	01812403          	lw	s0,24(sp)
80001494:	01412483          	lw	s1,20(sp)
80001498:	01012903          	lw	s2,16(sp)
8000149c:	00c12983          	lw	s3,12(sp)
800014a0:	00812a03          	lw	s4,8(sp)
800014a4:	02010113          	addi	sp,sp,32
800014a8:	00008067          	ret

800014ac <z_cbvprintf_impl>:
800014ac:	00308013          	addi	zero,ra,3
{
800014b0:	f8010113          	addi	sp,sp,-128
800014b4:	06112e23          	sw	ra,124(sp)
800014b8:	06812c23          	sw	s0,120(sp)
800014bc:	06912a23          	sw	s1,116(sp)
800014c0:	07212823          	sw	s2,112(sp)
800014c4:	07312623          	sw	s3,108(sp)
800014c8:	07412423          	sw	s4,104(sp)
800014cc:	07512223          	sw	s5,100(sp)
800014d0:	07612023          	sw	s6,96(sp)
800014d4:	05712e23          	sw	s7,92(sp)
800014d8:	05812c23          	sw	s8,88(sp)
800014dc:	00050913          	mv	s2,a0
800014e0:	00058493          	mv	s1,a1
800014e4:	00060a93          	mv	s5,a2
800014e8:	00d12623          	sw	a3,12(sp)
	size_t count = 0;
800014ec:	00000413          	li	s0,0
	while (*fp != 0) {
800014f0:	000ac503          	lbu	a0,0(s5)
800014f4:	78050063          	beqz	a0,80001c74 <z_cbvprintf_impl+0x7c8>
		if (*fp != '%') {
800014f8:	02500793          	li	a5,37
800014fc:	00f50e63          	beq	a0,a5,80001518 <z_cbvprintf_impl+0x6c>
			OUTC(*fp++);
80001500:	001a8a93          	addi	s5,s5,1
80001504:	00048593          	mv	a1,s1
80001508:	000900e7          	jalr	s2
8000150c:	76054663          	bltz	a0,80001c78 <z_cbvprintf_impl+0x7cc>
80001510:	00140413          	addi	s0,s0,1
			continue;
80001514:	fddff06f          	j	800014f0 <z_cbvprintf_impl+0x44>
		} state = {
80001518:	00012823          	sw	zero,16(sp)
8000151c:	00012a23          	sw	zero,20(sp)
80001520:	00012c23          	sw	zero,24(sp)
80001524:	00012e23          	sw	zero,28(sp)
80001528:	02012023          	sw	zero,32(sp)
8000152c:	02012223          	sw	zero,36(sp)
80001530:	02012423          	sw	zero,40(sp)
80001534:	02012623          	sw	zero,44(sp)
		fp = extract_conversion(conv, sp);
80001538:	000a8593          	mv	a1,s5
8000153c:	02010513          	addi	a0,sp,32
80001540:	c29ff0ef          	jal	ra,80001168 <extract_conversion>
80001544:	00050993          	mv	s3,a0
		if (conv->width_star) {
80001548:	02015783          	lhu	a5,32(sp)
8000154c:	1007f713          	andi	a4,a5,256
80001550:	0c070263          	beqz	a4,80001614 <z_cbvprintf_impl+0x168>
			width = va_arg(ap, int);
80001554:	00c12783          	lw	a5,12(sp)
80001558:	00478713          	addi	a4,a5,4
8000155c:	00e12623          	sw	a4,12(sp)
80001560:	0007aa03          	lw	s4,0(a5)
			if (width < 0) {
80001564:	080a4e63          	bltz	s4,80001600 <z_cbvprintf_impl+0x154>
		if (conv->prec_star) {
80001568:	02015783          	lhu	a5,32(sp)
8000156c:	4007f713          	andi	a4,a5,1024
80001570:	0c070863          	beqz	a4,80001640 <z_cbvprintf_impl+0x194>
			int arg = va_arg(ap, int);
80001574:	00c12783          	lw	a5,12(sp)
80001578:	00478713          	addi	a4,a5,4
8000157c:	00e12623          	sw	a4,12(sp)
80001580:	0007ab03          	lw	s6,0(a5)
			if (arg < 0) {
80001584:	0a0b4463          	bltz	s6,8000162c <z_cbvprintf_impl+0x180>
		conv->pad0_value = 0;
80001588:	02012223          	sw	zero,36(sp)
		conv->pad0_pre_exp = 0;
8000158c:	02012423          	sw	zero,40(sp)
			= (enum specifier_cat_enum)conv->specifier_cat;
80001590:	02012783          	lw	a5,32(sp)
80001594:	0107d713          	srli	a4,a5,0x10
80001598:	00777713          	andi	a4,a4,7
			= (enum length_mod_enum)conv->length_mod;
8000159c:	00b7d793          	srli	a5,a5,0xb
800015a0:	00f7f793          	andi	a5,a5,15
		enum length_mod_enum length_mod
800015a4:	00078693          	mv	a3,a5
		if (specifier_cat == SPECIFIER_SINT) {
800015a8:	00100613          	li	a2,1
800015ac:	0ac70663          	beq	a4,a2,80001658 <z_cbvprintf_impl+0x1ac>
		} else if (specifier_cat == SPECIFIER_UINT) {
800015b0:	00200613          	li	a2,2
800015b4:	1ec70063          	beq	a4,a2,80001794 <z_cbvprintf_impl+0x2e8>
		} else if (specifier_cat == SPECIFIER_FP) {
800015b8:	00400793          	li	a5,4
800015bc:	2cf70a63          	beq	a4,a5,80001890 <z_cbvprintf_impl+0x3e4>
		} else if (specifier_cat == SPECIFIER_PTR) {
800015c0:	00300793          	li	a5,3
800015c4:	32f70863          	beq	a4,a5,800018f4 <z_cbvprintf_impl+0x448>
		if (conv->invalid || conv->unsupported) {
800015c8:	02012783          	lw	a5,32(sp)
800015cc:	0037f793          	andi	a5,a5,3
800015d0:	32079e63          	bnez	a5,8000190c <z_cbvprintf_impl+0x460>
		switch (conv->specifier) {
800015d4:	02314783          	lbu	a5,35(sp)
800015d8:	fdb78793          	addi	a5,a5,-37
800015dc:	0ff7f693          	zext.b	a3,a5
800015e0:	05300713          	li	a4,83
800015e4:	4cd76a63          	bltu	a4,a3,80001ab8 <z_cbvprintf_impl+0x60c>
800015e8:	00269793          	slli	a5,a3,0x2
800015ec:	80007737          	lui	a4,0x80007
800015f0:	a1070713          	addi	a4,a4,-1520 # 80006a10 <CONFIG_SYSTEM_WORKQUEUE_PRIORITY+0x80006a11>
800015f4:	00e787b3          	add	a5,a5,a4
800015f8:	0007a783          	lw	a5,0(a5)
800015fc:	00078067          	jr	a5
				conv->flag_dash = true;
80001600:	02015783          	lhu	a5,32(sp)
80001604:	0047e793          	ori	a5,a5,4
80001608:	02f11023          	sh	a5,32(sp)
				width = -width;
8000160c:	41400a33          	neg	s4,s4
80001610:	f59ff06f          	j	80001568 <z_cbvprintf_impl+0xbc>
		} else if (conv->width_present) {
80001614:	0807f793          	andi	a5,a5,128
80001618:	00078663          	beqz	a5,80001624 <z_cbvprintf_impl+0x178>
			width = conv->width_value;
8000161c:	02412a03          	lw	s4,36(sp)
80001620:	f49ff06f          	j	80001568 <z_cbvprintf_impl+0xbc>
		int width = -1;
80001624:	fff00a13          	li	s4,-1
80001628:	f41ff06f          	j	80001568 <z_cbvprintf_impl+0xbc>
				conv->prec_present = false;
8000162c:	02015783          	lhu	a5,32(sp)
80001630:	dff7f793          	andi	a5,a5,-513
80001634:	02f11023          	sh	a5,32(sp)
		int precision = -1;
80001638:	fff00b13          	li	s6,-1
8000163c:	f4dff06f          	j	80001588 <z_cbvprintf_impl+0xdc>
		} else if (conv->prec_present) {
80001640:	2007f793          	andi	a5,a5,512
80001644:	00078663          	beqz	a5,80001650 <z_cbvprintf_impl+0x1a4>
			precision = conv->prec_value;
80001648:	02812b03          	lw	s6,40(sp)
8000164c:	f3dff06f          	j	80001588 <z_cbvprintf_impl+0xdc>
		int precision = -1;
80001650:	fff00b13          	li	s6,-1
80001654:	f35ff06f          	j	80001588 <z_cbvprintf_impl+0xdc>
			switch (length_mod) {
80001658:	00500713          	li	a4,5
8000165c:	0ee78e63          	beq	a5,a4,80001758 <z_cbvprintf_impl+0x2ac>
80001660:	02f76e63          	bltu	a4,a5,8000169c <z_cbvprintf_impl+0x1f0>
80001664:	00300713          	li	a4,3
80001668:	0ae78263          	beq	a5,a4,8000170c <z_cbvprintf_impl+0x260>
8000166c:	00400713          	li	a4,4
80001670:	04e79e63          	bne	a5,a4,800016cc <z_cbvprintf_impl+0x220>
					(sint_value_type)va_arg(ap, long long);
80001674:	00c12783          	lw	a5,12(sp)
80001678:	00778793          	addi	a5,a5,7
8000167c:	ff87f793          	andi	a5,a5,-8
80001680:	00878713          	addi	a4,a5,8
80001684:	00e12623          	sw	a4,12(sp)
80001688:	0007a703          	lw	a4,0(a5)
8000168c:	0047a783          	lw	a5,4(a5)
				value->sint =
80001690:	00e12823          	sw	a4,16(sp)
80001694:	00f12a23          	sw	a5,20(sp)
				break;
80001698:	0500006f          	j	800016e8 <z_cbvprintf_impl+0x23c>
			switch (length_mod) {
8000169c:	00a78793          	addi	a5,a5,10
800016a0:	00f7f793          	andi	a5,a5,15
800016a4:	00100713          	li	a4,1
800016a8:	02f76263          	bltu	a4,a5,800016cc <z_cbvprintf_impl+0x220>
					(sint_value_type)va_arg(ap, ptrdiff_t);
800016ac:	00c12783          	lw	a5,12(sp)
800016b0:	00478713          	addi	a4,a5,4
800016b4:	00e12623          	sw	a4,12(sp)
800016b8:	0007a783          	lw	a5,0(a5)
800016bc:	41f7d713          	srai	a4,a5,0x1f
				value->sint =
800016c0:	00f12823          	sw	a5,16(sp)
800016c4:	00e12a23          	sw	a4,20(sp)
				break;
800016c8:	0200006f          	j	800016e8 <z_cbvprintf_impl+0x23c>
				value->sint = va_arg(ap, int);
800016cc:	00c12783          	lw	a5,12(sp)
800016d0:	00478713          	addi	a4,a5,4
800016d4:	00e12623          	sw	a4,12(sp)
800016d8:	0007a783          	lw	a5,0(a5)
800016dc:	41f7d713          	srai	a4,a5,0x1f
800016e0:	00f12823          	sw	a5,16(sp)
800016e4:	00e12a23          	sw	a4,20(sp)
			if (length_mod == LENGTH_HH) {
800016e8:	00100793          	li	a5,1
800016ec:	08f68a63          	beq	a3,a5,80001780 <z_cbvprintf_impl+0x2d4>
			} else if (length_mod == LENGTH_H) {
800016f0:	00200793          	li	a5,2
800016f4:	ecf69ae3          	bne	a3,a5,800015c8 <z_cbvprintf_impl+0x11c>
				value->sint = (short)value->sint;
800016f8:	01011783          	lh	a5,16(sp)
800016fc:	41f7d713          	srai	a4,a5,0x1f
80001700:	00f12823          	sw	a5,16(sp)
80001704:	00e12a23          	sw	a4,20(sp)
80001708:	ec1ff06f          	j	800015c8 <z_cbvprintf_impl+0x11c>
				    && (conv->specifier == 'c')) {
8000170c:	02314703          	lbu	a4,35(sp)
				if (WCHAR_IS_SIGNED
80001710:	06300793          	li	a5,99
80001714:	02f70263          	beq	a4,a5,80001738 <z_cbvprintf_impl+0x28c>
					value->sint = va_arg(ap, long);
80001718:	00c12783          	lw	a5,12(sp)
8000171c:	00478713          	addi	a4,a5,4
80001720:	00e12623          	sw	a4,12(sp)
80001724:	0007a783          	lw	a5,0(a5)
80001728:	41f7d713          	srai	a4,a5,0x1f
8000172c:	00f12823          	sw	a5,16(sp)
80001730:	00e12a23          	sw	a4,20(sp)
80001734:	fb5ff06f          	j	800016e8 <z_cbvprintf_impl+0x23c>
					value->sint = (wchar_t)va_arg(ap,
80001738:	00c12783          	lw	a5,12(sp)
8000173c:	00478713          	addi	a4,a5,4
80001740:	00e12623          	sw	a4,12(sp)
80001744:	0007a783          	lw	a5,0(a5)
80001748:	41f7d713          	srai	a4,a5,0x1f
8000174c:	00f12823          	sw	a5,16(sp)
80001750:	00e12a23          	sw	a4,20(sp)
80001754:	f95ff06f          	j	800016e8 <z_cbvprintf_impl+0x23c>
					(sint_value_type)va_arg(ap, intmax_t);
80001758:	00c12783          	lw	a5,12(sp)
8000175c:	00778793          	addi	a5,a5,7
80001760:	ff87f793          	andi	a5,a5,-8
80001764:	00878713          	addi	a4,a5,8
80001768:	00e12623          	sw	a4,12(sp)
8000176c:	0007a703          	lw	a4,0(a5)
80001770:	0047a783          	lw	a5,4(a5)
				value->sint =
80001774:	00e12823          	sw	a4,16(sp)
80001778:	00f12a23          	sw	a5,20(sp)
				break;
8000177c:	f6dff06f          	j	800016e8 <z_cbvprintf_impl+0x23c>
				value->sint = (signed char)value->sint;
80001780:	01010783          	lb	a5,16(sp)
80001784:	41f7d713          	srai	a4,a5,0x1f
80001788:	00f12823          	sw	a5,16(sp)
8000178c:	00e12a23          	sw	a4,20(sp)
80001790:	e39ff06f          	j	800015c8 <z_cbvprintf_impl+0x11c>
			switch (length_mod) {
80001794:	00500713          	li	a4,5
80001798:	0ce78063          	beq	a5,a4,80001858 <z_cbvprintf_impl+0x3ac>
8000179c:	02f76e63          	bltu	a4,a5,800017d8 <z_cbvprintf_impl+0x32c>
800017a0:	00300713          	li	a4,3
800017a4:	08e78c63          	beq	a5,a4,8000183c <z_cbvprintf_impl+0x390>
800017a8:	00400713          	li	a4,4
800017ac:	04e79c63          	bne	a5,a4,80001804 <z_cbvprintf_impl+0x358>
					(uint_value_type)va_arg(ap,
800017b0:	00c12783          	lw	a5,12(sp)
800017b4:	00778793          	addi	a5,a5,7
800017b8:	ff87f793          	andi	a5,a5,-8
800017bc:	00878713          	addi	a4,a5,8
800017c0:	00e12623          	sw	a4,12(sp)
800017c4:	0007a703          	lw	a4,0(a5)
800017c8:	0047a783          	lw	a5,4(a5)
				value->uint =
800017cc:	00e12823          	sw	a4,16(sp)
800017d0:	00f12a23          	sw	a5,20(sp)
				break;
800017d4:	0480006f          	j	8000181c <z_cbvprintf_impl+0x370>
			switch (length_mod) {
800017d8:	00a78793          	addi	a5,a5,10
800017dc:	00f7f793          	andi	a5,a5,15
800017e0:	00100713          	li	a4,1
800017e4:	02f76063          	bltu	a4,a5,80001804 <z_cbvprintf_impl+0x358>
					(uint_value_type)va_arg(ap, size_t);
800017e8:	00c12783          	lw	a5,12(sp)
800017ec:	00478713          	addi	a4,a5,4
800017f0:	00e12623          	sw	a4,12(sp)
800017f4:	0007a783          	lw	a5,0(a5)
				value->uint =
800017f8:	00f12823          	sw	a5,16(sp)
800017fc:	00012a23          	sw	zero,20(sp)
				break;
80001800:	01c0006f          	j	8000181c <z_cbvprintf_impl+0x370>
				value->uint = va_arg(ap, unsigned int);
80001804:	00c12783          	lw	a5,12(sp)
80001808:	00478713          	addi	a4,a5,4
8000180c:	00e12623          	sw	a4,12(sp)
80001810:	0007a783          	lw	a5,0(a5)
80001814:	00f12823          	sw	a5,16(sp)
80001818:	00012a23          	sw	zero,20(sp)
			if (length_mod == LENGTH_HH) {
8000181c:	00100793          	li	a5,1
80001820:	06f68063          	beq	a3,a5,80001880 <z_cbvprintf_impl+0x3d4>
			} else if (length_mod == LENGTH_H) {
80001824:	00200793          	li	a5,2
80001828:	daf690e3          	bne	a3,a5,800015c8 <z_cbvprintf_impl+0x11c>
				value->uint = (unsigned short)value->uint;
8000182c:	01015783          	lhu	a5,16(sp)
80001830:	00f12823          	sw	a5,16(sp)
80001834:	00012a23          	sw	zero,20(sp)
80001838:	d91ff06f          	j	800015c8 <z_cbvprintf_impl+0x11c>
					value->uint = va_arg(ap, unsigned long);
8000183c:	00c12783          	lw	a5,12(sp)
80001840:	00478713          	addi	a4,a5,4
80001844:	00e12623          	sw	a4,12(sp)
80001848:	0007a783          	lw	a5,0(a5)
8000184c:	00f12823          	sw	a5,16(sp)
80001850:	00012a23          	sw	zero,20(sp)
				break;
80001854:	fc9ff06f          	j	8000181c <z_cbvprintf_impl+0x370>
					(uint_value_type)va_arg(ap,
80001858:	00c12783          	lw	a5,12(sp)
8000185c:	00778793          	addi	a5,a5,7
80001860:	ff87f793          	andi	a5,a5,-8
80001864:	00878713          	addi	a4,a5,8
80001868:	00e12623          	sw	a4,12(sp)
8000186c:	0007a703          	lw	a4,0(a5)
80001870:	0047a783          	lw	a5,4(a5)
				value->uint =
80001874:	00e12823          	sw	a4,16(sp)
80001878:	00f12a23          	sw	a5,20(sp)
				break;
8000187c:	fa1ff06f          	j	8000181c <z_cbvprintf_impl+0x370>
				value->uint = (unsigned char)value->uint;
80001880:	01014783          	lbu	a5,16(sp)
80001884:	00f12823          	sw	a5,16(sp)
80001888:	00012a23          	sw	zero,20(sp)
8000188c:	d3dff06f          	j	800015c8 <z_cbvprintf_impl+0x11c>
			if (length_mod == LENGTH_UPPER_L) {
80001890:	00800793          	li	a5,8
80001894:	02f68663          	beq	a3,a5,800018c0 <z_cbvprintf_impl+0x414>
				value->dbl = va_arg(ap, double);
80001898:	00c12783          	lw	a5,12(sp)
8000189c:	00778793          	addi	a5,a5,7
800018a0:	ff87f793          	andi	a5,a5,-8
800018a4:	00878713          	addi	a4,a5,8
800018a8:	00e12623          	sw	a4,12(sp)
800018ac:	0007a703          	lw	a4,0(a5)
800018b0:	0047a783          	lw	a5,4(a5)
800018b4:	00e12823          	sw	a4,16(sp)
800018b8:	00f12a23          	sw	a5,20(sp)
800018bc:	d0dff06f          	j	800015c8 <z_cbvprintf_impl+0x11c>
				value->ldbl = va_arg(ap, long double);
800018c0:	00c12783          	lw	a5,12(sp)
800018c4:	00478713          	addi	a4,a5,4
800018c8:	00e12623          	sw	a4,12(sp)
800018cc:	0007a783          	lw	a5,0(a5)
800018d0:	0007a603          	lw	a2,0(a5)
800018d4:	0047a683          	lw	a3,4(a5)
800018d8:	0087a703          	lw	a4,8(a5)
800018dc:	00c7a783          	lw	a5,12(a5)
800018e0:	00c12823          	sw	a2,16(sp)
800018e4:	00d12a23          	sw	a3,20(sp)
800018e8:	00e12c23          	sw	a4,24(sp)
800018ec:	00f12e23          	sw	a5,28(sp)
800018f0:	cd9ff06f          	j	800015c8 <z_cbvprintf_impl+0x11c>
			value->ptr = va_arg(ap, void *);
800018f4:	00c12783          	lw	a5,12(sp)
800018f8:	00478713          	addi	a4,a5,4
800018fc:	00e12623          	sw	a4,12(sp)
80001900:	0007a783          	lw	a5,0(a5)
80001904:	00f12823          	sw	a5,16(sp)
80001908:	cc1ff06f          	j	800015c8 <z_cbvprintf_impl+0x11c>
			OUTS(sp, fp);
8000190c:	00098693          	mv	a3,s3
80001910:	000a8613          	mv	a2,s5
80001914:	00048593          	mv	a1,s1
80001918:	00090513          	mv	a0,s2
8000191c:	b0dff0ef          	jal	ra,80001428 <outs>
80001920:	34054c63          	bltz	a0,80001c78 <z_cbvprintf_impl+0x7cc>
80001924:	00a40433          	add	s0,s0,a0
		fp = extract_conversion(conv, sp);
80001928:	00098a93          	mv	s5,s3
			continue;
8000192c:	bc5ff06f          	j	800014f0 <z_cbvprintf_impl+0x44>
			OUTC('%');
80001930:	00048593          	mv	a1,s1
80001934:	02500513          	li	a0,37
80001938:	000900e7          	jalr	s2
8000193c:	32054e63          	bltz	a0,80001c78 <z_cbvprintf_impl+0x7cc>
80001940:	00140413          	addi	s0,s0,1
		char sign = 0;
80001944:	00000b93          	li	s7,0
		const char *bpe = buf + sizeof(buf);
80001948:	04e10b13          	addi	s6,sp,78
		const char *bps = NULL;
8000194c:	00000a93          	li	s5,0
			break;
80001950:	1740006f          	j	80001ac4 <z_cbvprintf_impl+0x618>
			bps = (const char *)value->ptr;
80001954:	01012a83          	lw	s5,16(sp)
			if (precision >= 0) {
80001958:	000b4e63          	bltz	s6,80001974 <z_cbvprintf_impl+0x4c8>
				len = strnlen(bps, precision);
8000195c:	000b0593          	mv	a1,s6
80001960:	000a8513          	mv	a0,s5
80001964:	3d0030ef          	jal	ra,80004d34 <strnlen>
			bpe = bps + len;
80001968:	00aa8b33          	add	s6,s5,a0
		char sign = 0;
8000196c:	00000b93          	li	s7,0
			break;
80001970:	1540006f          	j	80001ac4 <z_cbvprintf_impl+0x618>
				len = strlen(bps);
80001974:	000a8513          	mv	a0,s5
80001978:	3a0030ef          	jal	ra,80004d18 <strlen>
8000197c:	fedff06f          	j	80001968 <z_cbvprintf_impl+0x4bc>
			buf[0] = CHAR_IS_SIGNED ? value->sint : value->uint;
80001980:	01012783          	lw	a5,16(sp)
80001984:	02f10c23          	sb	a5,56(sp)
		char sign = 0;
80001988:	00000b93          	li	s7,0
			bpe = buf + 1;
8000198c:	03910b13          	addi	s6,sp,57
			bps = buf;
80001990:	03810a93          	addi	s5,sp,56
			break;
80001994:	1300006f          	j	80001ac4 <z_cbvprintf_impl+0x618>
			if (conv->flag_plus) {
80001998:	02015783          	lhu	a5,32(sp)
8000199c:	0087f713          	andi	a4,a5,8
800019a0:	00071a63          	bnez	a4,800019b4 <z_cbvprintf_impl+0x508>
			} else if (conv->flag_space) {
800019a4:	0107f793          	andi	a5,a5,16
800019a8:	02079463          	bnez	a5,800019d0 <z_cbvprintf_impl+0x524>
		char sign = 0;
800019ac:	00000b93          	li	s7,0
800019b0:	0080006f          	j	800019b8 <z_cbvprintf_impl+0x50c>
				sign = '+';
800019b4:	02b00b93          	li	s7,43
			sint = value->sint;
800019b8:	01012703          	lw	a4,16(sp)
800019bc:	01412783          	lw	a5,20(sp)
			if (sint < 0) {
800019c0:	0007cc63          	bltz	a5,800019d8 <z_cbvprintf_impl+0x52c>
				value->uint = (uint_value_type)sint;
800019c4:	00e12823          	sw	a4,16(sp)
800019c8:	00f12a23          	sw	a5,20(sp)
800019cc:	0300006f          	j	800019fc <z_cbvprintf_impl+0x550>
				sign = ' ';
800019d0:	02000b93          	li	s7,32
800019d4:	fe5ff06f          	j	800019b8 <z_cbvprintf_impl+0x50c>
				value->uint = (uint_value_type)-sint;
800019d8:	40e006b3          	neg	a3,a4
800019dc:	00e03733          	snez	a4,a4
800019e0:	40f007b3          	neg	a5,a5
800019e4:	40e787b3          	sub	a5,a5,a4
800019e8:	00d12823          	sw	a3,16(sp)
800019ec:	00f12a23          	sw	a5,20(sp)
				sign = '-';
800019f0:	02d00b93          	li	s7,45
800019f4:	0080006f          	j	800019fc <z_cbvprintf_impl+0x550>
		switch (conv->specifier) {
800019f8:	00000b93          	li	s7,0
			bps = encode_uint(value->uint, conv, buf, bpe);
800019fc:	04e10713          	addi	a4,sp,78
80001a00:	03810693          	addi	a3,sp,56
80001a04:	02010613          	addi	a2,sp,32
80001a08:	01012503          	lw	a0,16(sp)
80001a0c:	01412583          	lw	a1,20(sp)
80001a10:	835ff0ef          	jal	ra,80001244 <encode_uint>
80001a14:	00050a93          	mv	s5,a0
			if (precision >= 0) {
80001a18:	120b4663          	bltz	s6,80001b44 <z_cbvprintf_impl+0x698>
				size_t len = bpe - bps;
80001a1c:	04e10793          	addi	a5,sp,78
80001a20:	415787b3          	sub	a5,a5,s5
				conv->flag_zero = false;
80001a24:	02015703          	lhu	a4,32(sp)
80001a28:	fbf77713          	andi	a4,a4,-65
80001a2c:	02e11023          	sh	a4,32(sp)
				if (len < (size_t)precision) {
80001a30:	1167fe63          	bgeu	a5,s6,80001b4c <z_cbvprintf_impl+0x6a0>
					conv->pad0_value = precision - (int)len;
80001a34:	40fb07b3          	sub	a5,s6,a5
80001a38:	02f12223          	sw	a5,36(sp)
		const char *bpe = buf + sizeof(buf);
80001a3c:	04e10b13          	addi	s6,sp,78
80001a40:	0840006f          	j	80001ac4 <z_cbvprintf_impl+0x618>
			if (value->ptr != NULL) {
80001a44:	01012503          	lw	a0,16(sp)
80001a48:	00051e63          	bnez	a0,80001a64 <z_cbvprintf_impl+0x5b8>
		char sign = 0;
80001a4c:	00000b93          	li	s7,0
			bpe = bps + 5;
80001a50:	80007b37          	lui	s6,0x80007
80001a54:	a0db0b13          	addi	s6,s6,-1523 # 80006a0d <CONFIG_SYSTEM_WORKQUEUE_PRIORITY+0x80006a0e>
			bps = "(nil)";
80001a58:	80007ab7          	lui	s5,0x80007
80001a5c:	a08a8a93          	addi	s5,s5,-1528 # 80006a08 <CONFIG_SYSTEM_WORKQUEUE_PRIORITY+0x80006a09>
80001a60:	0640006f          	j	80001ac4 <z_cbvprintf_impl+0x618>
				bps = encode_uint((uintptr_t)value->ptr, conv,
80001a64:	04e10713          	addi	a4,sp,78
80001a68:	03810693          	addi	a3,sp,56
80001a6c:	02010613          	addi	a2,sp,32
80001a70:	00000593          	li	a1,0
80001a74:	fd0ff0ef          	jal	ra,80001244 <encode_uint>
80001a78:	00050a93          	mv	s5,a0
				conv->altform_0c = true;
80001a7c:	02214783          	lbu	a5,34(sp)
80001a80:	0107e793          	ori	a5,a5,16
80001a84:	02f10123          	sb	a5,34(sp)
				conv->specifier = 'x';
80001a88:	07800793          	li	a5,120
80001a8c:	02f101a3          	sb	a5,35(sp)
		char sign = 0;
80001a90:	00000b93          	li	s7,0
				goto prec_int_pad0;
80001a94:	f85ff06f          	j	80001a18 <z_cbvprintf_impl+0x56c>
				store_count(conv, value->ptr, count);
80001a98:	00040613          	mv	a2,s0
80001a9c:	01012583          	lw	a1,16(sp)
80001aa0:	02010513          	addi	a0,sp,32
80001aa4:	905ff0ef          	jal	ra,800013a8 <store_count>
		char sign = 0;
80001aa8:	00000b93          	li	s7,0
		const char *bpe = buf + sizeof(buf);
80001aac:	04e10b13          	addi	s6,sp,78
		const char *bps = NULL;
80001ab0:	00000a93          	li	s5,0
			break;
80001ab4:	0100006f          	j	80001ac4 <z_cbvprintf_impl+0x618>
		switch (conv->specifier) {
80001ab8:	00000b93          	li	s7,0
80001abc:	04e10b13          	addi	s6,sp,78
80001ac0:	00000a93          	li	s5,0
		if (bps == NULL) {
80001ac4:	1a0a8463          	beqz	s5,80001c6c <z_cbvprintf_impl+0x7c0>
		size_t nj_len = (bpe - bps);
80001ac8:	415b06b3          	sub	a3,s6,s5
		if (sign != 0) {
80001acc:	000b8463          	beqz	s7,80001ad4 <z_cbvprintf_impl+0x628>
			nj_len += 1U;
80001ad0:	00168693          	addi	a3,a3,1
		if (conv->altform_0c) {
80001ad4:	02214783          	lbu	a5,34(sp)
80001ad8:	0107f713          	andi	a4,a5,16
80001adc:	06070c63          	beqz	a4,80001b54 <z_cbvprintf_impl+0x6a8>
			nj_len += 2U;
80001ae0:	00268693          	addi	a3,a3,2
		nj_len += conv->pad0_value;
80001ae4:	02412703          	lw	a4,36(sp)
80001ae8:	00d70733          	add	a4,a4,a3
		if (conv->pad_fp) {
80001aec:	0407f793          	andi	a5,a5,64
80001af0:	00078663          	beqz	a5,80001afc <z_cbvprintf_impl+0x650>
			nj_len += conv->pad0_pre_exp;
80001af4:	02812783          	lw	a5,40(sp)
80001af8:	00f70733          	add	a4,a4,a5
		if (width > 0) {
80001afc:	09405e63          	blez	s4,80001b98 <z_cbvprintf_impl+0x6ec>
			width -= (int)nj_len;
80001b00:	40ea0a33          	sub	s4,s4,a4
			if (!conv->flag_dash) {
80001b04:	02012783          	lw	a5,32(sp)
80001b08:	0027d793          	srli	a5,a5,0x2
80001b0c:	0017f793          	andi	a5,a5,1
80001b10:	08079463          	bnez	a5,80001b98 <z_cbvprintf_impl+0x6ec>
				if (conv->flag_zero) {
80001b14:	02015783          	lhu	a5,32(sp)
80001b18:	0407f793          	andi	a5,a5,64
80001b1c:	04078463          	beqz	a5,80001b64 <z_cbvprintf_impl+0x6b8>
					if (sign != 0) {
80001b20:	040b8663          	beqz	s7,80001b6c <z_cbvprintf_impl+0x6c0>
						OUTC(sign);
80001b24:	00048593          	mv	a1,s1
80001b28:	000b8513          	mv	a0,s7
80001b2c:	000900e7          	jalr	s2
80001b30:	14054463          	bltz	a0,80001c78 <z_cbvprintf_impl+0x7cc>
80001b34:	00140413          	addi	s0,s0,1
					pad = '0';
80001b38:	03000c13          	li	s8,48
						sign = 0;
80001b3c:	00000b93          	li	s7,0
80001b40:	0300006f          	j	80001b70 <z_cbvprintf_impl+0x6c4>
		const char *bpe = buf + sizeof(buf);
80001b44:	04e10b13          	addi	s6,sp,78
80001b48:	f7dff06f          	j	80001ac4 <z_cbvprintf_impl+0x618>
80001b4c:	04e10b13          	addi	s6,sp,78
80001b50:	f75ff06f          	j	80001ac4 <z_cbvprintf_impl+0x618>
		} else if (conv->altform_0) {
80001b54:	0087f713          	andi	a4,a5,8
80001b58:	f80706e3          	beqz	a4,80001ae4 <z_cbvprintf_impl+0x638>
			nj_len += 1U;
80001b5c:	00168693          	addi	a3,a3,1
80001b60:	f85ff06f          	j	80001ae4 <z_cbvprintf_impl+0x638>
				char pad = ' ';
80001b64:	02000c13          	li	s8,32
80001b68:	0080006f          	j	80001b70 <z_cbvprintf_impl+0x6c4>
					pad = '0';
80001b6c:	03000c13          	li	s8,48
80001b70:	000a0793          	mv	a5,s4
				while (width-- > 0) {
80001b74:	fff78a13          	addi	s4,a5,-1
80001b78:	02f05063          	blez	a5,80001b98 <z_cbvprintf_impl+0x6ec>
					OUTC(pad);
80001b7c:	00048593          	mv	a1,s1
80001b80:	000c0513          	mv	a0,s8
80001b84:	000900e7          	jalr	s2
80001b88:	0e054863          	bltz	a0,80001c78 <z_cbvprintf_impl+0x7cc>
80001b8c:	00140413          	addi	s0,s0,1
				while (width-- > 0) {
80001b90:	000a0793          	mv	a5,s4
80001b94:	fe1ff06f          	j	80001b74 <z_cbvprintf_impl+0x6c8>
		if (sign != 0) {
80001b98:	000b8c63          	beqz	s7,80001bb0 <z_cbvprintf_impl+0x704>
			OUTC(sign);
80001b9c:	00048593          	mv	a1,s1
80001ba0:	000b8513          	mv	a0,s7
80001ba4:	000900e7          	jalr	s2
80001ba8:	0c054863          	bltz	a0,80001c78 <z_cbvprintf_impl+0x7cc>
80001bac:	00140413          	addi	s0,s0,1
			if (conv->altform_0c | conv->altform_0) {
80001bb0:	02012783          	lw	a5,32(sp)
80001bb4:	0147d713          	srli	a4,a5,0x14
80001bb8:	00177713          	andi	a4,a4,1
80001bbc:	0137d793          	srli	a5,a5,0x13
80001bc0:	0017f793          	andi	a5,a5,1
80001bc4:	00f767b3          	or	a5,a4,a5
80001bc8:	00078c63          	beqz	a5,80001be0 <z_cbvprintf_impl+0x734>
				OUTC('0');
80001bcc:	00048593          	mv	a1,s1
80001bd0:	03000513          	li	a0,48
80001bd4:	000900e7          	jalr	s2
80001bd8:	0a054063          	bltz	a0,80001c78 <z_cbvprintf_impl+0x7cc>
80001bdc:	00140413          	addi	s0,s0,1
			if (conv->altform_0c) {
80001be0:	02214783          	lbu	a5,34(sp)
80001be4:	0107f793          	andi	a5,a5,16
80001be8:	00078c63          	beqz	a5,80001c00 <z_cbvprintf_impl+0x754>
				OUTC(conv->specifier);
80001bec:	00048593          	mv	a1,s1
80001bf0:	02314503          	lbu	a0,35(sp)
80001bf4:	000900e7          	jalr	s2
80001bf8:	08054063          	bltz	a0,80001c78 <z_cbvprintf_impl+0x7cc>
80001bfc:	00140413          	addi	s0,s0,1
			pad_len = conv->pad0_value;
80001c00:	02412783          	lw	a5,36(sp)
			while (pad_len-- > 0) {
80001c04:	fff78b93          	addi	s7,a5,-1
80001c08:	02f05063          	blez	a5,80001c28 <z_cbvprintf_impl+0x77c>
				OUTC('0');
80001c0c:	00048593          	mv	a1,s1
80001c10:	03000513          	li	a0,48
80001c14:	000900e7          	jalr	s2
80001c18:	06054063          	bltz	a0,80001c78 <z_cbvprintf_impl+0x7cc>
80001c1c:	00140413          	addi	s0,s0,1
			while (pad_len-- > 0) {
80001c20:	000b8793          	mv	a5,s7
80001c24:	fe1ff06f          	j	80001c04 <z_cbvprintf_impl+0x758>
			OUTS(bps, bpe);
80001c28:	000b0693          	mv	a3,s6
80001c2c:	000a8613          	mv	a2,s5
80001c30:	00048593          	mv	a1,s1
80001c34:	00090513          	mv	a0,s2
80001c38:	ff0ff0ef          	jal	ra,80001428 <outs>
80001c3c:	02054e63          	bltz	a0,80001c78 <z_cbvprintf_impl+0x7cc>
80001c40:	00a40433          	add	s0,s0,a0
		while (width > 0) {
80001c44:	03405063          	blez	s4,80001c64 <z_cbvprintf_impl+0x7b8>
			OUTC(' ');
80001c48:	00048593          	mv	a1,s1
80001c4c:	02000513          	li	a0,32
80001c50:	000900e7          	jalr	s2
80001c54:	02054263          	bltz	a0,80001c78 <z_cbvprintf_impl+0x7cc>
80001c58:	00140413          	addi	s0,s0,1
			--width;
80001c5c:	fffa0a13          	addi	s4,s4,-1
80001c60:	fe5ff06f          	j	80001c44 <z_cbvprintf_impl+0x798>
		fp = extract_conversion(conv, sp);
80001c64:	00098a93          	mv	s5,s3
80001c68:	889ff06f          	j	800014f0 <z_cbvprintf_impl+0x44>
80001c6c:	00098a93          	mv	s5,s3
80001c70:	881ff06f          	j	800014f0 <z_cbvprintf_impl+0x44>
	return count;
80001c74:	00040513          	mv	a0,s0
}
80001c78:	07c12083          	lw	ra,124(sp)
80001c7c:	07812403          	lw	s0,120(sp)
80001c80:	07412483          	lw	s1,116(sp)
80001c84:	07012903          	lw	s2,112(sp)
80001c88:	06c12983          	lw	s3,108(sp)
80001c8c:	06812a03          	lw	s4,104(sp)
80001c90:	06412a83          	lw	s5,100(sp)
80001c94:	06012b03          	lw	s6,96(sp)
80001c98:	05c12b83          	lw	s7,92(sp)
80001c9c:	05812c03          	lw	s8,88(sp)
80001ca0:	08010113          	addi	sp,sp,128
80001ca4:	00008067          	ret

80001ca8 <_ConfigAbsSyms>:
80001ca8:	00308013          	addi	zero,ra,3
GEN_ABS_SYM_END
80001cac:	00008067          	ret

80001cb0 <arch_cpu_idle>:
80001cb0:	00308013          	addi	zero,ra,3
{
80001cb4:	ff010113          	addi	sp,sp,-16
80001cb8:	00112623          	sw	ra,12(sp)
	sys_trace_idle();
80001cbc:	09c000ef          	jal	ra,80001d58 <sys_trace_idle>
 * use atomic instruction csrs to unlock global irq
 * csrs: atomic set bits in CSR register
 */
static ALWAYS_INLINE void arch_irq_unlock(unsigned int key)
{
	__asm__ volatile ("csrs mstatus, %0"
80001cc0:	00800793          	li	a5,8
80001cc4:	3007a073          	csrs	mstatus,a5
	__asm__ volatile("wfi");
80001cc8:	10500073          	wfi
}
80001ccc:	00c12083          	lw	ra,12(sp)
80001cd0:	01010113          	addi	sp,sp,16
80001cd4:	00008067          	ret

80001cd8 <arch_irq_enable>:
80001cd8:	00308013          	addi	zero,ra,3
{
#if defined(CONFIG_3RD_LEVEL_INTERRUPTS)
	return ((irq >> 16) & 0xFF) != 0 ? 3 :
		(((irq >> 8) & 0xFF) == 0 ? 1 : 2);
#elif defined(CONFIG_2ND_LEVEL_INTERRUPTS)
	return ((irq >> 8) & 0xFF) == 0 ? 1 : 2;
80001cdc:	00855793          	srli	a5,a0,0x8
80001ce0:	0ff7f713          	zext.b	a4,a5
80001ce4:	00071a63          	bnez	a4,80001cf8 <arch_irq_enable+0x20>
			  : "r" (1 << irq));
80001ce8:	00100793          	li	a5,1
80001cec:	00a797b3          	sll	a5,a5,a0
	__asm__ volatile ("csrrs %0, mie, %1\n"
80001cf0:	3047a7f3          	csrrs	a5,mie,a5
80001cf4:	00008067          	ret
{
80001cf8:	ff010113          	addi	sp,sp,-16
80001cfc:	00112623          	sw	ra,12(sp)
		riscv_plic_irq_enable(irq);
80001d00:	fff78513          	addi	a0,a5,-1
80001d04:	5a0000ef          	jal	ra,800022a4 <riscv_plic_irq_enable>
}
80001d08:	00c12083          	lw	ra,12(sp)
80001d0c:	01010113          	addi	sp,sp,16
80001d10:	00008067          	ret

80001d14 <z_riscv_irq_priority_set>:
80001d14:	00308013          	addi	zero,ra,3
80001d18:	00855513          	srli	a0,a0,0x8
80001d1c:	0ff57793          	zext.b	a5,a0
80001d20:	00079463          	bnez	a5,80001d28 <z_riscv_irq_priority_set+0x14>
80001d24:	00008067          	ret
{
80001d28:	ff010113          	addi	sp,sp,-16
80001d2c:	00112623          	sw	ra,12(sp)
		riscv_plic_set_priority(irq, prio);
80001d30:	fff50513          	addi	a0,a0,-1
80001d34:	5a8000ef          	jal	ra,800022dc <riscv_plic_set_priority>
}
80001d38:	00c12083          	lw	ra,12(sp)
80001d3c:	01010113          	addi	sp,sp,16
80001d40:	00008067          	ret

80001d44 <soc_interrupt_init>:
80001d44:	00308013          	addi	zero,ra,3
	__asm__ volatile ("csrrc %0, mstatus, %1"
80001d48:	300477f3          	csrrci	a5,mstatus,8
	__asm__ volatile ("csrwi mie, 0\n"
80001d4c:	30405073          	csrwi	mie,0
80001d50:	34405073          	csrwi	mip,0
}
80001d54:	00008067          	ret

80001d58 <sys_trace_idle>:
80001d58:	00308013          	addi	zero,ra,3
void sys_trace_idle(void) {}
80001d5c:	00008067          	ret

80001d60 <bad_stack_pointer>:
80001d60:	00308013          	addi	zero,ra,3
}
80001d64:	00000513          	li	a0,0
80001d68:	00008067          	ret

80001d6c <z_riscv_fatal_error>:
80001d6c:	00308013          	addi	zero,ra,3
{
80001d70:	ff010113          	addi	sp,sp,-16
80001d74:	00112623          	sw	ra,12(sp)
	z_fatal_error(reason, esf);
80001d78:	5dd000ef          	jal	ra,80002b54 <z_fatal_error>

80001d7c <_Fault>:
80001d7c:	00308013          	addi	zero,ra,3
{
80001d80:	ff010113          	addi	sp,sp,-16
80001d84:	00112623          	sw	ra,12(sp)
80001d88:	00812423          	sw	s0,8(sp)
80001d8c:	00050413          	mv	s0,a0
	__asm__ volatile("csrr %0, mcause" : "=r" (mcause));
80001d90:	342027f3          	csrr	a5,mcause
	__asm__ volatile("csrr %0, mtval" : "=r" (mtval));
80001d94:	343027f3          	csrr	a5,mtval
	if (bad_stack_pointer(esf)) {
80001d98:	fc9ff0ef          	jal	ra,80001d60 <bad_stack_pointer>
80001d9c:	00050463          	beqz	a0,80001da4 <_Fault+0x28>
		reason = K_ERR_STACK_CHK_FAIL;
80001da0:	00200513          	li	a0,2
	z_riscv_fatal_error(reason, esf);
80001da4:	00040593          	mv	a1,s0
80001da8:	fc5ff0ef          	jal	ra,80001d6c <z_riscv_fatal_error>

80001dac <z_irq_spurious>:
80001dac:	00308013          	addi	zero,ra,3
{
80001db0:	ff010113          	addi	sp,sp,-16
80001db4:	00112623          	sw	ra,12(sp)
	__asm__ volatile("csrr %0, mcause" : "=r" (mcause));
80001db8:	342027f3          	csrr	a5,mcause
	z_riscv_fatal_error(K_ERR_SPURIOUS_IRQ, NULL);
80001dbc:	00000593          	li	a1,0
80001dc0:	00100513          	li	a0,1
80001dc4:	fa9ff0ef          	jal	ra,80001d6c <z_riscv_fatal_error>

80001dc8 <_PrepC>:
80001dc8:	00308013          	addi	zero,ra,3
{
80001dcc:	ff010113          	addi	sp,sp,-16
80001dd0:	00112623          	sw	ra,12(sp)
	z_bss_zero();
80001dd4:	799000ef          	jal	ra,80002d6c <z_bss_zero>
	soc_interrupt_init();
80001dd8:	f6dff0ef          	jal	ra,80001d44 <soc_interrupt_init>
	z_cstart();
80001ddc:	0fc010ef          	jal	ra,80002ed8 <z_cstart>

80001de0 <__initialize>:
/*
 * Remainder of asm-land initialization code before we can jump into
 * the C domain
 */
SECTION_FUNC(TEXT, __initialize)
	csrr a0, mhartid
80001de0:	f1402573          	csrr	a0,mhartid
	beqz a0, boot_first_core
80001de4:	00050a63          	beqz	a0,80001df8 <boot_first_core>

	li t0, CONFIG_MP_NUM_CPUS
80001de8:	00100293          	li	t0,1
	blt a0, t0, boot_secondary_core
80001dec:	04554263          	blt	a0,t0,80001e30 <boot_secondary_core>

80001df0 <loop_unconfigured_cores>:

loop_unconfigured_cores:
	wfi
80001df0:	10500073          	wfi
	j loop_unconfigured_cores
80001df4:	ffdff06f          	j	80001df0 <loop_unconfigured_cores>

80001df8 <boot_first_core>:
	fscsr zero
#endif

#ifdef CONFIG_INIT_STACKS
	/* Pre-populate all bytes in z_interrupt_stacks with 0xAA */
	la t0, z_interrupt_stacks
80001df8:	00005297          	auipc	t0,0x5
80001dfc:	18828293          	addi	t0,t0,392 # 80006f80 <z_interrupt_stacks>
	li t1, __z_interrupt_stack_SIZEOF
80001e00:	00001337          	lui	t1,0x1
	add t1, t1, t0
80001e04:	00530333          	add	t1,t1,t0

	/* Populate z_interrupt_stacks with 0xaaaaaaaa */
	li t2, 0xaaaaaaaa
80001e08:	aaaab3b7          	lui	t2,0xaaaab
80001e0c:	aaa38393          	addi	t2,t2,-1366 # aaaaaaaa <CONFIG_SYSTEM_WORKQUEUE_PRIORITY+0xaaaaaaab>

80001e10 <aa_loop>:
aa_loop:
	sw t2, 0x00(t0)
80001e10:	0072a023          	sw	t2,0(t0)
	addi t0, t0, 4
80001e14:	00428293          	addi	t0,t0,4
	blt t0, t1, aa_loop
80001e18:	fe62cce3          	blt	t0,t1,80001e10 <aa_loop>

	/*
	 * Initially, setup stack pointer to
	 * z_interrupt_stacks + __z_interrupt_stack_SIZEOF
	 */
	la sp, z_interrupt_stacks
80001e1c:	00005117          	auipc	sp,0x5
80001e20:	16410113          	addi	sp,sp,356 # 80006f80 <z_interrupt_stacks>
	li t0, __z_interrupt_stack_SIZEOF
80001e24:	000012b7          	lui	t0,0x1
	add sp, sp, t0
80001e28:	00510133          	add	sp,sp,t0

	/*
	 * Jump into C domain. _PrepC zeroes BSS, copies rw data into RAM,
	 * and then enters kernel z_cstart
	 */
	call _PrepC
80001e2c:	f9dff0ef          	jal	ra,80001dc8 <_PrepC>

80001e30 <boot_secondary_core>:

boot_secondary_core:
	la t0, riscv_cpu_wake_flag
80001e30:	00005297          	auipc	t0,0x5
80001e34:	fdc28293          	addi	t0,t0,-36 # 80006e0c <riscv_cpu_wake_flag>
	lr t0, 0(t0)
80001e38:	0002a283          	lw	t0,0(t0)
	bne a0, t0, boot_secondary_core
80001e3c:	fe551ae3          	bne	a0,t0,80001e30 <boot_secondary_core>

	/* Set up stack */
	la t0, riscv_cpu_sp
80001e40:	00005297          	auipc	t0,0x5
80001e44:	fc828293          	addi	t0,t0,-56 # 80006e08 <riscv_cpu_sp>
	lr sp, 0(t0)
80001e48:	0002a103          	lw	sp,0(t0)

	la t0, riscv_cpu_wake_flag
80001e4c:	00005297          	auipc	t0,0x5
80001e50:	fc028293          	addi	t0,t0,-64 # 80006e0c <riscv_cpu_wake_flag>
	sr zero, 0(t0)
80001e54:	0002a023          	sw	zero,0(t0)
	j z_riscv_secondary_cpu_init
80001e58:	07c0006f          	j	80001ed4 <z_riscv_secondary_cpu_init>

80001e5c <z_riscv_switch>:

/* void z_riscv_switch(k_thread_t *switch_to, k_thread_t *switch_from) */
SECTION_FUNC(TEXT, z_riscv_switch)

	/* Save the old thread's callee-saved registers */
	DO_CALLEE_SAVED(sr, a1)
80001e5c:	0215aa23          	sw	ra,52(a1)
80001e60:	0285ac23          	sw	s0,56(a1)
80001e64:	0295ae23          	sw	s1,60(a1)
80001e68:	0525a023          	sw	s2,64(a1)
80001e6c:	0535a223          	sw	s3,68(a1)
80001e70:	0545a423          	sw	s4,72(a1)
80001e74:	0555a623          	sw	s5,76(a1)
80001e78:	0565a823          	sw	s6,80(a1)
80001e7c:	0575aa23          	sw	s7,84(a1)
80001e80:	0585ac23          	sw	s8,88(a1)
80001e84:	0595ae23          	sw	s9,92(a1)
80001e88:	07a5a023          	sw	s10,96(a1)
80001e8c:	07b5a223          	sw	s11,100(a1)
	DO_FP_CALLEE_SAVED(fsr, a1)
skip_store_fp_callee_saved:
#endif /* CONFIG_FPU && CONFIG_FPU_SHARING */

	/* Save the old thread's stack pointer */
	sr sp, _thread_offset_to_sp(a1)
80001e90:	0225a823          	sw	sp,48(a1)

	/* Set thread->switch_handle = thread to mark completion */
	sr a1, ___thread_t_switch_handle_OFFSET(a1)
80001e94:	06b5ae23          	sw	a1,124(a1)

	/* Get the new thread's stack pointer */
	lr sp, _thread_offset_to_sp(a0)
80001e98:	03052103          	lw	sp,48(a0)
	call z_thread_mark_switched_in
	mv a0, s0
#endif

	/* Restore the new thread's callee-saved registers */
	DO_CALLEE_SAVED(lr, a0)
80001e9c:	03452083          	lw	ra,52(a0)
80001ea0:	03852403          	lw	s0,56(a0)
80001ea4:	03c52483          	lw	s1,60(a0)
80001ea8:	04052903          	lw	s2,64(a0)
80001eac:	04452983          	lw	s3,68(a0)
80001eb0:	04852a03          	lw	s4,72(a0)
80001eb4:	04c52a83          	lw	s5,76(a0)
80001eb8:	05052b03          	lw	s6,80(a0)
80001ebc:	05452b83          	lw	s7,84(a0)
80001ec0:	05852c03          	lw	s8,88(a0)
80001ec4:	05c52c83          	lw	s9,92(a0)
80001ec8:	06052d03          	lw	s10,96(a0)
80001ecc:	06452d83          	lw	s11,100(a0)
	csrc mstatus, t1
1:
#endif /* CONFIG_FPU && CONFIG_FPU_SHARING */

	/* Return to arch_switch() or _irq_wrapper() */
	ret
80001ed0:	00008067          	ret

80001ed4 <z_riscv_secondary_cpu_init>:
80001ed4:	00308013          	addi	zero,ra,3
{
80001ed8:	ff010113          	addi	sp,sp,-16
80001edc:	00112623          	sw	ra,12(sp)
80001ee0:	00812423          	sw	s0,8(sp)
80001ee4:	00050413          	mv	s0,a0
	soc_interrupt_init();
80001ee8:	e5dff0ef          	jal	ra,80001d44 <soc_interrupt_init>
	riscv_cpu_init[cpu_num].fn(riscv_cpu_init[cpu_num].arg);
80001eec:	800077b7          	lui	a5,0x80007
80001ef0:	00341413          	slli	s0,s0,0x3
80001ef4:	e1078793          	addi	a5,a5,-496 # 80006e10 <CONFIG_SYSTEM_WORKQUEUE_PRIORITY+0x80006e11>
80001ef8:	008787b3          	add	a5,a5,s0
80001efc:	0007a703          	lw	a4,0(a5)
80001f00:	0047a503          	lw	a0,4(a5)
80001f04:	000700e7          	jalr	a4

80001f08 <arch_new_thread>:
80001f08:	00308013          	addi	zero,ra,3
	stack_init = (struct __esf *)Z_STACK_PTR_ALIGN(
80001f0c:	fb060613          	addi	a2,a2,-80
 * @param ptr Proposed stack pointer address
 * @return Properly aligned stack pointer address
 */
static inline char *z_stack_ptr_align(char *ptr)
{
	return (char *)ROUND_DOWN(ptr, ARCH_STACK_PTR_ALIGN);
80001f10:	ff067613          	andi	a2,a2,-16
	stack_init->a0 = (unsigned long)entry;
80001f14:	02d62023          	sw	a3,32(a2)
	stack_init->a1 = (unsigned long)p1;
80001f18:	02e62223          	sw	a4,36(a2)
	stack_init->a2 = (unsigned long)p2;
80001f1c:	02f62423          	sw	a5,40(a2)
	stack_init->a3 = (unsigned long)p3;
80001f20:	03062623          	sw	a6,44(a2)
	stack_init->mstatus = MSTATUS_DEF_RESTORE;
80001f24:	000027b7          	lui	a5,0x2
80001f28:	88078793          	addi	a5,a5,-1920 # 1880 <CONFIG_ISR_STACK_SIZE+0x880>
80001f2c:	04f62223          	sw	a5,68(a2)
		stack_init->mepc = (unsigned long)z_thread_entry;
80001f30:	800017b7          	lui	a5,0x80001
80001f34:	b2878793          	addi	a5,a5,-1240 # 80000b28 <CONFIG_SYSTEM_WORKQUEUE_PRIORITY+0x80000b29>
80001f38:	04f62023          	sw	a5,64(a2)
	thread->callee_saved.sp = (unsigned long)stack_init;
80001f3c:	02c52823          	sw	a2,48(a0)
	thread->callee_saved.ra = (unsigned long)z_riscv_thread_start;
80001f40:	800007b7          	lui	a5,0x80000
80001f44:	15c78793          	addi	a5,a5,348 # 8000015c <CONFIG_SYSTEM_WORKQUEUE_PRIORITY+0x8000015d>
80001f48:	02f52a23          	sw	a5,52(a0)
	thread->switch_handle = thread;
80001f4c:	06a52e23          	sw	a0,124(a0)
}
80001f50:	00008067          	ret

80001f54 <malloc_prepare>:
80001f54:	00308013          	addi	zero,ra,3
}
80001f58:	00000513          	li	a0,0
80001f5c:	00008067          	ret

80001f60 <_stdout_hook_default>:
80001f60:	00308013          	addi	zero,ra,3
}
80001f64:	fff00513          	li	a0,-1
80001f68:	00008067          	ret

80001f6c <_stdin_hook_default>:
80001f6c:	00308013          	addi	zero,ra,3
}
80001f70:	00000513          	li	a0,0
80001f74:	00008067          	ret

80001f78 <__stdout_hook_install>:
80001f78:	00308013          	addi	zero,ra,3
	_stdout_hook = hook;
80001f7c:	80a1a423          	sw	a0,-2040(gp) # 800093f8 <_stdout_hook>
}
80001f80:	00008067          	ret

80001f84 <z_impl_zephyr_read_stdin>:
80001f84:	00308013          	addi	zero,ra,3
{
80001f88:	fe010113          	addi	sp,sp,-32
80001f8c:	00112e23          	sw	ra,28(sp)
80001f90:	00812c23          	sw	s0,24(sp)
80001f94:	00912a23          	sw	s1,20(sp)
80001f98:	01212823          	sw	s2,16(sp)
80001f9c:	01312623          	sw	s3,12(sp)
80001fa0:	00050993          	mv	s3,a0
80001fa4:	00058913          	mv	s2,a1
	for (i = 0; i < nbytes; i++) {
80001fa8:	00000413          	li	s0,0
80001fac:	0080006f          	j	80001fb4 <z_impl_zephyr_read_stdin+0x30>
80001fb0:	00140413          	addi	s0,s0,1
80001fb4:	03245663          	bge	s0,s2,80001fe0 <z_impl_zephyr_read_stdin+0x5c>
		*(buf + i) = _stdin_hook();
80001fb8:	008984b3          	add	s1,s3,s0
80001fbc:	800097b7          	lui	a5,0x80009
80001fc0:	3f47a783          	lw	a5,1012(a5) # 800093f4 <CONFIG_SYSTEM_WORKQUEUE_PRIORITY+0x800093f5>
80001fc4:	000780e7          	jalr	a5
80001fc8:	00a48023          	sb	a0,0(s1)
		if ((*(buf + i) == '\n') || (*(buf + i) == '\r')) {
80001fcc:	00a00793          	li	a5,10
80001fd0:	00f50663          	beq	a0,a5,80001fdc <z_impl_zephyr_read_stdin+0x58>
80001fd4:	00d00793          	li	a5,13
80001fd8:	fcf51ce3          	bne	a0,a5,80001fb0 <z_impl_zephyr_read_stdin+0x2c>
			i++;
80001fdc:	00140413          	addi	s0,s0,1
}
80001fe0:	00040513          	mv	a0,s0
80001fe4:	01c12083          	lw	ra,28(sp)
80001fe8:	01812403          	lw	s0,24(sp)
80001fec:	01412483          	lw	s1,20(sp)
80001ff0:	01012903          	lw	s2,16(sp)
80001ff4:	00c12983          	lw	s3,12(sp)
80001ff8:	02010113          	addi	sp,sp,32
80001ffc:	00008067          	ret

80002000 <z_impl_zephyr_write_stdout>:
80002000:	00308013          	addi	zero,ra,3
{
80002004:	fe010113          	addi	sp,sp,-32
80002008:	00112e23          	sw	ra,28(sp)
8000200c:	00812c23          	sw	s0,24(sp)
80002010:	00912a23          	sw	s1,20(sp)
80002014:	01212823          	sw	s2,16(sp)
80002018:	01312623          	sw	s3,12(sp)
8000201c:	00050993          	mv	s3,a0
80002020:	00058913          	mv	s2,a1
	for (i = 0; i < nbytes; i++) {
80002024:	00000413          	li	s0,0
80002028:	0140006f          	j	8000203c <z_impl_zephyr_write_stdout+0x3c>
		_stdout_hook(*(buf + i));
8000202c:	8081a783          	lw	a5,-2040(gp) # 800093f8 <_stdout_hook>
80002030:	0004c503          	lbu	a0,0(s1)
80002034:	000780e7          	jalr	a5
	for (i = 0; i < nbytes; i++) {
80002038:	00140413          	addi	s0,s0,1
8000203c:	03245263          	bge	s0,s2,80002060 <z_impl_zephyr_write_stdout+0x60>
		if (*(buf + i) == '\n') {
80002040:	008984b3          	add	s1,s3,s0
80002044:	0004c703          	lbu	a4,0(s1)
80002048:	00a00793          	li	a5,10
8000204c:	fef710e3          	bne	a4,a5,8000202c <z_impl_zephyr_write_stdout+0x2c>
			_stdout_hook('\r');
80002050:	8081a783          	lw	a5,-2040(gp) # 800093f8 <_stdout_hook>
80002054:	00d00513          	li	a0,13
80002058:	000780e7          	jalr	a5
8000205c:	fd1ff06f          	j	8000202c <z_impl_zephyr_write_stdout+0x2c>
}
80002060:	00090513          	mv	a0,s2
80002064:	01c12083          	lw	ra,28(sp)
80002068:	01812403          	lw	s0,24(sp)
8000206c:	01412483          	lw	s1,20(sp)
80002070:	01012903          	lw	s2,16(sp)
80002074:	00c12983          	lw	s3,12(sp)
80002078:	02010113          	addi	sp,sp,32
8000207c:	00008067          	ret

80002080 <_read>:
80002080:	00308013          	addi	zero,ra,3
{
80002084:	ff010113          	addi	sp,sp,-16
80002088:	00112623          	sw	ra,12(sp)
8000208c:	00058513          	mv	a0,a1
80002090:	00060593          	mv	a1,a2
		union { uintptr_t x; int val; } parm1 = { .val = nbytes };
		return (int) arch_syscall_invoke2(parm0.x, parm1.x, K_SYSCALL_ZEPHYR_READ_STDIN);
	}
#endif
	compiler_barrier();
	return z_impl_zephyr_read_stdin(buf, nbytes);
80002094:	ef1ff0ef          	jal	ra,80001f84 <z_impl_zephyr_read_stdin>
}
80002098:	00c12083          	lw	ra,12(sp)
8000209c:	01010113          	addi	sp,sp,16
800020a0:	00008067          	ret

800020a4 <_write>:
800020a4:	00308013          	addi	zero,ra,3
{
800020a8:	ff010113          	addi	sp,sp,-16
800020ac:	00112623          	sw	ra,12(sp)
800020b0:	00058513          	mv	a0,a1
800020b4:	00060593          	mv	a1,a2
		union { uintptr_t x; int val; } parm1 = { .val = nbytes };
		return (int) arch_syscall_invoke2(parm0.x, parm1.x, K_SYSCALL_ZEPHYR_WRITE_STDOUT);
	}
#endif
	compiler_barrier();
	return z_impl_zephyr_write_stdout(buf, nbytes);
800020b8:	f49ff0ef          	jal	ra,80002000 <z_impl_zephyr_write_stdout>
}
800020bc:	00c12083          	lw	ra,12(sp)
800020c0:	01010113          	addi	sp,sp,16
800020c4:	00008067          	ret

800020c8 <_close>:
800020c8:	00308013          	addi	zero,ra,3
}
800020cc:	fff00513          	li	a0,-1
800020d0:	00008067          	ret

800020d4 <_lseek>:
800020d4:	00308013          	addi	zero,ra,3
}
800020d8:	00000513          	li	a0,0
800020dc:	00008067          	ret

800020e0 <_isatty>:
800020e0:	00308013          	addi	zero,ra,3
}
800020e4:	00352513          	slti	a0,a0,3
800020e8:	00008067          	ret

800020ec <_fstat>:
800020ec:	00308013          	addi	zero,ra,3
	st->st_mode = S_IFCHR;
800020f0:	000027b7          	lui	a5,0x2
800020f4:	00f5a223          	sw	a5,4(a1)
}
800020f8:	00000513          	li	a0,0
800020fc:	00008067          	ret

80002100 <_sbrk>:
80002100:	00308013          	addi	zero,ra,3
{
80002104:	00050713          	mv	a4,a0
	ptr = ((char *)HEAP_BASE) + heap_sz;
80002108:	800077b7          	lui	a5,0x80007
8000210c:	e187a683          	lw	a3,-488(a5) # 80006e18 <CONFIG_SYSTEM_WORKQUEUE_PRIORITY+0x80006e19>
80002110:	85818793          	addi	a5,gp,-1960 # 80009448 <__data_region_end>
80002114:	00f68533          	add	a0,a3,a5
	if ((heap_sz + count) < MAX_HEAP_SIZE) {
80002118:	00d70733          	add	a4,a4,a3
8000211c:	c00006b7          	lui	a3,0xc0000
80002120:	40f687b3          	sub	a5,a3,a5
80002124:	00f77863          	bgeu	a4,a5,80002134 <_sbrk+0x34>
		heap_sz += count;
80002128:	800077b7          	lui	a5,0x80007
8000212c:	e0e7ac23          	sw	a4,-488(a5) # 80006e18 <CONFIG_SYSTEM_WORKQUEUE_PRIORITY+0x80006e19>
		ret = ptr;
80002130:	00008067          	ret
		ret = (void *)-1;
80002134:	fff00513          	li	a0,-1
}
80002138:	00008067          	ret

8000213c <__retarget_lock_init_recursive>:
8000213c:	00308013          	addi	zero,ra,3
{
80002140:	ff010113          	addi	sp,sp,-16
80002144:	00112623          	sw	ra,12(sp)
80002148:	00812423          	sw	s0,8(sp)
8000214c:	00050413          	mv	s0,a0
	*lock = malloc(sizeof(struct k_mutex));
80002150:	01400513          	li	a0,20
80002154:	0b5020ef          	jal	ra,80004a08 <malloc>
80002158:	00a42023          	sw	a0,0(s0)
		union { uintptr_t x; struct k_mutex * val; } parm0 = { .val = mutex };
		return (int) arch_syscall_invoke1(parm0.x, K_SYSCALL_K_MUTEX_INIT);
	}
#endif
	compiler_barrier();
	return z_impl_k_mutex_init(mutex);
8000215c:	0c0010ef          	jal	ra,8000321c <z_impl_k_mutex_init>
}
80002160:	00c12083          	lw	ra,12(sp)
80002164:	00812403          	lw	s0,8(sp)
80002168:	01010113          	addi	sp,sp,16
8000216c:	00008067          	ret

80002170 <__retarget_lock_acquire_recursive>:
80002170:	00308013          	addi	zero,ra,3
{
80002174:	ff010113          	addi	sp,sp,-16
80002178:	00112623          	sw	ra,12(sp)
		union { struct { uintptr_t lo, hi; } split; k_timeout_t val; } parm1 = { .val = timeout };
		return (int) arch_syscall_invoke3(parm0.x, parm1.split.lo, parm1.split.hi, K_SYSCALL_K_MUTEX_LOCK);
	}
#endif
	compiler_barrier();
	return z_impl_k_mutex_lock(mutex, timeout);
8000217c:	fff00593          	li	a1,-1
80002180:	fff00613          	li	a2,-1
80002184:	0b4010ef          	jal	ra,80003238 <z_impl_k_mutex_lock>
}
80002188:	00c12083          	lw	ra,12(sp)
8000218c:	01010113          	addi	sp,sp,16
80002190:	00008067          	ret

80002194 <__retarget_lock_release_recursive>:
80002194:	00308013          	addi	zero,ra,3
{
80002198:	ff010113          	addi	sp,sp,-16
8000219c:	00112623          	sw	ra,12(sp)
		union { uintptr_t x; struct k_mutex * val; } parm0 = { .val = mutex };
		return (int) arch_syscall_invoke1(parm0.x, K_SYSCALL_K_MUTEX_UNLOCK);
	}
#endif
	compiler_barrier();
	return z_impl_k_mutex_unlock(mutex);
800021a0:	218010ef          	jal	ra,800033b8 <z_impl_k_mutex_unlock>
}
800021a4:	00c12083          	lw	ra,12(sp)
800021a8:	01010113          	addi	sp,sp,16
800021ac:	00008067          	ret

800021b0 <plic_init>:
800021b0:	00308013          	addi	zero,ra,3
{
800021b4:	ff010113          	addi	sp,sp,-16
800021b8:	00112623          	sw	ra,12(sp)
	for (i = 0; i < PLIC_EN_SIZE; i++) {
800021bc:	00000793          	li	a5,0
	volatile uint32_t *en = (volatile uint32_t *)PLIC_IRQ_EN;
800021c0:	0c002737          	lui	a4,0xc002
	for (i = 0; i < PLIC_EN_SIZE; i++) {
800021c4:	0100006f          	j	800021d4 <plic_init+0x24>
		*en = 0U;
800021c8:	00072023          	sw	zero,0(a4) # c002000 <CONFIG_SRAM_SIZE+0xbf02000>
		en++;
800021cc:	00470713          	addi	a4,a4,4
	for (i = 0; i < PLIC_EN_SIZE; i++) {
800021d0:	00178793          	addi	a5,a5,1
800021d4:	00100693          	li	a3,1
800021d8:	fef6d8e3          	bge	a3,a5,800021c8 <plic_init+0x18>
	for (i = 0; i < PLIC_IRQS; i++) {
800021dc:	00000793          	li	a5,0
	volatile uint32_t *prio = (volatile uint32_t *)PLIC_PRIO;
800021e0:	0c000737          	lui	a4,0xc000
800021e4:	0100006f          	j	800021f4 <plic_init+0x44>
		*prio = 0U;
800021e8:	00072023          	sw	zero,0(a4) # c000000 <CONFIG_SRAM_SIZE+0xbf00000>
		prio++;
800021ec:	00470713          	addi	a4,a4,4
	for (i = 0; i < PLIC_IRQS; i++) {
800021f0:	00178793          	addi	a5,a5,1
800021f4:	03300693          	li	a3,51
800021f8:	fef6d8e3          	bge	a3,a5,800021e8 <plic_init+0x38>
	regs->threshold_prio = 0U;
800021fc:	0c2007b7          	lui	a5,0xc200
80002200:	0007a023          	sw	zero,0(a5) # c200000 <CONFIG_SRAM_SIZE+0xc100000>
	IRQ_CONNECT(RISCV_MACHINE_EXT_IRQ,
80002204:	00000613          	li	a2,0
80002208:	00000593          	li	a1,0
8000220c:	00b00513          	li	a0,11
80002210:	b05ff0ef          	jal	ra,80001d14 <z_riscv_irq_priority_set>
	irq_enable(RISCV_MACHINE_EXT_IRQ);
80002214:	00b00513          	li	a0,11
80002218:	ac1ff0ef          	jal	ra,80001cd8 <arch_irq_enable>
}
8000221c:	00000513          	li	a0,0
80002220:	00c12083          	lw	ra,12(sp)
80002224:	01010113          	addi	sp,sp,16
80002228:	00008067          	ret

8000222c <plic_irq_handler>:
8000222c:	00308013          	addi	zero,ra,3
{
80002230:	ff010113          	addi	sp,sp,-16
80002234:	00112623          	sw	ra,12(sp)
80002238:	00812423          	sw	s0,8(sp)
	irq = regs->claim_complete;
8000223c:	0c2007b7          	lui	a5,0xc200
80002240:	0047a403          	lw	s0,4(a5) # c200004 <CONFIG_SRAM_SIZE+0xc100004>
	save_irq = irq;
80002244:	800077b7          	lui	a5,0x80007
80002248:	e087ae23          	sw	s0,-484(a5) # 80006e1c <CONFIG_SYSTEM_WORKQUEUE_PRIORITY+0x80006e1d>
	if (irq == 0U || irq >= PLIC_IRQS)
8000224c:	fff40713          	addi	a4,s0,-1
80002250:	03200793          	li	a5,50
80002254:	04e7e263          	bltu	a5,a4,80002298 <plic_irq_handler+0x6c>
	irq += CONFIG_2ND_LVL_ISR_TBL_OFFSET;
80002258:	00c40413          	addi	s0,s0,12
	ite->isr(ite->arg);
8000225c:	800067b7          	lui	a5,0x80006
80002260:	00341413          	slli	s0,s0,0x3
80002264:	5ac78793          	addi	a5,a5,1452 # 800065ac <CONFIG_SYSTEM_WORKQUEUE_PRIORITY+0x800065ad>
80002268:	008787b3          	add	a5,a5,s0
8000226c:	0047a703          	lw	a4,4(a5)
80002270:	0007a503          	lw	a0,0(a5)
80002274:	000700e7          	jalr	a4
	regs->claim_complete = save_irq;
80002278:	800077b7          	lui	a5,0x80007
8000227c:	e1c7a703          	lw	a4,-484(a5) # 80006e1c <CONFIG_SYSTEM_WORKQUEUE_PRIORITY+0x80006e1d>
80002280:	0c2007b7          	lui	a5,0xc200
80002284:	00e7a223          	sw	a4,4(a5) # c200004 <CONFIG_SRAM_SIZE+0xc100004>
}
80002288:	00c12083          	lw	ra,12(sp)
8000228c:	00812403          	lw	s0,8(sp)
80002290:	01010113          	addi	sp,sp,16
80002294:	00008067          	ret
		z_irq_spurious(NULL);
80002298:	00000513          	li	a0,0
8000229c:	b11ff0ef          	jal	ra,80001dac <z_irq_spurious>
800022a0:	fb9ff06f          	j	80002258 <plic_irq_handler+0x2c>

800022a4 <riscv_plic_irq_enable>:
800022a4:	00308013          	addi	zero,ra,3
800022a8:	30047773          	csrrci	a4,mstatus,8
	en += (irq >> 5);
800022ac:	00555693          	srli	a3,a0,0x5
800022b0:	00269693          	slli	a3,a3,0x2
800022b4:	0c0027b7          	lui	a5,0xc002
800022b8:	00d787b3          	add	a5,a5,a3
	*en |= (1 << (irq & 31));
800022bc:	0007a683          	lw	a3,0(a5) # c002000 <CONFIG_SRAM_SIZE+0xbf02000>
800022c0:	00100613          	li	a2,1
800022c4:	00a61633          	sll	a2,a2,a0
800022c8:	00c6e6b3          	or	a3,a3,a2
800022cc:	00d7a023          	sw	a3,0(a5)
			  :
			  : "r" (key & MSTATUS_IEN)
800022d0:	00877793          	andi	a5,a4,8
	__asm__ volatile ("csrs mstatus, %0"
800022d4:	3007a073          	csrs	mstatus,a5
}
800022d8:	00008067          	ret

800022dc <riscv_plic_set_priority>:
800022dc:	00308013          	addi	zero,ra,3
	if (priority > PLIC_MAX_PRIO)
800022e0:	00700793          	li	a5,7
800022e4:	00b7f463          	bgeu	a5,a1,800022ec <riscv_plic_set_priority+0x10>
		priority = PLIC_MAX_PRIO;
800022e8:	00700593          	li	a1,7
	prio += irq;
800022ec:	00251513          	slli	a0,a0,0x2
800022f0:	0c0007b7          	lui	a5,0xc000
800022f4:	00a787b3          	add	a5,a5,a0
	*prio = priority;
800022f8:	00b7a023          	sw	a1,0(a5) # c000000 <CONFIG_SRAM_SIZE+0xbf00000>
}
800022fc:	00008067          	ret

80002300 <console_out>:
80002300:	00308013          	addi	zero,ra,3
{
80002304:	ff010113          	addi	sp,sp,-16
80002308:	00112623          	sw	ra,12(sp)
8000230c:	00812423          	sw	s0,8(sp)
80002310:	00050413          	mv	s0,a0
	if ('\n' == c) {
80002314:	00a00793          	li	a5,10
80002318:	02f50a63          	beq	a0,a5,8000234c <console_out+0x4c>
	uart_poll_out(uart_console_dev, c);
8000231c:	0ff47593          	zext.b	a1,s0
			     unsigned char out_char);

static inline void z_impl_uart_poll_out(const struct device *dev,
					unsigned char out_char)
{
	const struct uart_driver_api *api =
80002320:	80006537          	lui	a0,0x80006
80002324:	59450793          	addi	a5,a0,1428 # 80006594 <CONFIG_SYSTEM_WORKQUEUE_PRIORITY+0x80006595>
80002328:	0087a783          	lw	a5,8(a5)
		(const struct uart_driver_api *)dev->api;

	api->poll_out(dev, out_char);
8000232c:	0047a783          	lw	a5,4(a5)
80002330:	59450513          	addi	a0,a0,1428
80002334:	000780e7          	jalr	a5
}
80002338:	00040513          	mv	a0,s0
8000233c:	00c12083          	lw	ra,12(sp)
80002340:	00812403          	lw	s0,8(sp)
80002344:	01010113          	addi	sp,sp,16
80002348:	00008067          	ret
	const struct uart_driver_api *api =
8000234c:	80006537          	lui	a0,0x80006
80002350:	59450793          	addi	a5,a0,1428 # 80006594 <CONFIG_SYSTEM_WORKQUEUE_PRIORITY+0x80006595>
80002354:	0087a783          	lw	a5,8(a5)
	api->poll_out(dev, out_char);
80002358:	0047a783          	lw	a5,4(a5)
8000235c:	00d00593          	li	a1,13
80002360:	59450513          	addi	a0,a0,1428
80002364:	000780e7          	jalr	a5
		return;
	}
#endif
	compiler_barrier();
	z_impl_uart_poll_out(dev, out_char);
}
80002368:	fb5ff06f          	j	8000231c <console_out+0x1c>

8000236c <uart_console_hook_install>:
8000236c:	00308013          	addi	zero,ra,3
{
80002370:	ff010113          	addi	sp,sp,-16
80002374:	00112623          	sw	ra,12(sp)
80002378:	00812423          	sw	s0,8(sp)
	__stdout_hook_install(console_out);
8000237c:	80002437          	lui	s0,0x80002
80002380:	30040513          	addi	a0,s0,768 # 80002300 <CONFIG_SYSTEM_WORKQUEUE_PRIORITY+0x80002301>
80002384:	bf5ff0ef          	jal	ra,80001f78 <__stdout_hook_install>
	__printk_hook_install(console_out);
80002388:	30040513          	addi	a0,s0,768
8000238c:	f18fe0ef          	jal	ra,80000aa4 <__printk_hook_install>
}
80002390:	00c12083          	lw	ra,12(sp)
80002394:	00812403          	lw	s0,8(sp)
80002398:	01010113          	addi	sp,sp,16
8000239c:	00008067          	ret

800023a0 <uart_console_init>:
800023a0:	00308013          	addi	zero,ra,3
{
800023a4:	ff010113          	addi	sp,sp,-16
800023a8:	00112623          	sw	ra,12(sp)
 */
__syscall bool device_is_ready(const struct device *dev);

static inline bool z_impl_device_is_ready(const struct device *dev)
{
	return z_device_is_ready(dev);
800023ac:	80006537          	lui	a0,0x80006
800023b0:	59450513          	addi	a0,a0,1428 # 80006594 <CONFIG_SYSTEM_WORKQUEUE_PRIORITY+0x80006595>
800023b4:	75c000ef          	jal	ra,80002b10 <z_device_is_ready>
	if (!device_is_ready(uart_console_dev)) {
800023b8:	00050c63          	beqz	a0,800023d0 <uart_console_init+0x30>
	uart_console_hook_install();
800023bc:	fb1ff0ef          	jal	ra,8000236c <uart_console_hook_install>
	return 0;
800023c0:	00000513          	li	a0,0
}
800023c4:	00c12083          	lw	ra,12(sp)
800023c8:	01010113          	addi	sp,sp,16
800023cc:	00008067          	ret
		return -ENODEV;
800023d0:	fed00513          	li	a0,-19
800023d4:	ff1ff06f          	j	800023c4 <uart_console_init+0x24>

800023d8 <clock_control_get_rate>:
800023d8:	00308013          	addi	zero,ra,3
 */
static inline int clock_control_get_rate(const struct device *dev,
					 clock_control_subsys_t sys,
					 uint32_t *rate)
{
	const struct clock_control_driver_api *api =
800023dc:	00852783          	lw	a5,8(a0)
		(const struct clock_control_driver_api *)dev->api;

	if (api->get_rate == NULL) {
800023e0:	00c7a783          	lw	a5,12(a5)
800023e4:	00078e63          	beqz	a5,80002400 <clock_control_get_rate+0x28>
{
800023e8:	ff010113          	addi	sp,sp,-16
800023ec:	00112623          	sw	ra,12(sp)
		return -ENOSYS;
	}

	return api->get_rate(dev, sys, rate);
800023f0:	000780e7          	jalr	a5
}
800023f4:	00c12083          	lw	ra,12(sp)
800023f8:	01010113          	addi	sp,sp,16
800023fc:	00008067          	ret
		return -ENOSYS;
80002400:	fa800513          	li	a0,-88
}
80002404:	00008067          	ret

80002408 <set_baud_rate>:
80002408:	00308013          	addi	zero,ra,3
	struct uart_ns16550_dev_data * const dev_data = dev->data;
8000240c:	01052703          	lw	a4,16(a0)
	if ((baud_rate != 0U) && (pclk != 0U)) {
80002410:	08058263          	beqz	a1,80002494 <set_baud_rate+0x8c>
80002414:	08060063          	beqz	a2,80002494 <set_baud_rate+0x8c>
		divisor = (pclk / (baud_rate << 4));
80002418:	00459793          	slli	a5,a1,0x4
8000241c:	02f65633          	divu	a2,a2,a5
	return DEVICE_MMIO_GET(dev);
80002420:	00452783          	lw	a5,4(a0)
80002424:	0007a803          	lw	a6,0(a5)
	return config->reg_interval;
80002428:	0107c683          	lbu	a3,16(a5)
		lcr_cache = INBYTE(LCR(dev));
8000242c:	00169793          	slli	a5,a3,0x1
80002430:	00d787b3          	add	a5,a5,a3
80002434:	010787b3          	add	a5,a5,a6
extern "C" {
#endif

static ALWAYS_INLINE uint8_t sys_read8(mem_addr_t addr)
{
	return *(volatile uint8_t *)addr;
80002438:	0007c683          	lbu	a3,0(a5)
8000243c:	0ff6f813          	zext.b	a6,a3
		OUTBYTE(LCR(dev), LCR_DLAB | lcr_cache);
80002440:	0806e693          	ori	a3,a3,128
}

static ALWAYS_INLINE void sys_write8(uint8_t data, mem_addr_t addr)
{
	*(volatile uint8_t *)addr = data;
80002444:	00d78023          	sb	a3,0(a5)
		OUTBYTE(BRDL(dev), (unsigned char)(divisor & 0xff));
80002448:	0ff67693          	zext.b	a3,a2
	const struct uart_ns16550_device_config *config = dev->config;
8000244c:	00452783          	lw	a5,4(a0)
	return DEVICE_MMIO_GET(dev);
80002450:	0007a783          	lw	a5,0(a5)
80002454:	00d78023          	sb	a3,0(a5)
		OUTBYTE(BRDH(dev), (unsigned char)((divisor >> 8) & 0xff));
80002458:	00865613          	srli	a2,a2,0x8
8000245c:	0ff67613          	zext.b	a2,a2
	return DEVICE_MMIO_GET(dev);
80002460:	00452783          	lw	a5,4(a0)
80002464:	0007a683          	lw	a3,0(a5)
	return config->reg_interval;
80002468:	0107c783          	lbu	a5,16(a5)
		OUTBYTE(BRDH(dev), (unsigned char)((divisor >> 8) & 0xff));
8000246c:	00d787b3          	add	a5,a5,a3
80002470:	00c78023          	sb	a2,0(a5)
	return DEVICE_MMIO_GET(dev);
80002474:	00452783          	lw	a5,4(a0)
80002478:	0007a603          	lw	a2,0(a5)
	return config->reg_interval;
8000247c:	0107c683          	lbu	a3,16(a5)
		OUTBYTE(LCR(dev), lcr_cache);
80002480:	00169793          	slli	a5,a3,0x1
80002484:	00d787b3          	add	a5,a5,a3
80002488:	00c787b3          	add	a5,a5,a2
8000248c:	01078023          	sb	a6,0(a5)
		dev_data->uart_config.baudrate = baud_rate;
80002490:	00b72023          	sw	a1,0(a4)
}
80002494:	00008067          	ret

80002498 <uart_ns16550_config_get>:
80002498:	00308013          	addi	zero,ra,3
	struct uart_ns16550_dev_data *data = dev->data;
8000249c:	01052783          	lw	a5,16(a0)
	cfg->baudrate = data->uart_config.baudrate;
800024a0:	0007a703          	lw	a4,0(a5)
800024a4:	00e5a023          	sw	a4,0(a1)
	cfg->parity = data->uart_config.parity;
800024a8:	0047c703          	lbu	a4,4(a5)
800024ac:	00e58223          	sb	a4,4(a1)
	cfg->stop_bits = data->uart_config.stop_bits;
800024b0:	0057c703          	lbu	a4,5(a5)
800024b4:	00e582a3          	sb	a4,5(a1)
	cfg->data_bits = data->uart_config.data_bits;
800024b8:	0067c703          	lbu	a4,6(a5)
800024bc:	00e58323          	sb	a4,6(a1)
	cfg->flow_ctrl = data->uart_config.flow_ctrl;
800024c0:	0077c783          	lbu	a5,7(a5)
800024c4:	00f583a3          	sb	a5,7(a1)
}
800024c8:	00000513          	li	a0,0
800024cc:	00008067          	ret

800024d0 <uart_ns16550_poll_in>:
800024d0:	00308013          	addi	zero,ra,3
	__asm__ volatile ("csrrc %0, mstatus, %1"
800024d4:	30047773          	csrrci	a4,mstatus,8
	return DEVICE_MMIO_GET(dev);
800024d8:	00452783          	lw	a5,4(a0)
800024dc:	0007a603          	lw	a2,0(a5)
	return config->reg_interval;
800024e0:	0107c683          	lbu	a3,16(a5)
	if ((INBYTE(LSR(dev)) & LSR_RXRDY) != 0) {
800024e4:	00269793          	slli	a5,a3,0x2
800024e8:	00d787b3          	add	a5,a5,a3
800024ec:	00c787b3          	add	a5,a5,a2
	return *(volatile uint8_t *)addr;
800024f0:	0007c783          	lbu	a5,0(a5)
800024f4:	0017f793          	andi	a5,a5,1
800024f8:	00078e63          	beqz	a5,80002514 <uart_ns16550_poll_in+0x44>
800024fc:	00064783          	lbu	a5,0(a2)
		*c = INBYTE(RDR(dev));
80002500:	00f58023          	sb	a5,0(a1)
		ret = 0;
80002504:	00000513          	li	a0,0
	__asm__ volatile ("csrs mstatus, %0"
80002508:	00877793          	andi	a5,a4,8
8000250c:	3007a073          	csrs	mstatus,a5
}
80002510:	00008067          	ret
	int ret = -1;
80002514:	fff00513          	li	a0,-1
80002518:	ff1ff06f          	j	80002508 <uart_ns16550_poll_in+0x38>

8000251c <uart_ns16550_poll_out>:
8000251c:	00308013          	addi	zero,ra,3
	__asm__ volatile ("csrrc %0, mstatus, %1"
80002520:	30047673          	csrrci	a2,mstatus,8
	return DEVICE_MMIO_GET(dev);
80002524:	00452783          	lw	a5,4(a0)
80002528:	0007a683          	lw	a3,0(a5)
	return config->reg_interval;
8000252c:	0107c703          	lbu	a4,16(a5)
	while ((INBYTE(LSR(dev)) & LSR_THRE) == 0) {
80002530:	00271793          	slli	a5,a4,0x2
80002534:	00e787b3          	add	a5,a5,a4
80002538:	00d787b3          	add	a5,a5,a3
8000253c:	0007c783          	lbu	a5,0(a5)
80002540:	0207f793          	andi	a5,a5,32
80002544:	fe0780e3          	beqz	a5,80002524 <uart_ns16550_poll_out+0x8>
	*(volatile uint8_t *)addr = data;
80002548:	00b68023          	sb	a1,0(a3) # c0000000 <CONFIG_SYSTEM_WORKQUEUE_PRIORITY+0xc0000001>
	__asm__ volatile ("csrs mstatus, %0"
8000254c:	00867793          	andi	a5,a2,8
80002550:	3007a073          	csrs	mstatus,a5
}
80002554:	00008067          	ret

80002558 <uart_ns16550_err_check>:
80002558:	00308013          	addi	zero,ra,3
	__asm__ volatile ("csrrc %0, mstatus, %1"
8000255c:	30047773          	csrrci	a4,mstatus,8
	return DEVICE_MMIO_GET(dev);
80002560:	00452783          	lw	a5,4(a0)
80002564:	0007a603          	lw	a2,0(a5)
	return config->reg_interval;
80002568:	0107c683          	lbu	a3,16(a5)
	int check = (INBYTE(LSR(dev)) & LSR_EOB_MASK);
8000256c:	00269793          	slli	a5,a3,0x2
80002570:	00d787b3          	add	a5,a5,a3
80002574:	00c787b3          	add	a5,a5,a2
	return *(volatile uint8_t *)addr;
80002578:	0007c503          	lbu	a0,0(a5)
8000257c:	01e57513          	andi	a0,a0,30
	__asm__ volatile ("csrs mstatus, %0"
80002580:	00877793          	andi	a5,a4,8
80002584:	3007a073          	csrs	mstatus,a5
}
80002588:	40155513          	srai	a0,a0,0x1
8000258c:	00008067          	ret

80002590 <uart_ns16550_configure>:
80002590:	00308013          	addi	zero,ra,3
{
80002594:	fd010113          	addi	sp,sp,-48
80002598:	02112623          	sw	ra,44(sp)
8000259c:	02812423          	sw	s0,40(sp)
800025a0:	02912223          	sw	s1,36(sp)
800025a4:	03212023          	sw	s2,32(sp)
800025a8:	01312e23          	sw	s3,28(sp)
800025ac:	01412c23          	sw	s4,24(sp)
800025b0:	00050413          	mv	s0,a0
800025b4:	00058493          	mv	s1,a1
	struct uart_ns16550_dev_data * const dev_data = dev->data;
800025b8:	01052a03          	lw	s4,16(a0)
	const struct uart_ns16550_device_config * const dev_cfg = dev->config;
800025bc:	00452983          	lw	s3,4(a0)
	uint32_t pclk = 0U;
800025c0:	00012623          	sw	zero,12(sp)
	__asm__ volatile ("csrrc %0, mstatus, %1"
800025c4:	30047973          	csrrci	s2,mstatus,8
	if (dev_cfg->sys_clk_freq != 0U) {
800025c8:	0049a783          	lw	a5,4(s3)
800025cc:	04078063          	beqz	a5,8000260c <uart_ns16550_configure+0x7c>
		pclk = dev_cfg->sys_clk_freq;
800025d0:	00f12623          	sw	a5,12(sp)
	set_baud_rate(dev, cfg->baudrate, pclk);
800025d4:	00c12603          	lw	a2,12(sp)
800025d8:	0004a583          	lw	a1,0(s1)
800025dc:	00040513          	mv	a0,s0
800025e0:	e29ff0ef          	jal	ra,80002408 <set_baud_rate>
	switch (cfg->data_bits) {
800025e4:	0064c783          	lbu	a5,6(s1)
800025e8:	00200713          	li	a4,2
800025ec:	0ae78463          	beq	a5,a4,80002694 <uart_ns16550_configure+0x104>
800025f0:	04f76263          	bltu	a4,a5,80002634 <uart_ns16550_configure+0xa4>
800025f4:	04078e63          	beqz	a5,80002650 <uart_ns16550_configure+0xc0>
800025f8:	00100713          	li	a4,1
800025fc:	02e79863          	bne	a5,a4,8000262c <uart_ns16550_configure+0x9c>
		uart_cfg.data_bits = LCR_CS6;
80002600:	00100793          	li	a5,1
80002604:	00f10523          	sb	a5,10(sp)
		break;
80002608:	04c0006f          	j	80002654 <uart_ns16550_configure+0xc4>
		if (!device_is_ready(dev_cfg->clock_dev)) {
8000260c:	0089a503          	lw	a0,8(s3)
80002610:	500000ef          	jal	ra,80002b10 <z_device_is_ready>
80002614:	18050a63          	beqz	a0,800027a8 <uart_ns16550_configure+0x218>
		clock_control_get_rate(dev_cfg->clock_dev, dev_cfg->clock_subsys,
80002618:	00c10613          	addi	a2,sp,12
8000261c:	00c9a583          	lw	a1,12(s3)
80002620:	0089a503          	lw	a0,8(s3)
80002624:	db5ff0ef          	jal	ra,800023d8 <clock_control_get_rate>
80002628:	fadff06f          	j	800025d4 <uart_ns16550_configure+0x44>
	switch (cfg->data_bits) {
8000262c:	f7a00513          	li	a0,-134
80002630:	03c0006f          	j	8000266c <uart_ns16550_configure+0xdc>
80002634:	00300713          	li	a4,3
80002638:	00e79863          	bne	a5,a4,80002648 <uart_ns16550_configure+0xb8>
		uart_cfg.data_bits = LCR_CS8;
8000263c:	00300793          	li	a5,3
80002640:	00f10523          	sb	a5,10(sp)
		break;
80002644:	0100006f          	j	80002654 <uart_ns16550_configure+0xc4>
	switch (cfg->data_bits) {
80002648:	f7a00513          	li	a0,-134
8000264c:	0200006f          	j	8000266c <uart_ns16550_configure+0xdc>
		uart_cfg.data_bits = LCR_CS5;
80002650:	00010523          	sb	zero,10(sp)
	switch (cfg->stop_bits) {
80002654:	0054c783          	lbu	a5,5(s1)
80002658:	00100713          	li	a4,1
8000265c:	04e78263          	beq	a5,a4,800026a0 <uart_ns16550_configure+0x110>
80002660:	00300713          	li	a4,3
80002664:	04e78c63          	beq	a5,a4,800026bc <uart_ns16550_configure+0x12c>
80002668:	f7a00513          	li	a0,-134
			  : "r" (key & MSTATUS_IEN)
8000266c:	00897913          	andi	s2,s2,8
	__asm__ volatile ("csrs mstatus, %0"
80002670:	30092073          	csrs	mstatus,s2
};
80002674:	02c12083          	lw	ra,44(sp)
80002678:	02812403          	lw	s0,40(sp)
8000267c:	02412483          	lw	s1,36(sp)
80002680:	02012903          	lw	s2,32(sp)
80002684:	01c12983          	lw	s3,28(sp)
80002688:	01812a03          	lw	s4,24(sp)
8000268c:	03010113          	addi	sp,sp,48
80002690:	00008067          	ret
		uart_cfg.data_bits = LCR_CS7;
80002694:	00200793          	li	a5,2
80002698:	00f10523          	sb	a5,10(sp)
		break;
8000269c:	fb9ff06f          	j	80002654 <uart_ns16550_configure+0xc4>
		uart_cfg.stop_bits = LCR_1_STB;
800026a0:	000104a3          	sb	zero,9(sp)
	switch (cfg->parity) {
800026a4:	0044c783          	lbu	a5,4(s1)
800026a8:	02078063          	beqz	a5,800026c8 <uart_ns16550_configure+0x138>
800026ac:	00200713          	li	a4,2
800026b0:	0ee78063          	beq	a5,a4,80002790 <uart_ns16550_configure+0x200>
800026b4:	f7a00513          	li	a0,-134
800026b8:	fb5ff06f          	j	8000266c <uart_ns16550_configure+0xdc>
		uart_cfg.stop_bits = LCR_2_STB;
800026bc:	00400793          	li	a5,4
800026c0:	00f104a3          	sb	a5,9(sp)
		break;
800026c4:	fe1ff06f          	j	800026a4 <uart_ns16550_configure+0x114>
		uart_cfg.parity = LCR_PDIS;
800026c8:	00010423          	sb	zero,8(sp)
	dev_data->uart_config = *cfg;
800026cc:	0004a783          	lw	a5,0(s1)
800026d0:	00fa2023          	sw	a5,0(s4)
800026d4:	0044a783          	lw	a5,4(s1)
800026d8:	00fa2223          	sw	a5,4(s4)
	OUTBYTE(LCR(dev),
800026dc:	00a14783          	lbu	a5,10(sp)
800026e0:	00914683          	lbu	a3,9(sp)
800026e4:	00814703          	lbu	a4,8(sp)
800026e8:	00d7e7b3          	or	a5,a5,a3
800026ec:	00f76733          	or	a4,a4,a5
	return DEVICE_MMIO_GET(dev);
800026f0:	00442783          	lw	a5,4(s0)
800026f4:	0007a603          	lw	a2,0(a5)
	return config->reg_interval;
800026f8:	0107c683          	lbu	a3,16(a5)
	OUTBYTE(LCR(dev),
800026fc:	00169793          	slli	a5,a3,0x1
80002700:	00d787b3          	add	a5,a5,a3
80002704:	00c787b3          	add	a5,a5,a2
	*(volatile uint8_t *)addr = data;
80002708:	00e78023          	sb	a4,0(a5)
	return DEVICE_MMIO_GET(dev);
8000270c:	00442783          	lw	a5,4(s0)
80002710:	0007a703          	lw	a4,0(a5)
	return config->reg_interval;
80002714:	0107c783          	lbu	a5,16(a5)
	OUTBYTE(MDC(dev), mdc);
80002718:	00279793          	slli	a5,a5,0x2
8000271c:	00e787b3          	add	a5,a5,a4
80002720:	00b00713          	li	a4,11
80002724:	00e78023          	sb	a4,0(a5)
	return DEVICE_MMIO_GET(dev);
80002728:	00442783          	lw	a5,4(s0)
8000272c:	0007a703          	lw	a4,0(a5)
	return config->reg_interval;
80002730:	0107c783          	lbu	a5,16(a5)
	OUTBYTE(FCR(dev),
80002734:	00179793          	slli	a5,a5,0x1
80002738:	00e787b3          	add	a5,a5,a4
8000273c:	f8700713          	li	a4,-121
80002740:	00e78023          	sb	a4,0(a5)
	return DEVICE_MMIO_GET(dev);
80002744:	00442783          	lw	a5,4(s0)
80002748:	0007a703          	lw	a4,0(a5)
	return config->reg_interval;
8000274c:	0107c783          	lbu	a5,16(a5)
	if ((INBYTE(IIR(dev)) & IIR_FE) == IIR_FE) {
80002750:	00179793          	slli	a5,a5,0x1
80002754:	00e787b3          	add	a5,a5,a4
	return *(volatile uint8_t *)addr;
80002758:	0007c783          	lbu	a5,0(a5)
8000275c:	0c07f793          	andi	a5,a5,192
80002760:	0c000713          	li	a4,192
80002764:	02e78c63          	beq	a5,a4,8000279c <uart_ns16550_configure+0x20c>
		dev_data->fifo_size = 1;
80002768:	00100793          	li	a5,1
8000276c:	00fa0423          	sb	a5,8(s4)
	const struct uart_ns16550_device_config *config = dev->config;
80002770:	00442703          	lw	a4,4(s0)
	return config->reg_interval;
80002774:	01074783          	lbu	a5,16(a4)
	return DEVICE_MMIO_GET(dev);
80002778:	00072703          	lw	a4,0(a4)
8000277c:	00074683          	lbu	a3,0(a4)
	OUTBYTE(IER(dev), 0x00);
80002780:	00e787b3          	add	a5,a5,a4
	*(volatile uint8_t *)addr = data;
80002784:	00078023          	sb	zero,0(a5)
	int ret = 0;
80002788:	00000513          	li	a0,0
}
8000278c:	ee1ff06f          	j	8000266c <uart_ns16550_configure+0xdc>
		uart_cfg.parity = LCR_EPS;
80002790:	01000793          	li	a5,16
80002794:	00f10423          	sb	a5,8(sp)
		break;
80002798:	f35ff06f          	j	800026cc <uart_ns16550_configure+0x13c>
		dev_data->fifo_size = 16;
8000279c:	01000793          	li	a5,16
800027a0:	00fa0423          	sb	a5,8(s4)
800027a4:	fcdff06f          	j	80002770 <uart_ns16550_configure+0x1e0>
			ret = -EINVAL;
800027a8:	fea00513          	li	a0,-22
800027ac:	ec1ff06f          	j	8000266c <uart_ns16550_configure+0xdc>

800027b0 <uart_ns16550_init>:
800027b0:	00308013          	addi	zero,ra,3
{
800027b4:	ff010113          	addi	sp,sp,-16
800027b8:	00112623          	sw	ra,12(sp)
	ret = uart_ns16550_configure(dev, &data->uart_config);
800027bc:	01052583          	lw	a1,16(a0)
800027c0:	dd1ff0ef          	jal	ra,80002590 <uart_ns16550_configure>
}
800027c4:	00c12083          	lw	ra,12(sp)
800027c8:	01010113          	addi	sp,sp,16
800027cc:	00008067          	ret

800027d0 <get_hart_mtimecmp>:
800027d0:	00308013          	addi	zero,ra,3
	return MTIMECMP_REG + (_current_cpu->id * 8);
800027d4:	800077b7          	lui	a5,0x80007
800027d8:	f5078793          	addi	a5,a5,-176 # 80006f50 <CONFIG_SYSTEM_WORKQUEUE_PRIORITY+0x80006f51>
800027dc:	0147c783          	lbu	a5,20(a5)
800027e0:	00379793          	slli	a5,a5,0x3
}
800027e4:	02004537          	lui	a0,0x2004
800027e8:	00a78533          	add	a0,a5,a0
800027ec:	00000593          	li	a1,0
800027f0:	00008067          	ret

800027f4 <set_mtimecmp>:
800027f4:	00308013          	addi	zero,ra,3
{
800027f8:	ff010113          	addi	sp,sp,-16
800027fc:	00112623          	sw	ra,12(sp)
80002800:	00812423          	sw	s0,8(sp)
80002804:	00912223          	sw	s1,4(sp)
80002808:	00050493          	mv	s1,a0
8000280c:	00058413          	mv	s0,a1
	volatile uint32_t *r = (uint32_t *)(uint32_t)get_hart_mtimecmp();
80002810:	fc1ff0ef          	jal	ra,800027d0 <get_hart_mtimecmp>
	r[1] = 0xffffffff;
80002814:	fff00793          	li	a5,-1
80002818:	00f52223          	sw	a5,4(a0) # 2004004 <CONFIG_SRAM_SIZE+0x1f04004>
	r[0] = (uint32_t)time;
8000281c:	00952023          	sw	s1,0(a0)
	r[1] = (uint32_t)(time >> 32);
80002820:	00852223          	sw	s0,4(a0)
}
80002824:	00c12083          	lw	ra,12(sp)
80002828:	00812403          	lw	s0,8(sp)
8000282c:	00412483          	lw	s1,4(sp)
80002830:	01010113          	addi	sp,sp,16
80002834:	00008067          	ret

80002838 <mtime>:
{
80002838:	00308013          	addi	zero,ra,3
		hi = r[1];
8000283c:	0200c7b7          	lui	a5,0x200c
80002840:	ffc7a583          	lw	a1,-4(a5) # 200bffc <CONFIG_SRAM_SIZE+0x1f0bffc>
		lo = r[0];
80002844:	ff87a503          	lw	a0,-8(a5)
	} while (r[1] != hi);
80002848:	ffc7a783          	lw	a5,-4(a5)
8000284c:	feb796e3          	bne	a5,a1,80002838 <mtime>
}
80002850:	00008067          	ret

80002854 <sys_clock_driver_init>:
80002854:	00308013          	addi	zero,ra,3
{
80002858:	ff010113          	addi	sp,sp,-16
8000285c:	00112623          	sw	ra,12(sp)
	IRQ_CONNECT(TIMER_IRQN, 0, timer_isr, NULL, 0);
80002860:	00000613          	li	a2,0
80002864:	00000593          	li	a1,0
80002868:	00700513          	li	a0,7
8000286c:	ca8ff0ef          	jal	ra,80001d14 <z_riscv_irq_priority_set>
	last_count = mtime();
80002870:	fc9ff0ef          	jal	ra,80002838 <mtime>
80002874:	00050793          	mv	a5,a0
80002878:	80007737          	lui	a4,0x80007
8000287c:	dea72c23          	sw	a0,-520(a4) # 80006df8 <CONFIG_SYSTEM_WORKQUEUE_PRIORITY+0x80006df9>
80002880:	deb72e23          	sw	a1,-516(a4)
	set_mtimecmp(last_count + CYC_PER_TICK);
80002884:	10050513          	addi	a0,a0,256
80002888:	00f537b3          	sltu	a5,a0,a5
8000288c:	00b785b3          	add	a1,a5,a1
80002890:	f65ff0ef          	jal	ra,800027f4 <set_mtimecmp>
	irq_enable(TIMER_IRQN);
80002894:	00700513          	li	a0,7
80002898:	c40ff0ef          	jal	ra,80001cd8 <arch_irq_enable>
}
8000289c:	00000513          	li	a0,0
800028a0:	00c12083          	lw	ra,12(sp)
800028a4:	01010113          	addi	sp,sp,16
800028a8:	00008067          	ret

800028ac <timer_isr>:
800028ac:	00308013          	addi	zero,ra,3
{
800028b0:	ff010113          	addi	sp,sp,-16
800028b4:	00112623          	sw	ra,12(sp)
800028b8:	00812423          	sw	s0,8(sp)
	__asm__ volatile ("csrrc %0, mstatus, %1"
800028bc:	30047473          	csrrci	s0,mstatus,8
	uint64_t now = mtime();
800028c0:	f79ff0ef          	jal	ra,80002838 <mtime>
800028c4:	00050693          	mv	a3,a0
	uint32_t dticks = (uint32_t)((now - last_count) / CYC_PER_TICK);
800028c8:	80007637          	lui	a2,0x80007
800028cc:	df862783          	lw	a5,-520(a2) # 80006df8 <CONFIG_SYSTEM_WORKQUEUE_PRIORITY+0x80006df9>
800028d0:	dfc62703          	lw	a4,-516(a2)
800028d4:	40f507b3          	sub	a5,a0,a5
800028d8:	00f53533          	sltu	a0,a0,a5
800028dc:	40e58733          	sub	a4,a1,a4
800028e0:	40a70733          	sub	a4,a4,a0
800028e4:	01871713          	slli	a4,a4,0x18
800028e8:	0087d513          	srli	a0,a5,0x8
800028ec:	00a76533          	or	a0,a4,a0
	last_count = now;
800028f0:	ded62c23          	sw	a3,-520(a2)
800028f4:	deb62e23          	sw	a1,-516(a2)
	__asm__ volatile ("csrs mstatus, %0"
800028f8:	00847413          	andi	s0,s0,8
800028fc:	30042073          	csrs	mstatus,s0
	sys_clock_announce(IS_ENABLED(CONFIG_TICKLESS_KERNEL) ? dticks : 1);
80002900:	779010ef          	jal	ra,80004878 <sys_clock_announce>
}
80002904:	00c12083          	lw	ra,12(sp)
80002908:	00812403          	lw	s0,8(sp)
8000290c:	01010113          	addi	sp,sp,16
80002910:	00008067          	ret

80002914 <sys_clock_set_timeout>:
80002914:	00308013          	addi	zero,ra,3
	if (idle) {
80002918:	0c059c63          	bnez	a1,800029f0 <sys_clock_set_timeout+0xdc>
{
8000291c:	ff010113          	addi	sp,sp,-16
80002920:	00112623          	sw	ra,12(sp)
80002924:	00812423          	sw	s0,8(sp)
80002928:	00912223          	sw	s1,4(sp)
	ticks = ticks == K_TICKS_FOREVER ? MAX_TICKS : ticks;
8000292c:	fff00793          	li	a5,-1
80002930:	04f50a63          	beq	a0,a5,80002984 <sys_clock_set_timeout+0x70>
	ticks = CLAMP(ticks - 1, 0, (int32_t)MAX_TICKS);
80002934:	00100793          	li	a5,1
80002938:	04a7dc63          	bge	a5,a0,80002990 <sys_clock_set_timeout+0x7c>
8000293c:	008007b7          	lui	a5,0x800
80002940:	ffe78793          	addi	a5,a5,-2 # 7ffffe <CONFIG_SRAM_SIZE+0x6ffffe>
80002944:	04a7ca63          	blt	a5,a0,80002998 <sys_clock_set_timeout+0x84>
80002948:	fff50413          	addi	s0,a0,-1
	__asm__ volatile ("csrrc %0, mstatus, %1"
8000294c:	300474f3          	csrrci	s1,mstatus,8
	uint64_t now = mtime();
80002950:	ee9ff0ef          	jal	ra,80002838 <mtime>
	uint32_t adj, cyc = ticks * CYC_PER_TICK;
80002954:	00841793          	slli	a5,s0,0x8
	adj = (uint32_t)(now - last_count) + (CYC_PER_TICK - 1);
80002958:	800076b7          	lui	a3,0x80007
8000295c:	df86a703          	lw	a4,-520(a3) # 80006df8 <CONFIG_SYSTEM_WORKQUEUE_PRIORITY+0x80006df9>
80002960:	dfc6a583          	lw	a1,-516(a3)
80002964:	40e50633          	sub	a2,a0,a4
80002968:	0ff60613          	addi	a2,a2,255
	if (cyc <= MAX_CYC - adj) {
8000296c:	800006b7          	lui	a3,0x80000
80002970:	fff6c693          	not	a3,a3
80002974:	40c686b3          	sub	a3,a3,a2
80002978:	02f6e663          	bltu	a3,a5,800029a4 <sys_clock_set_timeout+0x90>
		cyc += adj;
8000297c:	00c787b3          	add	a5,a5,a2
80002980:	02c0006f          	j	800029ac <sys_clock_set_timeout+0x98>
	ticks = ticks == K_TICKS_FOREVER ? MAX_TICKS : ticks;
80002984:	00800537          	lui	a0,0x800
80002988:	ffe50513          	addi	a0,a0,-2 # 7ffffe <CONFIG_SRAM_SIZE+0x6ffffe>
8000298c:	fb1ff06f          	j	8000293c <sys_clock_set_timeout+0x28>
	ticks = CLAMP(ticks - 1, 0, (int32_t)MAX_TICKS);
80002990:	00000413          	li	s0,0
80002994:	fb9ff06f          	j	8000294c <sys_clock_set_timeout+0x38>
80002998:	00800537          	lui	a0,0x800
8000299c:	ffe50413          	addi	s0,a0,-2 # 7ffffe <CONFIG_SRAM_SIZE+0x6ffffe>
800029a0:	fadff06f          	j	8000294c <sys_clock_set_timeout+0x38>
		cyc = MAX_CYC;
800029a4:	800007b7          	lui	a5,0x80000
800029a8:	fff7c793          	not	a5,a5
	cyc = (cyc / CYC_PER_TICK) * CYC_PER_TICK;
800029ac:	f007f793          	andi	a5,a5,-256
	if ((int32_t)(cyc + last_count - now) < MIN_DELAY) {
800029b0:	00f706b3          	add	a3,a4,a5
800029b4:	40a686b3          	sub	a3,a3,a0
800029b8:	06300613          	li	a2,99
800029bc:	00d64463          	blt	a2,a3,800029c4 <sys_clock_set_timeout+0xb0>
		cyc += CYC_PER_TICK;
800029c0:	10078793          	addi	a5,a5,256 # 80000100 <CONFIG_SYSTEM_WORKQUEUE_PRIORITY+0x80000101>
	set_mtimecmp(cyc + last_count);
800029c4:	00e78533          	add	a0,a5,a4
800029c8:	00f537b3          	sltu	a5,a0,a5
800029cc:	00b785b3          	add	a1,a5,a1
800029d0:	e25ff0ef          	jal	ra,800027f4 <set_mtimecmp>
	__asm__ volatile ("csrs mstatus, %0"
800029d4:	0084f493          	andi	s1,s1,8
800029d8:	3004a073          	csrs	mstatus,s1
}
800029dc:	00c12083          	lw	ra,12(sp)
800029e0:	00812403          	lw	s0,8(sp)
800029e4:	00412483          	lw	s1,4(sp)
800029e8:	01010113          	addi	sp,sp,16
800029ec:	00008067          	ret
800029f0:	00008067          	ret

800029f4 <sys_clock_elapsed>:
800029f4:	00308013          	addi	zero,ra,3
{
800029f8:	ff010113          	addi	sp,sp,-16
800029fc:	00112623          	sw	ra,12(sp)
80002a00:	00812423          	sw	s0,8(sp)
	__asm__ volatile ("csrrc %0, mstatus, %1"
80002a04:	30047473          	csrrci	s0,mstatus,8
	uint32_t ret = ((uint32_t)mtime() - (uint32_t)last_count) / CYC_PER_TICK;
80002a08:	e31ff0ef          	jal	ra,80002838 <mtime>
80002a0c:	800077b7          	lui	a5,0x80007
80002a10:	df87a783          	lw	a5,-520(a5) # 80006df8 <CONFIG_SYSTEM_WORKQUEUE_PRIORITY+0x80006df9>
80002a14:	40f50533          	sub	a0,a0,a5
80002a18:	00855513          	srli	a0,a0,0x8
	__asm__ volatile ("csrs mstatus, %0"
80002a1c:	00847413          	andi	s0,s0,8
80002a20:	30042073          	csrs	mstatus,s0
}
80002a24:	00c12083          	lw	ra,12(sp)
80002a28:	00812403          	lw	s0,8(sp)
80002a2c:	01010113          	addi	sp,sp,16
80002a30:	00008067          	ret

80002a34 <z_device_state_init>:
80002a34:	00308013          	addi	zero,ra,3
	const struct device *dev = __device_start;
80002a38:	80006737          	lui	a4,0x80006
80002a3c:	59470713          	addi	a4,a4,1428 # 80006594 <CONFIG_SYSTEM_WORKQUEUE_PRIORITY+0x80006595>
	while (dev < __device_end) {
80002a40:	0080006f          	j	80002a48 <z_device_state_init+0x14>
		++dev;
80002a44:	01870713          	addi	a4,a4,24
	while (dev < __device_end) {
80002a48:	800067b7          	lui	a5,0x80006
80002a4c:	5ac78793          	addi	a5,a5,1452 # 800065ac <CONFIG_SYSTEM_WORKQUEUE_PRIORITY+0x800065ad>
80002a50:	fef76ae3          	bltu	a4,a5,80002a44 <z_device_state_init+0x10>
}
80002a54:	00008067          	ret

80002a58 <z_sys_init_run_level>:
80002a58:	00308013          	addi	zero,ra,3
{
80002a5c:	ff010113          	addi	sp,sp,-16
80002a60:	00112623          	sw	ra,12(sp)
80002a64:	00812423          	sw	s0,8(sp)
80002a68:	00912223          	sw	s1,4(sp)
80002a6c:	01212023          	sw	s2,0(sp)
80002a70:	00050913          	mv	s2,a0
	for (entry = levels[level]; entry < levels[level+1]; entry++) {
80002a74:	800077b7          	lui	a5,0x80007
80002a78:	00251713          	slli	a4,a0,0x2
80002a7c:	b9878793          	addi	a5,a5,-1128 # 80006b98 <CONFIG_SYSTEM_WORKQUEUE_PRIORITY+0x80006b99>
80002a80:	00e787b3          	add	a5,a5,a4
80002a84:	0007a403          	lw	s0,0(a5)
80002a88:	0280006f          	j	80002ab0 <z_sys_init_run_level+0x58>
					rc = -rc;
80002a8c:	40a00533          	neg	a0,a0
80002a90:	0580006f          	j	80002ae8 <z_sys_init_run_level+0x90>
				dev->state->init_res = rc;
80002a94:	00c4a783          	lw	a5,12(s1)
80002a98:	00a78023          	sb	a0,0(a5)
			dev->state->initialized = true;
80002a9c:	00c4a703          	lw	a4,12(s1)
80002aa0:	00075783          	lhu	a5,0(a4)
80002aa4:	1007e793          	ori	a5,a5,256
80002aa8:	00f71023          	sh	a5,0(a4)
	for (entry = levels[level]; entry < levels[level+1]; entry++) {
80002aac:	00840413          	addi	s0,s0,8
80002ab0:	00190713          	addi	a4,s2,1
80002ab4:	800077b7          	lui	a5,0x80007
80002ab8:	00271713          	slli	a4,a4,0x2
80002abc:	b9878793          	addi	a5,a5,-1128 # 80006b98 <CONFIG_SYSTEM_WORKQUEUE_PRIORITY+0x80006b99>
80002ac0:	00e787b3          	add	a5,a5,a4
80002ac4:	0007a783          	lw	a5,0(a5)
80002ac8:	02f47863          	bgeu	s0,a5,80002af8 <z_sys_init_run_level+0xa0>
		const struct device *dev = entry->dev;
80002acc:	00442483          	lw	s1,4(s0)
		int rc = entry->init(dev);
80002ad0:	00042783          	lw	a5,0(s0)
80002ad4:	00048513          	mv	a0,s1
80002ad8:	000780e7          	jalr	a5
		if (dev != NULL) {
80002adc:	fc0488e3          	beqz	s1,80002aac <z_sys_init_run_level+0x54>
			if (rc != 0) {
80002ae0:	fa050ee3          	beqz	a0,80002a9c <z_sys_init_run_level+0x44>
				if (rc < 0) {
80002ae4:	fa0544e3          	bltz	a0,80002a8c <z_sys_init_run_level+0x34>
				if (rc > UINT8_MAX) {
80002ae8:	0ff00793          	li	a5,255
80002aec:	faa7d4e3          	bge	a5,a0,80002a94 <z_sys_init_run_level+0x3c>
					rc = UINT8_MAX;
80002af0:	0ff00513          	li	a0,255
80002af4:	fa1ff06f          	j	80002a94 <z_sys_init_run_level+0x3c>
}
80002af8:	00c12083          	lw	ra,12(sp)
80002afc:	00812403          	lw	s0,8(sp)
80002b00:	00412483          	lw	s1,4(sp)
80002b04:	00012903          	lw	s2,0(sp)
80002b08:	01010113          	addi	sp,sp,16
80002b0c:	00008067          	ret

80002b10 <z_device_is_ready>:
80002b10:	00308013          	addi	zero,ra,3
	if (dev == NULL) {
80002b14:	00050e63          	beqz	a0,80002b30 <z_device_is_ready+0x20>
	return dev->state->initialized && (dev->state->init_res == 0U);
80002b18:	00c52783          	lw	a5,12(a0)
80002b1c:	0007a503          	lw	a0,0(a5)
80002b20:	1ff57513          	andi	a0,a0,511
80002b24:	f0050513          	addi	a0,a0,-256
80002b28:	00153513          	seqz	a0,a0
80002b2c:	00008067          	ret
		return false;
80002b30:	00000513          	li	a0,0
}
80002b34:	00008067          	ret

80002b38 <arch_system_halt>:
80002b38:	00308013          	addi	zero,ra,3
	__asm__ volatile ("csrrc %0, mstatus, %1"
80002b3c:	300477f3          	csrrci	a5,mstatus,8
	for (;;) {
80002b40:	0000006f          	j	80002b40 <arch_system_halt+0x8>

80002b44 <k_sys_fatal_error_handler>:
80002b44:	00308013          	addi	zero,ra,3
{
80002b48:	ff010113          	addi	sp,sp,-16
80002b4c:	00112623          	sw	ra,12(sp)
	arch_system_halt(reason);
80002b50:	fe9ff0ef          	jal	ra,80002b38 <arch_system_halt>

80002b54 <z_fatal_error>:
80002b54:	00308013          	addi	zero,ra,3
{
80002b58:	fe010113          	addi	sp,sp,-32
80002b5c:	00112e23          	sw	ra,28(sp)
80002b60:	00812c23          	sw	s0,24(sp)
80002b64:	00912a23          	sw	s1,20(sp)
80002b68:	01212823          	sw	s2,16(sp)
80002b6c:	01312623          	sw	s3,12(sp)
80002b70:	00050913          	mv	s2,a0
80002b74:	00058993          	mv	s3,a1
80002b78:	300474f3          	csrrci	s1,mstatus,8
	return z_impl_z_current_get();
80002b7c:	7e0010ef          	jal	ra,8000435c <z_impl_z_current_get>
80002b80:	00050413          	mv	s0,a0
	k_sys_fatal_error_handler(reason, esf);
80002b84:	00098593          	mv	a1,s3
80002b88:	00090513          	mv	a0,s2
80002b8c:	fb9ff0ef          	jal	ra,80002b44 <k_sys_fatal_error_handler>
			  : "r" (key & MSTATUS_IEN)
80002b90:	0084f493          	andi	s1,s1,8
	__asm__ volatile ("csrs mstatus, %0"
80002b94:	3004a073          	csrs	mstatus,s1
	z_impl_k_thread_abort(thread);
80002b98:	00040513          	mv	a0,s0
80002b9c:	07d010ef          	jal	ra,80004418 <z_impl_k_thread_abort>
}
80002ba0:	01c12083          	lw	ra,28(sp)
80002ba4:	01812403          	lw	s0,24(sp)
80002ba8:	01412483          	lw	s1,20(sp)
80002bac:	01012903          	lw	s2,16(sp)
80002bb0:	00c12983          	lw	s3,12(sp)
80002bb4:	02010113          	addi	sp,sp,32
80002bb8:	00008067          	ret

80002bbc <init_idle_thread>:
80002bbc:	00308013          	addi	zero,ra,3
{
80002bc0:	fd010113          	addi	sp,sp,-48
80002bc4:	02112623          	sw	ra,44(sp)
80002bc8:	02812423          	sw	s0,40(sp)
80002bcc:	02912223          	sw	s1,36(sp)
80002bd0:	03212023          	sw	s2,32(sp)
80002bd4:	01312e23          	sw	s3,28(sp)
80002bd8:	00050413          	mv	s0,a0
	struct k_thread *thread = &z_idle_threads[i];
80002bdc:	00451913          	slli	s2,a0,0x4
80002be0:	00a909b3          	add	s3,s2,a0
80002be4:	00399993          	slli	s3,s3,0x3
80002be8:	800074b7          	lui	s1,0x80007
80002bec:	e4048493          	addi	s1,s1,-448 # 80006e40 <CONFIG_SYSTEM_WORKQUEUE_PRIORITY+0x80006e41>
80002bf0:	009989b3          	add	s3,s3,s1
	k_thread_stack_t *stack = z_idle_stacks[i];
80002bf4:	00a51513          	slli	a0,a0,0xa
			  CONFIG_IDLE_STACK_SIZE, idle, &_kernel.cpus[i],
80002bf8:	00141693          	slli	a3,s0,0x1
80002bfc:	008686b3          	add	a3,a3,s0
80002c00:	00369693          	slli	a3,a3,0x3
	z_setup_new_thread(thread, stack,
80002c04:	00012223          	sw	zero,4(sp)
80002c08:	00100793          	li	a5,1
80002c0c:	00f12023          	sw	a5,0(sp)
80002c10:	00f00893          	li	a7,15
80002c14:	00000813          	li	a6,0
80002c18:	00000793          	li	a5,0
80002c1c:	80007737          	lui	a4,0x80007
80002c20:	f5070713          	addi	a4,a4,-176 # 80006f50 <CONFIG_SYSTEM_WORKQUEUE_PRIORITY+0x80006f51>
80002c24:	00d70733          	add	a4,a4,a3
80002c28:	800036b7          	lui	a3,0x80003
80002c2c:	1b068693          	addi	a3,a3,432 # 800031b0 <CONFIG_SYSTEM_WORKQUEUE_PRIORITY+0x800031b1>
80002c30:	40000613          	li	a2,1024
80002c34:	800085b7          	lui	a1,0x80008
80002c38:	f8058593          	addi	a1,a1,-128 # 80007f80 <CONFIG_SYSTEM_WORKQUEUE_PRIORITY+0x80007f81>
80002c3c:	00a585b3          	add	a1,a1,a0
80002c40:	00098513          	mv	a0,s3
80002c44:	398000ef          	jal	ra,80002fdc <z_setup_new_thread>
	SYS_PORT_TRACING_FUNC(k_thread, sched_resume, thread);
}

static inline void z_mark_thread_as_started(struct k_thread *thread)
{
	thread->base.thread_state &= ~_THREAD_PRESTART;
80002c48:	00d9c783          	lbu	a5,13(s3)
80002c4c:	ffb7f793          	andi	a5,a5,-5
80002c50:	00f986a3          	sb	a5,13(s3)
}
80002c54:	02c12083          	lw	ra,44(sp)
80002c58:	02812403          	lw	s0,40(sp)
80002c5c:	02412483          	lw	s1,36(sp)
80002c60:	02012903          	lw	s2,32(sp)
80002c64:	01c12983          	lw	s3,28(sp)
80002c68:	03010113          	addi	sp,sp,48
80002c6c:	00008067          	ret

80002c70 <bg_thread_main>:
80002c70:	00308013          	addi	zero,ra,3
{
80002c74:	ff010113          	addi	sp,sp,-16
80002c78:	00112623          	sw	ra,12(sp)
	z_sys_post_kernel = true;
80002c7c:	800077b7          	lui	a5,0x80007
80002c80:	00100713          	li	a4,1
80002c84:	e2e78c23          	sb	a4,-456(a5) # 80006e38 <CONFIG_SYSTEM_WORKQUEUE_PRIORITY+0x80006e39>
	z_sys_init_run_level(_SYS_INIT_LEVEL_POST_KERNEL);
80002c88:	00200513          	li	a0,2
80002c8c:	dcdff0ef          	jal	ra,80002a58 <z_sys_init_run_level>
	boot_banner();
80002c90:	53d010ef          	jal	ra,800049cc <boot_banner>
	z_sys_init_run_level(_SYS_INIT_LEVEL_APPLICATION);
80002c94:	00300513          	li	a0,3
80002c98:	dc1ff0ef          	jal	ra,80002a58 <z_sys_init_run_level>
	z_init_static_threads();
80002c9c:	418000ef          	jal	ra,800030b4 <z_init_static_threads>
	main();
80002ca0:	d99fd0ef          	jal	ra,80000a38 <main>
	z_main_thread.base.user_options &= ~K_ESSENTIAL;
80002ca4:	800077b7          	lui	a5,0x80007
80002ca8:	ec878793          	addi	a5,a5,-312 # 80006ec8 <CONFIG_SYSTEM_WORKQUEUE_PRIORITY+0x80006ec9>
80002cac:	00c7c703          	lbu	a4,12(a5)
80002cb0:	ffe77713          	andi	a4,a4,-2
80002cb4:	00e78623          	sb	a4,12(a5)
} /* LCOV_EXCL_LINE ... because we just dumped final coverage data */
80002cb8:	00c12083          	lw	ra,12(sp)
80002cbc:	01010113          	addi	sp,sp,16
80002cc0:	00008067          	ret

80002cc4 <z_swap_unlocked>:
80002cc4:	00308013          	addi	zero,ra,3
{
	return do_swap(key.key, lock, true);
}

static inline void z_swap_unlocked(void)
{
80002cc8:	ff010113          	addi	sp,sp,-16
80002ccc:	00112623          	sw	ra,12(sp)
80002cd0:	00812423          	sw	s0,8(sp)
80002cd4:	00912223          	sw	s1,4(sp)
80002cd8:	01212023          	sw	s2,0(sp)
	__asm__ volatile ("csrrc %0, mstatus, %1"
80002cdc:	300474f3          	csrrci	s1,mstatus,8
	old_thread = _current;
80002ce0:	800077b7          	lui	a5,0x80007
80002ce4:	f5078793          	addi	a5,a5,-176 # 80006f50 <CONFIG_SYSTEM_WORKQUEUE_PRIORITY+0x80006f51>
80002ce8:	0087a903          	lw	s2,8(a5)
	old_thread->swap_retval = -EAGAIN;
80002cec:	ff500793          	li	a5,-11
80002cf0:	06f92c23          	sw	a5,120(s2)
80002cf4:	300477f3          	csrrci	a5,mstatus,8
	new_thread = z_swap_next_thread();
80002cf8:	1a9000ef          	jal	ra,800036a0 <z_swap_next_thread>
	if (new_thread != old_thread) {
80002cfc:	02a90263          	beq	s2,a0,80002d20 <z_swap_unlocked+0x5c>
80002d00:	00050413          	mv	s0,a0
		_current_cpu->current = new_thread;
80002d04:	800077b7          	lui	a5,0x80007
80002d08:	f5078793          	addi	a5,a5,-176 # 80006f50 <CONFIG_SYSTEM_WORKQUEUE_PRIORITY+0x80006f51>
80002d0c:	00a7a423          	sw	a0,8(a5)
		z_reset_time_slice(new_thread);
80002d10:	045000ef          	jal	ra,80003554 <z_reset_time_slice>
	struct k_thread *old = CONTAINER_OF(switched_from, struct k_thread,
					    switch_handle);
#ifdef CONFIG_RISCV_ALWAYS_SWITCH_THROUGH_ECALL
	arch_syscall_invoke2((uintptr_t)new, (uintptr_t)old, RV_ECALL_SCHEDULE);
#else
	z_riscv_switch(new, old);
80002d14:	00090593          	mv	a1,s2
80002d18:	07c42503          	lw	a0,124(s0)
80002d1c:	940ff0ef          	jal	ra,80001e5c <z_riscv_switch>
			  : "r" (key & MSTATUS_IEN)
80002d20:	0084f493          	andi	s1,s1,8
	__asm__ volatile ("csrs mstatus, %0"
80002d24:	3004a073          	csrs	mstatus,s1
	(void) do_swap(arch_irq_lock(), NULL, true);
}
80002d28:	00c12083          	lw	ra,12(sp)
80002d2c:	00812403          	lw	s0,8(sp)
80002d30:	00412483          	lw	s1,4(sp)
80002d34:	00012903          	lw	s2,0(sp)
80002d38:	01010113          	addi	sp,sp,16
80002d3c:	00008067          	ret

80002d40 <switch_to_main_thread>:
80002d40:	00308013          	addi	zero,ra,3
{
80002d44:	ff010113          	addi	sp,sp,-16
80002d48:	00112623          	sw	ra,12(sp)
	z_swap_unlocked();
80002d4c:	f79ff0ef          	jal	ra,80002cc4 <z_swap_unlocked>

80002d50 <z_early_memset>:
80002d50:	00308013          	addi	zero,ra,3
{
80002d54:	ff010113          	addi	sp,sp,-16
80002d58:	00112623          	sw	ra,12(sp)

__BEGIN_DECLS
__ssp_bos_icheck3_restrict(memcpy, void *, const void *)
__ssp_bos_icheck3(memmove, void *, const void *)
__ssp_bos_icheck3_restrict(mempcpy, void *, const void *)
__ssp_bos_icheck3(memset, void *, int)
80002d5c:	c9dfd0ef          	jal	ra,800009f8 <memset>
}
80002d60:	00c12083          	lw	ra,12(sp)
80002d64:	01010113          	addi	sp,sp,16
80002d68:	00008067          	ret

80002d6c <z_bss_zero>:
80002d6c:	00308013          	addi	zero,ra,3
{
80002d70:	ff010113          	addi	sp,sp,-16
80002d74:	00112623          	sw	ra,12(sp)
	z_early_memset(__bss_start, 0, __bss_end - __bss_start);
80002d78:	80007537          	lui	a0,0x80007
80002d7c:	df850613          	addi	a2,a0,-520 # 80006df8 <CONFIG_SYSTEM_WORKQUEUE_PRIORITY+0x80006df9>
80002d80:	800077b7          	lui	a5,0x80007
80002d84:	f7478793          	addi	a5,a5,-140 # 80006f74 <CONFIG_SYSTEM_WORKQUEUE_PRIORITY+0x80006f75>
80002d88:	40c78633          	sub	a2,a5,a2
80002d8c:	00000593          	li	a1,0
80002d90:	df850513          	addi	a0,a0,-520
80002d94:	fbdff0ef          	jal	ra,80002d50 <z_early_memset>
}
80002d98:	00c12083          	lw	ra,12(sp)
80002d9c:	01010113          	addi	sp,sp,16
80002da0:	00008067          	ret

80002da4 <z_init_cpu>:
80002da4:	00308013          	addi	zero,ra,3
{
80002da8:	ff010113          	addi	sp,sp,-16
80002dac:	00112623          	sw	ra,12(sp)
80002db0:	00812423          	sw	s0,8(sp)
80002db4:	00050413          	mv	s0,a0
	init_idle_thread(id);
80002db8:	e05ff0ef          	jal	ra,80002bbc <init_idle_thread>
	_kernel.cpus[id].idle_thread = &z_idle_threads[id];
80002dbc:	00441793          	slli	a5,s0,0x4
80002dc0:	008787b3          	add	a5,a5,s0
80002dc4:	00379793          	slli	a5,a5,0x3
80002dc8:	80007737          	lui	a4,0x80007
80002dcc:	e4070713          	addi	a4,a4,-448 # 80006e40 <CONFIG_SYSTEM_WORKQUEUE_PRIORITY+0x80006e41>
80002dd0:	00e787b3          	add	a5,a5,a4
80002dd4:	80007737          	lui	a4,0x80007
80002dd8:	f5070713          	addi	a4,a4,-176 # 80006f50 <CONFIG_SYSTEM_WORKQUEUE_PRIORITY+0x80006f51>
80002ddc:	00141693          	slli	a3,s0,0x1
80002de0:	00868633          	add	a2,a3,s0
80002de4:	00361613          	slli	a2,a2,0x3
80002de8:	00c70633          	add	a2,a4,a2
80002dec:	00f62623          	sw	a5,12(a2)
	_kernel.cpus[id].id = id;
80002df0:	00860a23          	sb	s0,20(a2)
		(Z_KERNEL_STACK_BUFFER(z_interrupt_stacks[id]) +
80002df4:	00c41793          	slli	a5,s0,0xc
80002df8:	80007637          	lui	a2,0x80007
80002dfc:	f8060613          	addi	a2,a2,-128 # 80006f80 <CONFIG_SYSTEM_WORKQUEUE_PRIORITY+0x80006f81>
80002e00:	00c787b3          	add	a5,a5,a2
80002e04:	00001637          	lui	a2,0x1
80002e08:	00c787b3          	add	a5,a5,a2
	_kernel.cpus[id].irq_stack =
80002e0c:	008686b3          	add	a3,a3,s0
80002e10:	00369693          	slli	a3,a3,0x3
80002e14:	00d70733          	add	a4,a4,a3
80002e18:	00f72223          	sw	a5,4(a4)
}
80002e1c:	00c12083          	lw	ra,12(sp)
80002e20:	00812403          	lw	s0,8(sp)
80002e24:	01010113          	addi	sp,sp,16
80002e28:	00008067          	ret

80002e2c <prepare_multithreading>:
80002e2c:	00308013          	addi	zero,ra,3
{
80002e30:	fe010113          	addi	sp,sp,-32
80002e34:	00112e23          	sw	ra,28(sp)
80002e38:	00812c23          	sw	s0,24(sp)
80002e3c:	00912a23          	sw	s1,20(sp)
80002e40:	01212823          	sw	s2,16(sp)
	z_sched_init();
80002e44:	4e8010ef          	jal	ra,8000432c <z_sched_init>
	_kernel.ready_q.cache = &z_main_thread;
80002e48:	800077b7          	lui	a5,0x80007
80002e4c:	800074b7          	lui	s1,0x80007
80002e50:	ec848913          	addi	s2,s1,-312 # 80006ec8 <CONFIG_SYSTEM_WORKQUEUE_PRIORITY+0x80006ec9>
80002e54:	f5078793          	addi	a5,a5,-176 # 80006f50 <CONFIG_SYSTEM_WORKQUEUE_PRIORITY+0x80006f51>
80002e58:	0127ac23          	sw	s2,24(a5)
	stack_ptr = z_setup_new_thread(&z_main_thread, z_main_stack,
80002e5c:	800077b7          	lui	a5,0x80007
80002e60:	bac78793          	addi	a5,a5,-1108 # 80006bac <CONFIG_SYSTEM_WORKQUEUE_PRIORITY+0x80006bad>
80002e64:	00f12223          	sw	a5,4(sp)
80002e68:	00100793          	li	a5,1
80002e6c:	00f12023          	sw	a5,0(sp)
80002e70:	00000893          	li	a7,0
80002e74:	00000813          	li	a6,0
80002e78:	00000793          	li	a5,0
80002e7c:	00000713          	li	a4,0
80002e80:	800036b7          	lui	a3,0x80003
80002e84:	c7068693          	addi	a3,a3,-912 # 80002c70 <CONFIG_SYSTEM_WORKQUEUE_PRIORITY+0x80002c71>
80002e88:	00001637          	lui	a2,0x1
80002e8c:	800085b7          	lui	a1,0x80008
80002e90:	38058593          	addi	a1,a1,896 # 80008380 <CONFIG_SYSTEM_WORKQUEUE_PRIORITY+0x80008381>
80002e94:	ec848513          	addi	a0,s1,-312
80002e98:	144000ef          	jal	ra,80002fdc <z_setup_new_thread>
80002e9c:	00050413          	mv	s0,a0
80002ea0:	00d94783          	lbu	a5,13(s2)
80002ea4:	ffb7f793          	andi	a5,a5,-5
80002ea8:	00f906a3          	sb	a5,13(s2)
	z_ready_thread(&z_main_thread);
80002eac:	ec848513          	addi	a0,s1,-312
80002eb0:	601000ef          	jal	ra,80003cb0 <z_ready_thread>
	z_init_cpu(0);
80002eb4:	00000513          	li	a0,0
80002eb8:	eedff0ef          	jal	ra,80002da4 <z_init_cpu>
}
80002ebc:	00040513          	mv	a0,s0
80002ec0:	01c12083          	lw	ra,28(sp)
80002ec4:	01812403          	lw	s0,24(sp)
80002ec8:	01412483          	lw	s1,20(sp)
80002ecc:	01012903          	lw	s2,16(sp)
80002ed0:	02010113          	addi	sp,sp,32
80002ed4:	00008067          	ret

80002ed8 <z_cstart>:
80002ed8:	00308013          	addi	zero,ra,3
{
80002edc:	f6010113          	addi	sp,sp,-160
80002ee0:	08112e23          	sw	ra,156(sp)
 *
 * The memory of the dummy thread can be completely uninitialized.
 */
static inline void z_dummy_thread_init(struct k_thread *dummy_thread)
{
	dummy_thread->base.thread_state = _THREAD_DUMMY;
80002ee4:	00100793          	li	a5,1
80002ee8:	00f10aa3          	sb	a5,21(sp)
#ifdef CONFIG_SCHED_CPU_MASK
	dummy_thread->base.cpu_mask = -1;
#endif
	dummy_thread->base.user_options = K_ESSENTIAL;
80002eec:	00f10a23          	sb	a5,20(sp)
	dummy_thread->mem_domain_info.mem_domain = &k_mem_domain_default;
#endif
#if (CONFIG_HEAP_MEM_POOL_SIZE > 0)
	k_thread_system_pool_assign(dummy_thread);
#else
	dummy_thread->resource_pool = NULL;
80002ef0:	08012423          	sw	zero,136(sp)

#ifdef CONFIG_TIMESLICE_PER_THREAD
	dummy_thread->base.slice_ticks = 0;
#endif

	_current_cpu->current = dummy_thread;
80002ef4:	800077b7          	lui	a5,0x80007
80002ef8:	f5078793          	addi	a5,a5,-176 # 80006f50 <CONFIG_SYSTEM_WORKQUEUE_PRIORITY+0x80006f51>
80002efc:	00810713          	addi	a4,sp,8
80002f00:	00e7a423          	sw	a4,8(a5)
	z_device_state_init();
80002f04:	b31ff0ef          	jal	ra,80002a34 <z_device_state_init>
	z_sys_init_run_level(_SYS_INIT_LEVEL_PRE_KERNEL_1);
80002f08:	00000513          	li	a0,0
80002f0c:	b4dff0ef          	jal	ra,80002a58 <z_sys_init_run_level>
	z_sys_init_run_level(_SYS_INIT_LEVEL_PRE_KERNEL_2);
80002f10:	00100513          	li	a0,1
80002f14:	b45ff0ef          	jal	ra,80002a58 <z_sys_init_run_level>
	switch_to_main_thread(prepare_multithreading());
80002f18:	f15ff0ef          	jal	ra,80002e2c <prepare_multithreading>
80002f1c:	e25ff0ef          	jal	ra,80002d40 <switch_to_main_thread>

80002f20 <setup_thread_stack>:
80002f20:	00308013          	addi	zero,ra,3
{
80002f24:	ff010113          	addi	sp,sp,-16
80002f28:	00112623          	sw	ra,12(sp)
80002f2c:	00812423          	sw	s0,8(sp)
80002f30:	00058513          	mv	a0,a1
		stack_obj_size = Z_KERNEL_STACK_SIZE_ADJUST(stack_size);
80002f34:	00f60613          	addi	a2,a2,15 # 100f <CONFIG_ISR_STACK_SIZE+0xf>
80002f38:	ff067613          	andi	a2,a2,-16
	stack_ptr = (char *)stack + stack_obj_size;
80002f3c:	00c58433          	add	s0,a1,a2
80002f40:	0aa00593          	li	a1,170
80002f44:	ab5fd0ef          	jal	ra,800009f8 <memset>
}
80002f48:	00040513          	mv	a0,s0
80002f4c:	00c12083          	lw	ra,12(sp)
80002f50:	00812403          	lw	s0,8(sp)
80002f54:	01010113          	addi	sp,sp,16
80002f58:	00008067          	ret

80002f5c <z_impl_k_thread_start>:
80002f5c:	00308013          	addi	zero,ra,3
{
80002f60:	ff010113          	addi	sp,sp,-16
80002f64:	00112623          	sw	ra,12(sp)
	z_sched_start(thread);
80002f68:	5a9000ef          	jal	ra,80003d10 <z_sched_start>
}
80002f6c:	00c12083          	lw	ra,12(sp)
80002f70:	01010113          	addi	sp,sp,16
80002f74:	00008067          	ret

80002f78 <schedule_new_thread>:
80002f78:	00308013          	addi	zero,ra,3
{
80002f7c:	ff010113          	addi	sp,sp,-16
80002f80:	00112623          	sw	ra,12(sp)
80002f84:	00060693          	mv	a3,a2
	if (K_TIMEOUT_EQ(delay, K_NO_WAIT)) {
80002f88:	00b667b3          	or	a5,a2,a1
80002f8c:	00079a63          	bnez	a5,80002fa0 <schedule_new_thread+0x28>
	z_impl_k_thread_start(thread);
80002f90:	fcdff0ef          	jal	ra,80002f5c <z_impl_k_thread_start>
}
80002f94:	00c12083          	lw	ra,12(sp)
80002f98:	01010113          	addi	sp,sp,16
80002f9c:	00008067          	ret
80002fa0:	00058613          	mv	a2,a1

extern void z_thread_timeout(struct _timeout *timeout);

static inline void z_add_thread_timeout(struct k_thread *thread, k_timeout_t ticks)
{
	z_add_timeout(&thread->base.timeout, z_thread_timeout, ticks);
80002fa4:	800045b7          	lui	a1,0x80004
80002fa8:	d6858593          	addi	a1,a1,-664 # 80003d68 <CONFIG_SYSTEM_WORKQUEUE_PRIORITY+0x80003d69>
80002fac:	01850513          	addi	a0,a0,24
80002fb0:	5f0010ef          	jal	ra,800045a0 <z_add_timeout>
80002fb4:	fe1ff06f          	j	80002f94 <schedule_new_thread+0x1c>

80002fb8 <z_init_thread_base>:
80002fb8:	00308013          	addi	zero,ra,3
	thread_base->pended_on = NULL;
80002fbc:	00052423          	sw	zero,8(a0)
	thread_base->user_options = (uint8_t)options;
80002fc0:	00d50623          	sb	a3,12(a0)
	thread_base->thread_state = (uint8_t)initial_state;
80002fc4:	00c506a3          	sb	a2,13(a0)
	thread_base->prio = priority;
80002fc8:	00b50723          	sb	a1,14(a0)
	thread_base->sched_locked = 0U;
80002fcc:	000507a3          	sb	zero,15(a0)
 * @param node the node
 */

static inline void sys_dnode_init(sys_dnode_t *node)
{
	node->next = NULL;
80002fd0:	00052c23          	sw	zero,24(a0)
	node->prev = NULL;
80002fd4:	00052e23          	sw	zero,28(a0)
}
80002fd8:	00008067          	ret

80002fdc <z_setup_new_thread>:
80002fdc:	00308013          	addi	zero,ra,3
{
80002fe0:	fe010113          	addi	sp,sp,-32
80002fe4:	00112e23          	sw	ra,28(sp)
80002fe8:	00812c23          	sw	s0,24(sp)
80002fec:	00912a23          	sw	s1,20(sp)
80002ff0:	01212823          	sw	s2,16(sp)
80002ff4:	01312623          	sw	s3,12(sp)
80002ff8:	01412423          	sw	s4,8(sp)
80002ffc:	01512223          	sw	s5,4(sp)
80003000:	01612023          	sw	s6,0(sp)
80003004:	00050413          	mv	s0,a0
80003008:	00058913          	mv	s2,a1
8000300c:	00060493          	mv	s1,a2
80003010:	00068993          	mv	s3,a3
80003014:	00070a13          	mv	s4,a4
80003018:	00078a93          	mv	s5,a5
8000301c:	00080b13          	mv	s6,a6
80003020:	00088593          	mv	a1,a7
	SYS_DLIST_FOR_EACH_CONTAINER(&((wq)->waitq), thread_ptr, \
				     base.qnode_dlist)

static inline void z_waitq_init(_wait_q_t *w)
{
	sys_dlist_init(&w->waitq);
80003024:	06c50793          	addi	a5,a0,108
	list->head = (sys_dnode_t *)list;
80003028:	06f52623          	sw	a5,108(a0)
	list->tail = (sys_dnode_t *)list;
8000302c:	06f52823          	sw	a5,112(a0)
	z_init_thread_base(&new_thread->base, prio, _THREAD_PRESTART, options);
80003030:	02012683          	lw	a3,32(sp)
80003034:	00400613          	li	a2,4
80003038:	f81ff0ef          	jal	ra,80002fb8 <z_init_thread_base>
	stack_ptr = setup_thread_stack(new_thread, stack, stack_size);
8000303c:	00048613          	mv	a2,s1
80003040:	00090593          	mv	a1,s2
80003044:	00040513          	mv	a0,s0
80003048:	ed9ff0ef          	jal	ra,80002f20 <setup_thread_stack>
8000304c:	00050493          	mv	s1,a0
	arch_new_thread(new_thread, stack, stack_ptr, entry, p1, p2, p3);
80003050:	000b0813          	mv	a6,s6
80003054:	000a8793          	mv	a5,s5
80003058:	000a0713          	mv	a4,s4
8000305c:	00098693          	mv	a3,s3
80003060:	00050613          	mv	a2,a0
80003064:	00090593          	mv	a1,s2
80003068:	00040513          	mv	a0,s0
8000306c:	e9dfe0ef          	jal	ra,80001f08 <arch_new_thread>
	new_thread->init_data = NULL;
80003070:	06042423          	sw	zero,104(s0)
	new_thread->resource_pool = _current->resource_pool;
80003074:	800077b7          	lui	a5,0x80007
80003078:	f5078793          	addi	a5,a5,-176 # 80006f50 <CONFIG_SYSTEM_WORKQUEUE_PRIORITY+0x80006f51>
8000307c:	0087a783          	lw	a5,8(a5)
80003080:	0807a783          	lw	a5,128(a5)
80003084:	08f42023          	sw	a5,128(s0)
}
80003088:	00048513          	mv	a0,s1
8000308c:	01c12083          	lw	ra,28(sp)
80003090:	01812403          	lw	s0,24(sp)
80003094:	01412483          	lw	s1,20(sp)
80003098:	01012903          	lw	s2,16(sp)
8000309c:	00c12983          	lw	s3,12(sp)
800030a0:	00812a03          	lw	s4,8(sp)
800030a4:	00412a83          	lw	s5,4(sp)
800030a8:	00012b03          	lw	s6,0(sp)
800030ac:	02010113          	addi	sp,sp,32
800030b0:	00008067          	ret

800030b4 <z_init_static_threads>:
800030b4:	00308013          	addi	zero,ra,3
{
800030b8:	fe010113          	addi	sp,sp,-32
800030bc:	00112e23          	sw	ra,28(sp)
800030c0:	00812c23          	sw	s0,24(sp)
800030c4:	00912a23          	sw	s1,20(sp)
	_FOREACH_STATIC_THREAD(thread_data) {
800030c8:	80006437          	lui	s0,0x80006
800030cc:	7ac40413          	addi	s0,s0,1964 # 800067ac <CONFIG_SYSTEM_WORKQUEUE_PRIORITY+0x800067ad>
800030d0:	0440006f          	j	80003114 <z_init_static_threads+0x60>
		z_setup_new_thread(
800030d4:	02c42783          	lw	a5,44(s0)
800030d8:	00f12223          	sw	a5,4(sp)
800030dc:	02042783          	lw	a5,32(s0)
800030e0:	00f12023          	sw	a5,0(sp)
800030e4:	01c42883          	lw	a7,28(s0)
800030e8:	01842803          	lw	a6,24(s0)
800030ec:	01442783          	lw	a5,20(s0)
800030f0:	01042703          	lw	a4,16(s0)
800030f4:	00c42683          	lw	a3,12(s0)
800030f8:	00842603          	lw	a2,8(s0)
800030fc:	00442583          	lw	a1,4(s0)
80003100:	00042503          	lw	a0,0(s0)
80003104:	ed9ff0ef          	jal	ra,80002fdc <z_setup_new_thread>
		thread_data->init_thread->init_data = thread_data;
80003108:	00042783          	lw	a5,0(s0)
8000310c:	0687a423          	sw	s0,104(a5)
	_FOREACH_STATIC_THREAD(thread_data) {
80003110:	03040413          	addi	s0,s0,48
80003114:	800067b7          	lui	a5,0x80006
80003118:	7ac78793          	addi	a5,a5,1964 # 800067ac <CONFIG_SYSTEM_WORKQUEUE_PRIORITY+0x800067ad>
8000311c:	faf46ce3          	bltu	s0,a5,800030d4 <z_init_static_threads+0x20>
	k_sched_lock();
80003120:	544000ef          	jal	ra,80003664 <k_sched_lock>
	_FOREACH_STATIC_THREAD(thread_data) {
80003124:	80006437          	lui	s0,0x80006
80003128:	7ac40413          	addi	s0,s0,1964 # 800067ac <CONFIG_SYSTEM_WORKQUEUE_PRIORITY+0x800067ad>
8000312c:	0440006f          	j	80003170 <z_init_static_threads+0xbc>
					    K_MSEC(thread_data->init_delay));
80003130:	41f7d593          	srai	a1,a5,0x1f
			/* Faster algorithm but source is first multiplied by target frequency
			 * and it can overflow even though final result would not overflow.
			 * Kconfig option shall prevent use of this algorithm when there is a
			 * risk of overflow.
			 */
			return ((t * to_hz + off) / from_hz);
80003134:	0197d713          	srli	a4,a5,0x19
80003138:	00759593          	slli	a1,a1,0x7
8000313c:	00b765b3          	or	a1,a4,a1
80003140:	00779793          	slli	a5,a5,0x7
80003144:	3e778513          	addi	a0,a5,999
80003148:	00f537b3          	sltu	a5,a0,a5
8000314c:	3e800613          	li	a2,1000
80003150:	00000693          	li	a3,0
80003154:	00b785b3          	add	a1,a5,a1
80003158:	88cfd0ef          	jal	ra,800001e4 <__udivdi3>
			schedule_new_thread(thread_data->init_thread,
8000315c:	00058613          	mv	a2,a1
80003160:	00050593          	mv	a1,a0
80003164:	00048513          	mv	a0,s1
80003168:	e11ff0ef          	jal	ra,80002f78 <schedule_new_thread>
	_FOREACH_STATIC_THREAD(thread_data) {
8000316c:	03040413          	addi	s0,s0,48
80003170:	800067b7          	lui	a5,0x80006
80003174:	7ac78793          	addi	a5,a5,1964 # 800067ac <CONFIG_SYSTEM_WORKQUEUE_PRIORITY+0x800067ad>
80003178:	02f47063          	bgeu	s0,a5,80003198 <z_init_static_threads+0xe4>
		if (thread_data->init_delay != K_TICKS_FOREVER) {
8000317c:	02442783          	lw	a5,36(s0)
80003180:	fff00713          	li	a4,-1
80003184:	fee784e3          	beq	a5,a4,8000316c <z_init_static_threads+0xb8>
			schedule_new_thread(thread_data->init_thread,
80003188:	00042483          	lw	s1,0(s0)
					    K_MSEC(thread_data->init_delay));
8000318c:	fa07d2e3          	bgez	a5,80003130 <z_init_static_threads+0x7c>
80003190:	00000793          	li	a5,0
80003194:	f9dff06f          	j	80003130 <z_init_static_threads+0x7c>
	k_sched_unlock();
80003198:	008010ef          	jal	ra,800041a0 <k_sched_unlock>
}
8000319c:	01c12083          	lw	ra,28(sp)
800031a0:	01812403          	lw	s0,24(sp)
800031a4:	01412483          	lw	s1,20(sp)
800031a8:	02010113          	addi	sp,sp,32
800031ac:	00008067          	ret

800031b0 <idle>:
800031b0:	00308013          	addi	zero,ra,3
{
800031b4:	ff010113          	addi	sp,sp,-16
800031b8:	00112623          	sw	ra,12(sp)
	__asm__ volatile ("csrrc %0, mstatus, %1"
800031bc:	300477f3          	csrrci	a5,mstatus,8
 * @note In some architectures, before returning, the function unmasks interrupts
 * unconditionally.
 */
static inline void k_cpu_idle(void)
{
	arch_cpu_idle();
800031c0:	af1fe0ef          	jal	ra,80001cb0 <arch_cpu_idle>
800031c4:	ff9ff06f          	j	800031bc <idle+0xc>

800031c8 <new_prio_for_inheritance>:
800031c8:	00308013          	addi	zero,ra,3
	int new_prio = z_is_prio_higher(target, limit) ? target : limit;
800031cc:	00b55463          	bge	a0,a1,800031d4 <new_prio_for_inheritance+0xc>
800031d0:	00050593          	mv	a1,a0
	return prio >= CONFIG_PRIORITY_CEILING;
}

static inline int z_get_new_prio_with_ceiling(int prio)
{
	return z_is_under_prio_ceiling(prio) ? prio : CONFIG_PRIORITY_CEILING;
800031d4:	f8100793          	li	a5,-127
800031d8:	00f5c663          	blt	a1,a5,800031e4 <new_prio_for_inheritance+0x1c>
800031dc:	00058513          	mv	a0,a1
800031e0:	00008067          	ret
800031e4:	f8100513          	li	a0,-127
}
800031e8:	00008067          	ret

800031ec <adjust_owner_prio>:
800031ec:	00308013          	addi	zero,ra,3
	if (mutex->owner->base.prio != new_prio) {
800031f0:	00852503          	lw	a0,8(a0)
800031f4:	00e50783          	lb	a5,14(a0)
800031f8:	00b79663          	bne	a5,a1,80003204 <adjust_owner_prio+0x18>
	return false;
800031fc:	00000513          	li	a0,0
}
80003200:	00008067          	ret
{
80003204:	ff010113          	addi	sp,sp,-16
80003208:	00112623          	sw	ra,12(sp)
		return z_set_prio(mutex->owner, new_prio);
8000320c:	645000ef          	jal	ra,80004050 <z_set_prio>
}
80003210:	00c12083          	lw	ra,12(sp)
80003214:	01010113          	addi	sp,sp,16
80003218:	00008067          	ret

8000321c <z_impl_k_mutex_init>:
8000321c:	00308013          	addi	zero,ra,3
	mutex->owner = NULL;
80003220:	00052423          	sw	zero,8(a0)
	mutex->lock_count = 0U;
80003224:	00052623          	sw	zero,12(a0)
	list->head = (sys_dnode_t *)list;
80003228:	00a52023          	sw	a0,0(a0)
	list->tail = (sys_dnode_t *)list;
8000322c:	00a52223          	sw	a0,4(a0)
}
80003230:	00000513          	li	a0,0
80003234:	00008067          	ret

80003238 <z_impl_k_mutex_lock>:
80003238:	00308013          	addi	zero,ra,3
{
8000323c:	fe010113          	addi	sp,sp,-32
80003240:	00112e23          	sw	ra,28(sp)
80003244:	00812c23          	sw	s0,24(sp)
80003248:	00912a23          	sw	s1,20(sp)
8000324c:	01212823          	sw	s2,16(sp)
80003250:	01312623          	sw	s3,12(sp)
80003254:	01412423          	sw	s4,8(sp)
80003258:	00050413          	mv	s0,a0
8000325c:	300474f3          	csrrci	s1,mstatus,8
	if (likely((mutex->lock_count == 0U) || (mutex->owner == _current))) {
80003260:	00c52783          	lw	a5,12(a0)
80003264:	06079063          	bnez	a5,800032c4 <z_impl_k_mutex_lock+0x8c>
					_current->base.prio :
80003268:	10079063          	bnez	a5,80003368 <z_impl_k_mutex_lock+0x130>
8000326c:	80007737          	lui	a4,0x80007
80003270:	f5070713          	addi	a4,a4,-176 # 80006f50 <CONFIG_SYSTEM_WORKQUEUE_PRIORITY+0x80006f51>
80003274:	00872703          	lw	a4,8(a4)
80003278:	00e70703          	lb	a4,14(a4)
		mutex->owner_orig_prio = (mutex->lock_count == 0U) ?
8000327c:	00e42823          	sw	a4,16(s0)
		mutex->lock_count++;
80003280:	00178793          	addi	a5,a5,1
80003284:	00f42623          	sw	a5,12(s0)
		mutex->owner = _current;
80003288:	800077b7          	lui	a5,0x80007
8000328c:	f5078793          	addi	a5,a5,-176 # 80006f50 <CONFIG_SYSTEM_WORKQUEUE_PRIORITY+0x80006f51>
80003290:	0087a783          	lw	a5,8(a5)
80003294:	00f42423          	sw	a5,8(s0)
	__asm__ volatile ("csrs mstatus, %0"
80003298:	0084f493          	andi	s1,s1,8
8000329c:	3004a073          	csrs	mstatus,s1
		return 0;
800032a0:	00000513          	li	a0,0
}
800032a4:	01c12083          	lw	ra,28(sp)
800032a8:	01812403          	lw	s0,24(sp)
800032ac:	01412483          	lw	s1,20(sp)
800032b0:	01012903          	lw	s2,16(sp)
800032b4:	00c12983          	lw	s3,12(sp)
800032b8:	00812a03          	lw	s4,8(sp)
800032bc:	02010113          	addi	sp,sp,32
800032c0:	00008067          	ret
800032c4:	00058993          	mv	s3,a1
800032c8:	00060913          	mv	s2,a2
	if (likely((mutex->lock_count == 0U) || (mutex->owner == _current))) {
800032cc:	00852683          	lw	a3,8(a0)
800032d0:	80007737          	lui	a4,0x80007
800032d4:	f5070713          	addi	a4,a4,-176 # 80006f50 <CONFIG_SYSTEM_WORKQUEUE_PRIORITY+0x80006f51>
800032d8:	00872703          	lw	a4,8(a4)
800032dc:	f8e686e3          	beq	a3,a4,80003268 <z_impl_k_mutex_lock+0x30>
	if (unlikely(K_TIMEOUT_EQ(timeout, K_NO_WAIT))) {
800032e0:	00b667b3          	or	a5,a2,a1
800032e4:	08078663          	beqz	a5,80003370 <z_impl_k_mutex_lock+0x138>
					    mutex->owner->base.prio);
800032e8:	00e68a03          	lb	s4,14(a3)
	new_prio = new_prio_for_inheritance(_current->base.prio,
800032ec:	000a0593          	mv	a1,s4
800032f0:	00e70503          	lb	a0,14(a4)
800032f4:	ed5ff0ef          	jal	ra,800031c8 <new_prio_for_inheritance>
	if (z_is_prio_higher(new_prio, mutex->owner->base.prio)) {
800032f8:	09454463          	blt	a0,s4,80003380 <z_impl_k_mutex_lock+0x148>
	bool resched = false;
800032fc:	00000a13          	li	s4,0
	int got_mutex = z_pend_curr(&lock, key, &mutex->wait_q, timeout);
80003300:	00098693          	mv	a3,s3
80003304:	00090713          	mv	a4,s2
80003308:	00040613          	mv	a2,s0
8000330c:	00048593          	mv	a1,s1
80003310:	80007537          	lui	a0,0x80007
80003314:	f7450513          	addi	a0,a0,-140 # 80006f74 <CONFIG_SYSTEM_WORKQUEUE_PRIORITY+0x80006f75>
80003318:	4e1000ef          	jal	ra,80003ff8 <z_pend_curr>
	if (got_mutex == 0) {
8000331c:	f80504e3          	beqz	a0,800032a4 <z_impl_k_mutex_lock+0x6c>
	__asm__ volatile ("csrrc %0, mstatus, %1"
80003320:	300474f3          	csrrci	s1,mstatus,8
	if (likely(mutex->owner != NULL)) {
80003324:	00842783          	lw	a5,8(s0)
80003328:	06078a63          	beqz	a5,8000339c <z_impl_k_mutex_lock+0x164>
 * @return true if empty, false otherwise
 */

static inline bool sys_dlist_is_empty(sys_dlist_t *list)
{
	return list->head == list;
8000332c:	00042783          	lw	a5,0(s0)
 * @return a pointer to the head element, NULL if list is empty
 */

static inline sys_dnode_t *sys_dlist_peek_head(sys_dlist_t *list)
{
	return sys_dlist_is_empty(list) ? NULL : list->head;
80003330:	06878263          	beq	a5,s0,80003394 <z_impl_k_mutex_lock+0x15c>
			new_prio_for_inheritance(waiter->base.prio, mutex->owner_orig_prio) :
80003334:	06078063          	beqz	a5,80003394 <z_impl_k_mutex_lock+0x15c>
80003338:	01042583          	lw	a1,16(s0)
8000333c:	00e78503          	lb	a0,14(a5)
80003340:	e89ff0ef          	jal	ra,800031c8 <new_prio_for_inheritance>
80003344:	00050593          	mv	a1,a0
		resched = adjust_owner_prio(mutex, new_prio) || resched;
80003348:	00040513          	mv	a0,s0
8000334c:	ea1ff0ef          	jal	ra,800031ec <adjust_owner_prio>
80003350:	04051863          	bnez	a0,800033a0 <z_impl_k_mutex_lock+0x168>
80003354:	040a1663          	bnez	s4,800033a0 <z_impl_k_mutex_lock+0x168>
	__asm__ volatile ("csrs mstatus, %0"
80003358:	0084f493          	andi	s1,s1,8
8000335c:	3004a073          	csrs	mstatus,s1
	return -EAGAIN;
80003360:	ff500513          	li	a0,-11
80003364:	f41ff06f          	j	800032a4 <z_impl_k_mutex_lock+0x6c>
					_current->base.prio :
80003368:	01042703          	lw	a4,16(s0)
8000336c:	f11ff06f          	j	8000327c <z_impl_k_mutex_lock+0x44>
80003370:	0084f493          	andi	s1,s1,8
80003374:	3004a073          	csrs	mstatus,s1
		return -EBUSY;
80003378:	ff000513          	li	a0,-16
8000337c:	f29ff06f          	j	800032a4 <z_impl_k_mutex_lock+0x6c>
		resched = adjust_owner_prio(mutex, new_prio);
80003380:	00050593          	mv	a1,a0
80003384:	00040513          	mv	a0,s0
80003388:	e65ff0ef          	jal	ra,800031ec <adjust_owner_prio>
8000338c:	00050a13          	mv	s4,a0
80003390:	f71ff06f          	j	80003300 <z_impl_k_mutex_lock+0xc8>
			new_prio_for_inheritance(waiter->base.prio, mutex->owner_orig_prio) :
80003394:	01042583          	lw	a1,16(s0)
80003398:	fb1ff06f          	j	80003348 <z_impl_k_mutex_lock+0x110>
	if (resched) {
8000339c:	fa0a0ee3          	beqz	s4,80003358 <z_impl_k_mutex_lock+0x120>
		z_reschedule(&lock, key);
800033a0:	00048593          	mv	a1,s1
800033a4:	80007537          	lui	a0,0x80007
800033a8:	f7450513          	addi	a0,a0,-140 # 80006f74 <CONFIG_SYSTEM_WORKQUEUE_PRIORITY+0x80006f75>
800033ac:	464000ef          	jal	ra,80003810 <z_reschedule>
	return -EAGAIN;
800033b0:	ff500513          	li	a0,-11
800033b4:	ef1ff06f          	j	800032a4 <z_impl_k_mutex_lock+0x6c>

800033b8 <z_impl_k_mutex_unlock>:
800033b8:	00308013          	addi	zero,ra,3
	CHECKIF(mutex->owner == NULL) {
800033bc:	00852703          	lw	a4,8(a0)
800033c0:	0a070663          	beqz	a4,8000346c <z_impl_k_mutex_unlock+0xb4>
{
800033c4:	ff010113          	addi	sp,sp,-16
800033c8:	00112623          	sw	ra,12(sp)
800033cc:	00812423          	sw	s0,8(sp)
800033d0:	00912223          	sw	s1,4(sp)
800033d4:	00050413          	mv	s0,a0
	CHECKIF(mutex->owner != _current) {
800033d8:	800077b7          	lui	a5,0x80007
800033dc:	f5078793          	addi	a5,a5,-176 # 80006f50 <CONFIG_SYSTEM_WORKQUEUE_PRIORITY+0x80006f51>
800033e0:	0087a783          	lw	a5,8(a5)
800033e4:	08f71863          	bne	a4,a5,80003474 <z_impl_k_mutex_unlock+0xbc>
	if (mutex->lock_count > 1U) {
800033e8:	00c52783          	lw	a5,12(a0)
800033ec:	00100713          	li	a4,1
800033f0:	02f77263          	bgeu	a4,a5,80003414 <z_impl_k_mutex_unlock+0x5c>
		mutex->lock_count--;
800033f4:	fff78793          	addi	a5,a5,-1
800033f8:	00f52623          	sw	a5,12(a0)
	return 0;
800033fc:	00000513          	li	a0,0
}
80003400:	00c12083          	lw	ra,12(sp)
80003404:	00812403          	lw	s0,8(sp)
80003408:	00412483          	lw	s1,4(sp)
8000340c:	01010113          	addi	sp,sp,16
80003410:	00008067          	ret
	__asm__ volatile ("csrrc %0, mstatus, %1"
80003414:	300474f3          	csrrci	s1,mstatus,8
	adjust_owner_prio(mutex, mutex->owner_orig_prio);
80003418:	01052583          	lw	a1,16(a0)
8000341c:	dd1ff0ef          	jal	ra,800031ec <adjust_owner_prio>
	new_owner = z_unpend_first_thread(&mutex->wait_q);
80003420:	00040513          	mv	a0,s0
80003424:	67d000ef          	jal	ra,800042a0 <z_unpend_first_thread>
	mutex->owner = new_owner;
80003428:	00a42423          	sw	a0,8(s0)
	if (new_owner != NULL) {
8000342c:	02050663          	beqz	a0,80003458 <z_impl_k_mutex_unlock+0xa0>
		mutex->owner_orig_prio = new_owner->base.prio;
80003430:	00e50783          	lb	a5,14(a0)
80003434:	00f42823          	sw	a5,16(s0)
 * z_swap() is in use it's a simple inline provided by the kernel.
 */
static ALWAYS_INLINE void
arch_thread_return_value_set(struct k_thread *thread, unsigned int value)
{
	thread->swap_retval = value;
80003438:	06052c23          	sw	zero,120(a0)
		z_ready_thread(new_owner);
8000343c:	075000ef          	jal	ra,80003cb0 <z_ready_thread>
		z_reschedule(&lock, key);
80003440:	00048593          	mv	a1,s1
80003444:	80007537          	lui	a0,0x80007
80003448:	f7450513          	addi	a0,a0,-140 # 80006f74 <CONFIG_SYSTEM_WORKQUEUE_PRIORITY+0x80006f75>
8000344c:	3c4000ef          	jal	ra,80003810 <z_reschedule>
	return 0;
80003450:	00000513          	li	a0,0
80003454:	fadff06f          	j	80003400 <z_impl_k_mutex_unlock+0x48>
		mutex->lock_count = 0U;
80003458:	00042623          	sw	zero,12(s0)
	__asm__ volatile ("csrs mstatus, %0"
8000345c:	0084f493          	andi	s1,s1,8
80003460:	3004a073          	csrs	mstatus,s1
	return 0;
80003464:	00000513          	li	a0,0
80003468:	f99ff06f          	j	80003400 <z_impl_k_mutex_unlock+0x48>
		return -EINVAL;
8000346c:	fea00513          	li	a0,-22
}
80003470:	00008067          	ret
		return -EPERM;
80003474:	fff00513          	li	a0,-1
80003478:	f89ff06f          	j	80003400 <z_impl_k_mutex_unlock+0x48>

8000347c <sliceable>:
8000347c:	00308013          	addi	zero,ra,3
	return thread->base.preempt <= _PREEMPT_THRESHOLD;
80003480:	00e55703          	lhu	a4,14(a0)
		&& !z_is_idle_thread_object(thread);
80003484:	07f00793          	li	a5,127
80003488:	02e7ea63          	bltu	a5,a4,800034bc <sliceable+0x40>
	uint8_t state = thread->base.thread_state;
8000348c:	00d54783          	lbu	a5,13(a0)
		&& !z_is_thread_prevented_from_running(thread)
80003490:	01f7f793          	andi	a5,a5,31
80003494:	02079863          	bnez	a5,800034c4 <sliceable+0x48>
		&& !z_is_prio_higher(thread->base.prio, slice_max_prio)
80003498:	00e50703          	lb	a4,14(a0)
8000349c:	800077b7          	lui	a5,0x80007
800034a0:	e207a783          	lw	a5,-480(a5) # 80006e20 <CONFIG_SYSTEM_WORKQUEUE_PRIORITY+0x80006e21>
800034a4:	02f74463          	blt	a4,a5,800034cc <sliceable+0x50>
		&& !z_is_idle_thread_object(thread);
800034a8:	800077b7          	lui	a5,0x80007
800034ac:	e4078793          	addi	a5,a5,-448 # 80006e40 <CONFIG_SYSTEM_WORKQUEUE_PRIORITY+0x80006e41>
800034b0:	02f50263          	beq	a0,a5,800034d4 <sliceable+0x58>
800034b4:	00100513          	li	a0,1
800034b8:	00008067          	ret
800034bc:	00000513          	li	a0,0
800034c0:	00008067          	ret
800034c4:	00000513          	li	a0,0
800034c8:	00008067          	ret
800034cc:	00000513          	li	a0,0
800034d0:	00008067          	ret
800034d4:	00000513          	li	a0,0
}
800034d8:	00008067          	ret

800034dc <thread_active_elsewhere>:
800034dc:	00308013          	addi	zero,ra,3
}
800034e0:	00000513          	li	a0,0
800034e4:	00008067          	ret

800034e8 <pended_on_thread>:
800034e8:	00308013          	addi	zero,ra,3
}
800034ec:	00852503          	lw	a0,8(a0)
800034f0:	00008067          	ret

800034f4 <add_thread_timeout>:
800034f4:	00308013          	addi	zero,ra,3
{
800034f8:	00060693          	mv	a3,a2
	if (!K_TIMEOUT_EQ(timeout, K_FOREVER)) {
800034fc:	fff00793          	li	a5,-1
80003500:	00b79663          	bne	a5,a1,8000350c <add_thread_timeout+0x18>
80003504:	00f61463          	bne	a2,a5,8000350c <add_thread_timeout+0x18>
80003508:	00008067          	ret
{
8000350c:	ff010113          	addi	sp,sp,-16
80003510:	00112623          	sw	ra,12(sp)
80003514:	00058613          	mv	a2,a1
80003518:	800045b7          	lui	a1,0x80004
8000351c:	d6858593          	addi	a1,a1,-664 # 80003d68 <CONFIG_SYSTEM_WORKQUEUE_PRIORITY+0x80003d69>
80003520:	01850513          	addi	a0,a0,24
80003524:	07c010ef          	jal	ra,800045a0 <z_add_timeout>
}
80003528:	00c12083          	lw	ra,12(sp)
8000352c:	01010113          	addi	sp,sp,16
80003530:	00008067          	ret

80003534 <z_sched_prio_cmp>:
80003534:	00308013          	addi	zero,ra,3
	int32_t b1 = thread_1->base.prio;
80003538:	00e50783          	lb	a5,14(a0)
	int32_t b2 = thread_2->base.prio;
8000353c:	00e58503          	lb	a0,14(a1)
	if (b1 != b2) {
80003540:	00a78663          	beq	a5,a0,8000354c <z_sched_prio_cmp+0x18>
		return b2 - b1;
80003544:	40f50533          	sub	a0,a0,a5
80003548:	00008067          	ret
	return 0;
8000354c:	00000513          	li	a0,0
}
80003550:	00008067          	ret

80003554 <z_reset_time_slice>:
80003554:	00308013          	addi	zero,ra,3
{
80003558:	ff010113          	addi	sp,sp,-16
8000355c:	00112623          	sw	ra,12(sp)
80003560:	00812423          	sw	s0,8(sp)
	int ret = slice_ticks;
80003564:	800077b7          	lui	a5,0x80007
80003568:	e247a403          	lw	s0,-476(a5) # 80006e24 <CONFIG_SYSTEM_WORKQUEUE_PRIORITY+0x80006e25>
	if (slice_time(curr) != 0) {
8000356c:	00041a63          	bnez	s0,80003580 <z_reset_time_slice+0x2c>
}
80003570:	00c12083          	lw	ra,12(sp)
80003574:	00812403          	lw	s0,8(sp)
80003578:	01010113          	addi	sp,sp,16
8000357c:	00008067          	ret
		_current_cpu->slice_ticks = slice_time(curr) + sys_clock_elapsed();
80003580:	c74ff0ef          	jal	ra,800029f4 <sys_clock_elapsed>
80003584:	00a40433          	add	s0,s0,a0
80003588:	800077b7          	lui	a5,0x80007
8000358c:	f5078793          	addi	a5,a5,-176 # 80006f50 <CONFIG_SYSTEM_WORKQUEUE_PRIORITY+0x80006f51>
80003590:	0087a823          	sw	s0,16(a5)
		z_set_timeout_expiry(slice_time(curr), false);
80003594:	00000593          	li	a1,0
80003598:	800077b7          	lui	a5,0x80007
8000359c:	e247a503          	lw	a0,-476(a5) # 80006e24 <CONFIG_SYSTEM_WORKQUEUE_PRIORITY+0x80006e25>
800035a0:	23c010ef          	jal	ra,800047dc <z_set_timeout_expiry>
}
800035a4:	fcdff06f          	j	80003570 <z_reset_time_slice+0x1c>

800035a8 <k_sched_time_slice_set>:
800035a8:	00308013          	addi	zero,ra,3
{
800035ac:	ff010113          	addi	sp,sp,-16
800035b0:	00112623          	sw	ra,12(sp)
800035b4:	00812423          	sw	s0,8(sp)
800035b8:	00912223          	sw	s1,4(sp)
800035bc:	01212023          	sw	s2,0(sp)
800035c0:	00050413          	mv	s0,a0
800035c4:	00058493          	mv	s1,a1
	LOCKED(&sched_spinlock) {
800035c8:	00000793          	li	a5,0
	__asm__ volatile ("csrrc %0, mstatus, %1"
800035cc:	30047973          	csrrci	s2,mstatus,8
#endif

#ifdef CONFIG_SPIN_VALIDATE
	z_spin_lock_set_owner(l);
#endif
	return k;
800035d0:	0300006f          	j	80003600 <k_sched_time_slice_set+0x58>
			slice_ticks = MAX(2, slice_ticks);
800035d4:	800077b7          	lui	a5,0x80007
800035d8:	e2a7a223          	sw	a0,-476(a5) # 80006e24 <CONFIG_SYSTEM_WORKQUEUE_PRIORITY+0x80006e25>
		slice_max_prio = prio;
800035dc:	800077b7          	lui	a5,0x80007
800035e0:	e297a023          	sw	s1,-480(a5) # 80006e20 <CONFIG_SYSTEM_WORKQUEUE_PRIORITY+0x80006e21>
		z_reset_time_slice(_current);
800035e4:	800077b7          	lui	a5,0x80007
800035e8:	f5078793          	addi	a5,a5,-176 # 80006f50 <CONFIG_SYSTEM_WORKQUEUE_PRIORITY+0x80006f51>
800035ec:	0087a503          	lw	a0,8(a5)
800035f0:	f65ff0ef          	jal	ra,80003554 <z_reset_time_slice>
			  : "r" (key & MSTATUS_IEN)
800035f4:	00897793          	andi	a5,s2,8
	__asm__ volatile ("csrs mstatus, %0"
800035f8:	3007a073          	csrs	mstatus,a5
	LOCKED(&sched_spinlock) {
800035fc:	00100793          	li	a5,1
80003600:	04079663          	bnez	a5,8000364c <k_sched_time_slice_set+0xa4>
		_current_cpu->slice_ticks = 0;
80003604:	800077b7          	lui	a5,0x80007
80003608:	f5078793          	addi	a5,a5,-176 # 80006f50 <CONFIG_SYSTEM_WORKQUEUE_PRIORITY+0x80006f51>
8000360c:	0007a823          	sw	zero,16(a5)
			return (uint32_t)((t * to_hz + off) / from_hz);
80003610:	01945593          	srli	a1,s0,0x19
80003614:	00741793          	slli	a5,s0,0x7
80003618:	3e778513          	addi	a0,a5,999
8000361c:	00f537b3          	sltu	a5,a0,a5
80003620:	3e800613          	li	a2,1000
80003624:	00000693          	li	a3,0
80003628:	00b785b3          	add	a1,a5,a1
8000362c:	bb9fc0ef          	jal	ra,800001e4 <__udivdi3>
		slice_ticks = k_ms_to_ticks_ceil32(slice);
80003630:	800077b7          	lui	a5,0x80007
80003634:	e2a7a223          	sw	a0,-476(a5) # 80006e24 <CONFIG_SYSTEM_WORKQUEUE_PRIORITY+0x80006e25>
		if (IS_ENABLED(CONFIG_TICKLESS_KERNEL) && slice > 0) {
80003638:	fa8052e3          	blez	s0,800035dc <k_sched_time_slice_set+0x34>
			slice_ticks = MAX(2, slice_ticks);
8000363c:	00200793          	li	a5,2
80003640:	f8f55ae3          	bge	a0,a5,800035d4 <k_sched_time_slice_set+0x2c>
80003644:	00200513          	li	a0,2
80003648:	f8dff06f          	j	800035d4 <k_sched_time_slice_set+0x2c>
}
8000364c:	00c12083          	lw	ra,12(sp)
80003650:	00812403          	lw	s0,8(sp)
80003654:	00412483          	lw	s1,4(sp)
80003658:	00012903          	lw	s2,0(sp)
8000365c:	01010113          	addi	sp,sp,16
80003660:	00008067          	ret

80003664 <k_sched_lock>:
80003664:	00308013          	addi	zero,ra,3
	LOCKED(&sched_spinlock) {
80003668:	00000793          	li	a5,0
	__asm__ volatile ("csrrc %0, mstatus, %1"
8000366c:	300476f3          	csrrci	a3,mstatus,8
80003670:	0280006f          	j	80003698 <k_sched_lock+0x34>
static inline void z_sched_lock(void)
{
	__ASSERT(!arch_is_in_isr(), "");
	__ASSERT(_current->base.sched_locked != 1U, "");

	--_current->base.sched_locked;
80003674:	800077b7          	lui	a5,0x80007
80003678:	f5078793          	addi	a5,a5,-176 # 80006f50 <CONFIG_SYSTEM_WORKQUEUE_PRIORITY+0x80006f51>
8000367c:	0087a703          	lw	a4,8(a5)
80003680:	00f74783          	lbu	a5,15(a4)
80003684:	fff78793          	addi	a5,a5,-1
80003688:	00f707a3          	sb	a5,15(a4)
			  : "r" (key & MSTATUS_IEN)
8000368c:	0086f793          	andi	a5,a3,8
	__asm__ volatile ("csrs mstatus, %0"
80003690:	3007a073          	csrs	mstatus,a5
80003694:	00100793          	li	a5,1
80003698:	fc078ee3          	beqz	a5,80003674 <k_sched_lock+0x10>
}
8000369c:	00008067          	ret

800036a0 <z_swap_next_thread>:
800036a0:	00308013          	addi	zero,ra,3
	return _kernel.ready_q.cache;
800036a4:	800077b7          	lui	a5,0x80007
}
800036a8:	f5078793          	addi	a5,a5,-176 # 80006f50 <CONFIG_SYSTEM_WORKQUEUE_PRIORITY+0x80006f51>
800036ac:	0187a503          	lw	a0,24(a5)
800036b0:	00008067          	ret

800036b4 <z_swap_irqlock>:
800036b4:	00308013          	addi	zero,ra,3
{
800036b8:	ff010113          	addi	sp,sp,-16
800036bc:	00112623          	sw	ra,12(sp)
800036c0:	00812423          	sw	s0,8(sp)
800036c4:	00912223          	sw	s1,4(sp)
800036c8:	01212023          	sw	s2,0(sp)
800036cc:	00050413          	mv	s0,a0
	old_thread = _current;
800036d0:	800077b7          	lui	a5,0x80007
800036d4:	f5078793          	addi	a5,a5,-176 # 80006f50 <CONFIG_SYSTEM_WORKQUEUE_PRIORITY+0x80006f51>
800036d8:	0087a903          	lw	s2,8(a5)
	old_thread->swap_retval = -EAGAIN;
800036dc:	ff500793          	li	a5,-11
800036e0:	06f92c23          	sw	a5,120(s2)
	__asm__ volatile ("csrrc %0, mstatus, %1"
800036e4:	300477f3          	csrrci	a5,mstatus,8
	new_thread = z_swap_next_thread();
800036e8:	fb9ff0ef          	jal	ra,800036a0 <z_swap_next_thread>
	if (new_thread != old_thread) {
800036ec:	02a90263          	beq	s2,a0,80003710 <z_swap_irqlock+0x5c>
800036f0:	00050493          	mv	s1,a0
		_current_cpu->current = new_thread;
800036f4:	800077b7          	lui	a5,0x80007
800036f8:	f5078793          	addi	a5,a5,-176 # 80006f50 <CONFIG_SYSTEM_WORKQUEUE_PRIORITY+0x80006f51>
800036fc:	00a7a423          	sw	a0,8(a5)
		z_reset_time_slice(new_thread);
80003700:	e55ff0ef          	jal	ra,80003554 <z_reset_time_slice>
80003704:	00090593          	mv	a1,s2
80003708:	07c4a503          	lw	a0,124(s1)
8000370c:	f50fe0ef          	jal	ra,80001e5c <z_riscv_switch>
			  : "r" (key & MSTATUS_IEN)
80003710:	00847413          	andi	s0,s0,8
	__asm__ volatile ("csrs mstatus, %0"
80003714:	30042073          	csrs	mstatus,s0
	return _current->swap_retval;
80003718:	800077b7          	lui	a5,0x80007
8000371c:	f5078793          	addi	a5,a5,-176 # 80006f50 <CONFIG_SYSTEM_WORKQUEUE_PRIORITY+0x80006f51>
80003720:	0087a783          	lw	a5,8(a5)
}
80003724:	0787a503          	lw	a0,120(a5)
80003728:	00c12083          	lw	ra,12(sp)
8000372c:	00812403          	lw	s0,8(sp)
80003730:	00412483          	lw	s1,4(sp)
80003734:	00012903          	lw	s2,0(sp)
80003738:	01010113          	addi	sp,sp,16
8000373c:	00008067          	ret

80003740 <z_reschedule_irqlock>:
80003740:	00308013          	addi	zero,ra,3
			  : "memory");
}

static ALWAYS_INLINE bool arch_irq_unlocked(unsigned int key)
{
	return (key & MSTATUS_IEN) != 0;
80003744:	00857793          	andi	a5,a0,8
	return arch_irq_unlocked(key) && !arch_is_in_isr();
80003748:	02078463          	beqz	a5,80003770 <z_reschedule_irqlock+0x30>
	bool ret = arch_curr_cpu()->nested != 0U;

	arch_irq_unlock(key);
	return ret;
#else
	return _kernel.cpus[0].nested != 0U;
8000374c:	80007737          	lui	a4,0x80007
80003750:	f5072703          	lw	a4,-176(a4) # 80006f50 <CONFIG_SYSTEM_WORKQUEUE_PRIORITY+0x80006f51>
80003754:	00071e63          	bnez	a4,80003770 <z_reschedule_irqlock+0x30>
{
80003758:	ff010113          	addi	sp,sp,-16
8000375c:	00112623          	sw	ra,12(sp)
		z_swap_irqlock(key);
80003760:	f55ff0ef          	jal	ra,800036b4 <z_swap_irqlock>
}
80003764:	00c12083          	lw	ra,12(sp)
80003768:	01010113          	addi	sp,sp,16
8000376c:	00008067          	ret
	__asm__ volatile ("csrs mstatus, %0"
80003770:	3007a073          	csrs	mstatus,a5
		signal_pending_ipi();
80003774:	00008067          	ret

80003778 <z_swap>:
80003778:	00308013          	addi	zero,ra,3
{
8000377c:	ff010113          	addi	sp,sp,-16
80003780:	00112623          	sw	ra,12(sp)
80003784:	00812423          	sw	s0,8(sp)
80003788:	00912223          	sw	s1,4(sp)
8000378c:	01212023          	sw	s2,0(sp)
80003790:	00058413          	mv	s0,a1
	old_thread = _current;
80003794:	800077b7          	lui	a5,0x80007
80003798:	f5078793          	addi	a5,a5,-176 # 80006f50 <CONFIG_SYSTEM_WORKQUEUE_PRIORITY+0x80006f51>
8000379c:	0087a903          	lw	s2,8(a5)
	old_thread->swap_retval = -EAGAIN;
800037a0:	ff500793          	li	a5,-11
800037a4:	06f92c23          	sw	a5,120(s2)
	if (!is_spinlock || lock != &sched_spinlock) {
800037a8:	800077b7          	lui	a5,0x80007
800037ac:	f7478793          	addi	a5,a5,-140 # 80006f74 <CONFIG_SYSTEM_WORKQUEUE_PRIORITY+0x80006f75>
800037b0:	00a78463          	beq	a5,a0,800037b8 <z_swap+0x40>
	__asm__ volatile ("csrrc %0, mstatus, %1"
800037b4:	300477f3          	csrrci	a5,mstatus,8
	new_thread = z_swap_next_thread();
800037b8:	ee9ff0ef          	jal	ra,800036a0 <z_swap_next_thread>
800037bc:	00050493          	mv	s1,a0
	if (new_thread != old_thread) {
800037c0:	02a90063          	beq	s2,a0,800037e0 <z_swap+0x68>
		_current_cpu->current = new_thread;
800037c4:	800077b7          	lui	a5,0x80007
800037c8:	f5078793          	addi	a5,a5,-176 # 80006f50 <CONFIG_SYSTEM_WORKQUEUE_PRIORITY+0x80006f51>
800037cc:	00a7a423          	sw	a0,8(a5)
		z_reset_time_slice(new_thread);
800037d0:	d85ff0ef          	jal	ra,80003554 <z_reset_time_slice>
	z_riscv_switch(new, old);
800037d4:	00090593          	mv	a1,s2
800037d8:	07c4a503          	lw	a0,124(s1)
800037dc:	e80fe0ef          	jal	ra,80001e5c <z_riscv_switch>
			  : "r" (key & MSTATUS_IEN)
800037e0:	00847413          	andi	s0,s0,8
	__asm__ volatile ("csrs mstatus, %0"
800037e4:	30042073          	csrs	mstatus,s0
	return _current->swap_retval;
800037e8:	800077b7          	lui	a5,0x80007
800037ec:	f5078793          	addi	a5,a5,-176 # 80006f50 <CONFIG_SYSTEM_WORKQUEUE_PRIORITY+0x80006f51>
800037f0:	0087a783          	lw	a5,8(a5)
}
800037f4:	0787a503          	lw	a0,120(a5)
800037f8:	00c12083          	lw	ra,12(sp)
800037fc:	00812403          	lw	s0,8(sp)
80003800:	00412483          	lw	s1,4(sp)
80003804:	00012903          	lw	s2,0(sp)
80003808:	01010113          	addi	sp,sp,16
8000380c:	00008067          	ret

80003810 <z_reschedule>:
80003810:	00308013          	addi	zero,ra,3
	return (key & MSTATUS_IEN) != 0;
80003814:	0085f793          	andi	a5,a1,8
	return arch_irq_unlocked(key) && !arch_is_in_isr();
80003818:	02078e63          	beqz	a5,80003854 <z_reschedule+0x44>
	return _kernel.cpus[0].nested != 0U;
8000381c:	80007737          	lui	a4,0x80007
80003820:	f5072703          	lw	a4,-176(a4) # 80006f50 <CONFIG_SYSTEM_WORKQUEUE_PRIORITY+0x80006f51>
80003824:	02071863          	bnez	a4,80003854 <z_reschedule+0x44>
	new_thread = _kernel.ready_q.cache;
80003828:	80007737          	lui	a4,0x80007
8000382c:	f5070713          	addi	a4,a4,-176 # 80006f50 <CONFIG_SYSTEM_WORKQUEUE_PRIORITY+0x80006f51>
80003830:	01872683          	lw	a3,24(a4)
	return new_thread != _current;
80003834:	00872703          	lw	a4,8(a4)
	if (resched(key.key) && need_swap()) {
80003838:	00e68e63          	beq	a3,a4,80003854 <z_reschedule+0x44>
{
8000383c:	ff010113          	addi	sp,sp,-16
80003840:	00112623          	sw	ra,12(sp)
		z_swap(lock, key);
80003844:	f35ff0ef          	jal	ra,80003778 <z_swap>
}
80003848:	00c12083          	lw	ra,12(sp)
8000384c:	01010113          	addi	sp,sp,16
80003850:	00008067          	ret
	__asm__ volatile ("csrs mstatus, %0"
80003854:	3007a073          	csrs	mstatus,a5
		signal_pending_ipi();
80003858:	00008067          	ret

8000385c <z_get_next_switch_handle>:
8000385c:	00308013          	addi	zero,ra,3
	z_sched_usage_switch(_kernel.ready_q.cache);
80003860:	800077b7          	lui	a5,0x80007
80003864:	f5078793          	addi	a5,a5,-176 # 80006f50 <CONFIG_SYSTEM_WORKQUEUE_PRIORITY+0x80006f51>
80003868:	0187a703          	lw	a4,24(a5)
	_current->switch_handle = interrupted;
8000386c:	0087a683          	lw	a3,8(a5)
80003870:	06a6ae23          	sw	a0,124(a3)
	_current_cpu->current = new_thread;
80003874:	00e7a423          	sw	a4,8(a5)
}
80003878:	07c72503          	lw	a0,124(a4)
8000387c:	00008067          	ret

80003880 <z_priq_dumb_remove>:
80003880:	00308013          	addi	zero,ra,3
 * @param node the node to remove
 */

static inline void sys_dlist_remove(sys_dnode_t *node)
{
	sys_dnode_t *const prev = node->prev;
80003884:	0045a703          	lw	a4,4(a1)
	sys_dnode_t *const next = node->next;
80003888:	0005a783          	lw	a5,0(a1)

	prev->next = next;
8000388c:	00f72023          	sw	a5,0(a4)
	next->prev = prev;
80003890:	00e7a223          	sw	a4,4(a5)
	node->next = NULL;
80003894:	0005a023          	sw	zero,0(a1)
	node->prev = NULL;
80003898:	0005a223          	sw	zero,4(a1)
}
8000389c:	00008067          	ret

800038a0 <unpend_thread_no_timeout>:
800038a0:	00308013          	addi	zero,ra,3
{
800038a4:	ff010113          	addi	sp,sp,-16
800038a8:	00112623          	sw	ra,12(sp)
800038ac:	00812423          	sw	s0,8(sp)
800038b0:	00050413          	mv	s0,a0
	_priq_wait_remove(&pended_on_thread(thread)->waitq, thread);
800038b4:	c35ff0ef          	jal	ra,800034e8 <pended_on_thread>
800038b8:	00040593          	mv	a1,s0
800038bc:	fc5ff0ef          	jal	ra,80003880 <z_priq_dumb_remove>
	thread->base.thread_state &= ~_THREAD_PENDING;
800038c0:	00d44783          	lbu	a5,13(s0)
800038c4:	ffd7f793          	andi	a5,a5,-3
800038c8:	00f406a3          	sb	a5,13(s0)
	thread->base.pended_on = NULL;
800038cc:	00042423          	sw	zero,8(s0)
}
800038d0:	00c12083          	lw	ra,12(sp)
800038d4:	00812403          	lw	s0,8(sp)
800038d8:	01010113          	addi	sp,sp,16
800038dc:	00008067          	ret

800038e0 <z_priq_dumb_best>:
800038e0:	00308013          	addi	zero,ra,3
{
800038e4:	00050793          	mv	a5,a0
	return list->head == list;
800038e8:	00052503          	lw	a0,0(a0)
	return sys_dlist_is_empty(list) ? NULL : list->head;
800038ec:	00a78463          	beq	a5,a0,800038f4 <z_priq_dumb_best+0x14>
}
800038f0:	00008067          	ret
	struct k_thread *thread = NULL;
800038f4:	00000513          	li	a0,0
	return thread;
800038f8:	ff9ff06f          	j	800038f0 <z_priq_dumb_best+0x10>

800038fc <update_cache>:
800038fc:	00308013          	addi	zero,ra,3
{
80003900:	ff010113          	addi	sp,sp,-16
80003904:	00112623          	sw	ra,12(sp)
80003908:	00812423          	sw	s0,8(sp)
8000390c:	00912223          	sw	s1,4(sp)
80003910:	00050493          	mv	s1,a0
	return _priq_run_best(curr_cpu_runq());
80003914:	80007537          	lui	a0,0x80007
80003918:	f6c50513          	addi	a0,a0,-148 # 80006f6c <CONFIG_SYSTEM_WORKQUEUE_PRIORITY+0x80006f6d>
8000391c:	fc5ff0ef          	jal	ra,800038e0 <z_priq_dumb_best>
80003920:	00050413          	mv	s0,a0
	return (thread != NULL) ? thread : _current_cpu->idle_thread;
80003924:	02050e63          	beqz	a0,80003960 <update_cache+0x64>
	if (preempt_ok != 0) {
80003928:	04049463          	bnez	s1,80003970 <update_cache+0x74>
	if (z_is_thread_prevented_from_running(_current)) {
8000392c:	800077b7          	lui	a5,0x80007
80003930:	f5078793          	addi	a5,a5,-176 # 80006f50 <CONFIG_SYSTEM_WORKQUEUE_PRIORITY+0x80006f51>
80003934:	0087a703          	lw	a4,8(a5)
	uint8_t state = thread->base.thread_state;
80003938:	00d74783          	lbu	a5,13(a4)
8000393c:	01f7f793          	andi	a5,a5,31
80003940:	02079863          	bnez	a5,80003970 <update_cache+0x74>
	return thread->base.preempt <= _PREEMPT_THRESHOLD;
80003944:	00e75683          	lhu	a3,14(a4)
	if (is_preempt(_current) || is_metairq(thread)) {
80003948:	07f00793          	li	a5,127
8000394c:	02d7f263          	bgeu	a5,a3,80003970 <update_cache+0x74>
		_kernel.ready_q.cache = _current;
80003950:	800077b7          	lui	a5,0x80007
80003954:	f5078793          	addi	a5,a5,-176 # 80006f50 <CONFIG_SYSTEM_WORKQUEUE_PRIORITY+0x80006f51>
80003958:	00e7ac23          	sw	a4,24(a5)
8000395c:	0380006f          	j	80003994 <update_cache+0x98>
	return (thread != NULL) ? thread : _current_cpu->idle_thread;
80003960:	800077b7          	lui	a5,0x80007
80003964:	f5078793          	addi	a5,a5,-176 # 80006f50 <CONFIG_SYSTEM_WORKQUEUE_PRIORITY+0x80006f51>
80003968:	00c7a403          	lw	s0,12(a5)
8000396c:	fbdff06f          	j	80003928 <update_cache+0x2c>
		if (thread != _current) {
80003970:	800077b7          	lui	a5,0x80007
80003974:	f5078793          	addi	a5,a5,-176 # 80006f50 <CONFIG_SYSTEM_WORKQUEUE_PRIORITY+0x80006f51>
80003978:	0087a783          	lw	a5,8(a5)
8000397c:	00878663          	beq	a5,s0,80003988 <update_cache+0x8c>
			z_reset_time_slice(thread);
80003980:	00040513          	mv	a0,s0
80003984:	bd1ff0ef          	jal	ra,80003554 <z_reset_time_slice>
		_kernel.ready_q.cache = thread;
80003988:	800077b7          	lui	a5,0x80007
8000398c:	f5078793          	addi	a5,a5,-176 # 80006f50 <CONFIG_SYSTEM_WORKQUEUE_PRIORITY+0x80006f51>
80003990:	0087ac23          	sw	s0,24(a5)
}
80003994:	00c12083          	lw	ra,12(sp)
80003998:	00812403          	lw	s0,8(sp)
8000399c:	00412483          	lw	s1,4(sp)
800039a0:	01010113          	addi	sp,sp,16
800039a4:	00008067          	ret

800039a8 <move_thread_to_end_of_prio_q>:
800039a8:	00308013          	addi	zero,ra,3
{
800039ac:	ff010113          	addi	sp,sp,-16
800039b0:	00112623          	sw	ra,12(sp)
800039b4:	00812423          	sw	s0,8(sp)
800039b8:	00912223          	sw	s1,4(sp)
800039bc:	00050493          	mv	s1,a0
	return (thread->base.thread_state & state) != 0U;
800039c0:	00d54783          	lbu	a5,13(a0)
	if (z_is_thread_queued(thread)) {
800039c4:	01879713          	slli	a4,a5,0x18
800039c8:	41875713          	srai	a4,a4,0x18
800039cc:	02074863          	bltz	a4,800039fc <move_thread_to_end_of_prio_q+0x54>
	thread->base.thread_state |= _THREAD_QUEUED;
800039d0:	00d4c783          	lbu	a5,13(s1)
800039d4:	f807e793          	ori	a5,a5,-128
800039d8:	00f486a3          	sb	a5,13(s1)
	return list->head == list;
800039dc:	800077b7          	lui	a5,0x80007
800039e0:	f5078793          	addi	a5,a5,-176 # 80006f50 <CONFIG_SYSTEM_WORKQUEUE_PRIORITY+0x80006f51>
800039e4:	01c7a403          	lw	s0,28(a5)
	return sys_dlist_is_empty(list) ? NULL : list->head;
800039e8:	800077b7          	lui	a5,0x80007
800039ec:	f6c78793          	addi	a5,a5,-148 # 80006f6c <CONFIG_SYSTEM_WORKQUEUE_PRIORITY+0x80006f6d>
800039f0:	04f41263          	bne	s0,a5,80003a34 <move_thread_to_end_of_prio_q+0x8c>
	SYS_DLIST_FOR_EACH_CONTAINER(pq, t, base.qnode_dlist) {
800039f4:	00000413          	li	s0,0
800039f8:	03c0006f          	j	80003a34 <move_thread_to_end_of_prio_q+0x8c>
	thread->base.thread_state &= ~_THREAD_QUEUED;
800039fc:	07f7f793          	andi	a5,a5,127
80003a00:	00f506a3          	sb	a5,13(a0)
	_priq_run_remove(thread_runq(thread), thread);
80003a04:	00050593          	mv	a1,a0
80003a08:	80007537          	lui	a0,0x80007
80003a0c:	f6c50513          	addi	a0,a0,-148 # 80006f6c <CONFIG_SYSTEM_WORKQUEUE_PRIORITY+0x80006f6d>
80003a10:	e71ff0ef          	jal	ra,80003880 <z_priq_dumb_remove>
}
80003a14:	fbdff06f          	j	800039d0 <move_thread_to_end_of_prio_q+0x28>
	sys_dnode_t *const prev = successor->prev;
80003a18:	00442783          	lw	a5,4(s0)
	node->prev = prev;
80003a1c:	00f4a223          	sw	a5,4(s1)
	node->next = successor;
80003a20:	0084a023          	sw	s0,0(s1)
	prev->next = node;
80003a24:	0097a023          	sw	s1,0(a5)
	successor->prev = node;
80003a28:	00942223          	sw	s1,4(s0)
}
80003a2c:	05c0006f          	j	80003a88 <move_thread_to_end_of_prio_q+0xe0>
	SYS_DLIST_FOR_EACH_CONTAINER(pq, t, base.qnode_dlist) {
80003a30:	00000413          	li	s0,0
80003a34:	02040863          	beqz	s0,80003a64 <move_thread_to_end_of_prio_q+0xbc>
		if (z_sched_prio_cmp(thread, t) > 0) {
80003a38:	00040593          	mv	a1,s0
80003a3c:	00048513          	mv	a0,s1
80003a40:	af5ff0ef          	jal	ra,80003534 <z_sched_prio_cmp>
80003a44:	fca04ae3          	bgtz	a0,80003a18 <move_thread_to_end_of_prio_q+0x70>
	return (node != NULL) ? sys_dlist_peek_next_no_check(list, node) : NULL;
80003a48:	fe0406e3          	beqz	s0,80003a34 <move_thread_to_end_of_prio_q+0x8c>
	return (node == list->tail) ? NULL : node->next;
80003a4c:	800077b7          	lui	a5,0x80007
80003a50:	f5078793          	addi	a5,a5,-176 # 80006f50 <CONFIG_SYSTEM_WORKQUEUE_PRIORITY+0x80006f51>
80003a54:	0207a783          	lw	a5,32(a5)
80003a58:	fcf40ce3          	beq	s0,a5,80003a30 <move_thread_to_end_of_prio_q+0x88>
80003a5c:	00042403          	lw	s0,0(s0)
80003a60:	fd5ff06f          	j	80003a34 <move_thread_to_end_of_prio_q+0x8c>
	sys_dnode_t *const tail = list->tail;
80003a64:	800077b7          	lui	a5,0x80007
80003a68:	f5078793          	addi	a5,a5,-176 # 80006f50 <CONFIG_SYSTEM_WORKQUEUE_PRIORITY+0x80006f51>
80003a6c:	0207a683          	lw	a3,32(a5)
	node->next = list;
80003a70:	80007737          	lui	a4,0x80007
80003a74:	f6c70713          	addi	a4,a4,-148 # 80006f6c <CONFIG_SYSTEM_WORKQUEUE_PRIORITY+0x80006f6d>
80003a78:	00e4a023          	sw	a4,0(s1)
	node->prev = tail;
80003a7c:	00d4a223          	sw	a3,4(s1)
	tail->next = node;
80003a80:	0096a023          	sw	s1,0(a3)
	list->tail = node;
80003a84:	0297a023          	sw	s1,32(a5)
	update_cache(thread == _current);
80003a88:	800077b7          	lui	a5,0x80007
80003a8c:	f5078793          	addi	a5,a5,-176 # 80006f50 <CONFIG_SYSTEM_WORKQUEUE_PRIORITY+0x80006f51>
80003a90:	0087a503          	lw	a0,8(a5)
80003a94:	40950533          	sub	a0,a0,s1
80003a98:	00153513          	seqz	a0,a0
80003a9c:	e61ff0ef          	jal	ra,800038fc <update_cache>
}
80003aa0:	00c12083          	lw	ra,12(sp)
80003aa4:	00812403          	lw	s0,8(sp)
80003aa8:	00412483          	lw	s1,4(sp)
80003aac:	01010113          	addi	sp,sp,16
80003ab0:	00008067          	ret

80003ab4 <slice_expired_locked>:
80003ab4:	00308013          	addi	zero,ra,3
{
80003ab8:	ff010113          	addi	sp,sp,-16
80003abc:	00112623          	sw	ra,12(sp)
80003ac0:	00812423          	sw	s0,8(sp)
80003ac4:	00912223          	sw	s1,4(sp)
80003ac8:	00050413          	mv	s0,a0
	struct k_thread *curr = _current;
80003acc:	800077b7          	lui	a5,0x80007
80003ad0:	f5078793          	addi	a5,a5,-176 # 80006f50 <CONFIG_SYSTEM_WORKQUEUE_PRIORITY+0x80006f51>
80003ad4:	0087a483          	lw	s1,8(a5)
	uint8_t state = thread->base.thread_state;
80003ad8:	00d4c783          	lbu	a5,13(s1)
	if (!z_is_thread_prevented_from_running(curr)) {
80003adc:	01f7f793          	andi	a5,a5,31
80003ae0:	02078263          	beqz	a5,80003b04 <slice_expired_locked+0x50>
	z_reset_time_slice(curr);
80003ae4:	00048513          	mv	a0,s1
80003ae8:	a6dff0ef          	jal	ra,80003554 <z_reset_time_slice>
}
80003aec:	00040513          	mv	a0,s0
80003af0:	00c12083          	lw	ra,12(sp)
80003af4:	00812403          	lw	s0,8(sp)
80003af8:	00412483          	lw	s1,4(sp)
80003afc:	01010113          	addi	sp,sp,16
80003b00:	00008067          	ret
		move_thread_to_end_of_prio_q(curr);
80003b04:	00048513          	mv	a0,s1
80003b08:	ea1ff0ef          	jal	ra,800039a8 <move_thread_to_end_of_prio_q>
80003b0c:	fd9ff06f          	j	80003ae4 <slice_expired_locked+0x30>

80003b10 <z_time_slice>:
80003b10:	00308013          	addi	zero,ra,3
{
80003b14:	ff010113          	addi	sp,sp,-16
80003b18:	00112623          	sw	ra,12(sp)
80003b1c:	00812423          	sw	s0,8(sp)
80003b20:	00912223          	sw	s1,4(sp)
80003b24:	01212023          	sw	s2,0(sp)
80003b28:	00050913          	mv	s2,a0
	__asm__ volatile ("csrrc %0, mstatus, %1"
80003b2c:	300474f3          	csrrci	s1,mstatus,8
80003b30:	00048413          	mv	s0,s1
	if (slice_time(_current) && sliceable(_current)) {
80003b34:	800077b7          	lui	a5,0x80007
80003b38:	f5078793          	addi	a5,a5,-176 # 80006f50 <CONFIG_SYSTEM_WORKQUEUE_PRIORITY+0x80006f51>
80003b3c:	0087a503          	lw	a0,8(a5)
	int ret = slice_ticks;
80003b40:	800077b7          	lui	a5,0x80007
80003b44:	e247a783          	lw	a5,-476(a5) # 80006e24 <CONFIG_SYSTEM_WORKQUEUE_PRIORITY+0x80006e25>
	if (slice_time(_current) && sliceable(_current)) {
80003b48:	04078063          	beqz	a5,80003b88 <z_time_slice+0x78>
80003b4c:	931ff0ef          	jal	ra,8000347c <sliceable>
80003b50:	02050c63          	beqz	a0,80003b88 <z_time_slice+0x78>
		if (ticks >= _current_cpu->slice_ticks) {
80003b54:	800077b7          	lui	a5,0x80007
80003b58:	f5078793          	addi	a5,a5,-176 # 80006f50 <CONFIG_SYSTEM_WORKQUEUE_PRIORITY+0x80006f51>
80003b5c:	0107a783          	lw	a5,16(a5)
80003b60:	00f95c63          	bge	s2,a5,80003b78 <z_time_slice+0x68>
			_current_cpu->slice_ticks -= ticks;
80003b64:	80007737          	lui	a4,0x80007
80003b68:	412787b3          	sub	a5,a5,s2
80003b6c:	f5070713          	addi	a4,a4,-176 # 80006f50 <CONFIG_SYSTEM_WORKQUEUE_PRIORITY+0x80006f51>
80003b70:	00f72823          	sw	a5,16(a4)
80003b74:	0200006f          	j	80003b94 <z_time_slice+0x84>
			key = slice_expired_locked(key);
80003b78:	00048513          	mv	a0,s1
80003b7c:	f39ff0ef          	jal	ra,80003ab4 <slice_expired_locked>
80003b80:	00050413          	mv	s0,a0
80003b84:	0100006f          	j	80003b94 <z_time_slice+0x84>
		_current_cpu->slice_ticks = 0;
80003b88:	800077b7          	lui	a5,0x80007
80003b8c:	f5078793          	addi	a5,a5,-176 # 80006f50 <CONFIG_SYSTEM_WORKQUEUE_PRIORITY+0x80006f51>
80003b90:	0007a823          	sw	zero,16(a5)
			  : "r" (key & MSTATUS_IEN)
80003b94:	00847413          	andi	s0,s0,8
	__asm__ volatile ("csrs mstatus, %0"
80003b98:	30042073          	csrs	mstatus,s0
}
80003b9c:	00c12083          	lw	ra,12(sp)
80003ba0:	00812403          	lw	s0,8(sp)
80003ba4:	00412483          	lw	s1,4(sp)
80003ba8:	00012903          	lw	s2,0(sp)
80003bac:	01010113          	addi	sp,sp,16
80003bb0:	00008067          	ret

80003bb4 <ready_thread>:
80003bb4:	00308013          	addi	zero,ra,3
	return (thread->base.thread_state & state) != 0U;
80003bb8:	00d54783          	lbu	a5,13(a0)
	if (!z_is_thread_queued(thread) && z_is_thread_ready(thread)) {
80003bbc:	01879713          	slli	a4,a5,0x18
80003bc0:	41875713          	srai	a4,a4,0x18
80003bc4:	0e074463          	bltz	a4,80003cac <ready_thread+0xf8>
{
80003bc8:	ff010113          	addi	sp,sp,-16
80003bcc:	00112623          	sw	ra,12(sp)
80003bd0:	00812423          	sw	s0,8(sp)
80003bd4:	00912223          	sw	s1,4(sp)
80003bd8:	01212023          	sw	s2,0(sp)
80003bdc:	00050413          	mv	s0,a0
	return !((z_is_thread_prevented_from_running(thread)) != 0U ||
80003be0:	01f7f713          	andi	a4,a5,31
80003be4:	00071663          	bnez	a4,80003bf0 <ready_thread+0x3c>
	return node->next != NULL;
80003be8:	01852903          	lw	s2,24(a0)
80003bec:	00090e63          	beqz	s2,80003c08 <ready_thread+0x54>
}
80003bf0:	00c12083          	lw	ra,12(sp)
80003bf4:	00812403          	lw	s0,8(sp)
80003bf8:	00412483          	lw	s1,4(sp)
80003bfc:	00012903          	lw	s2,0(sp)
80003c00:	01010113          	addi	sp,sp,16
80003c04:	00008067          	ret
	thread->base.thread_state |= _THREAD_QUEUED;
80003c08:	f807e793          	ori	a5,a5,-128
80003c0c:	00f506a3          	sb	a5,13(a0)
	return list->head == list;
80003c10:	800077b7          	lui	a5,0x80007
80003c14:	f5078793          	addi	a5,a5,-176 # 80006f50 <CONFIG_SYSTEM_WORKQUEUE_PRIORITY+0x80006f51>
80003c18:	01c7a483          	lw	s1,28(a5)
	return sys_dlist_is_empty(list) ? NULL : list->head;
80003c1c:	800077b7          	lui	a5,0x80007
80003c20:	f6c78793          	addi	a5,a5,-148 # 80006f6c <CONFIG_SYSTEM_WORKQUEUE_PRIORITY+0x80006f6d>
80003c24:	02f49463          	bne	s1,a5,80003c4c <ready_thread+0x98>
	SYS_DLIST_FOR_EACH_CONTAINER(pq, t, base.qnode_dlist) {
80003c28:	00090493          	mv	s1,s2
80003c2c:	0200006f          	j	80003c4c <ready_thread+0x98>
	sys_dnode_t *const prev = successor->prev;
80003c30:	0044a783          	lw	a5,4(s1)
	node->prev = prev;
80003c34:	00f42223          	sw	a5,4(s0)
	node->next = successor;
80003c38:	00942023          	sw	s1,0(s0)
	prev->next = node;
80003c3c:	0087a023          	sw	s0,0(a5)
	successor->prev = node;
80003c40:	0084a223          	sw	s0,4(s1)
}
80003c44:	05c0006f          	j	80003ca0 <ready_thread+0xec>
80003c48:	00090493          	mv	s1,s2
80003c4c:	02048863          	beqz	s1,80003c7c <ready_thread+0xc8>
		if (z_sched_prio_cmp(thread, t) > 0) {
80003c50:	00048593          	mv	a1,s1
80003c54:	00040513          	mv	a0,s0
80003c58:	8ddff0ef          	jal	ra,80003534 <z_sched_prio_cmp>
80003c5c:	fca04ae3          	bgtz	a0,80003c30 <ready_thread+0x7c>
	return (node != NULL) ? sys_dlist_peek_next_no_check(list, node) : NULL;
80003c60:	fe0486e3          	beqz	s1,80003c4c <ready_thread+0x98>
	return (node == list->tail) ? NULL : node->next;
80003c64:	800077b7          	lui	a5,0x80007
80003c68:	f5078793          	addi	a5,a5,-176 # 80006f50 <CONFIG_SYSTEM_WORKQUEUE_PRIORITY+0x80006f51>
80003c6c:	0207a783          	lw	a5,32(a5)
80003c70:	fcf48ce3          	beq	s1,a5,80003c48 <ready_thread+0x94>
80003c74:	0004a483          	lw	s1,0(s1)
80003c78:	fd5ff06f          	j	80003c4c <ready_thread+0x98>
	sys_dnode_t *const tail = list->tail;
80003c7c:	800077b7          	lui	a5,0x80007
80003c80:	f5078793          	addi	a5,a5,-176 # 80006f50 <CONFIG_SYSTEM_WORKQUEUE_PRIORITY+0x80006f51>
80003c84:	0207a683          	lw	a3,32(a5)
	node->next = list;
80003c88:	80007737          	lui	a4,0x80007
80003c8c:	f6c70713          	addi	a4,a4,-148 # 80006f6c <CONFIG_SYSTEM_WORKQUEUE_PRIORITY+0x80006f6d>
80003c90:	00e42023          	sw	a4,0(s0)
	node->prev = tail;
80003c94:	00d42223          	sw	a3,4(s0)
	tail->next = node;
80003c98:	0086a023          	sw	s0,0(a3)
	list->tail = node;
80003c9c:	0287a023          	sw	s0,32(a5)
		update_cache(0);
80003ca0:	00000513          	li	a0,0
80003ca4:	c59ff0ef          	jal	ra,800038fc <update_cache>
}
80003ca8:	f49ff06f          	j	80003bf0 <ready_thread+0x3c>
80003cac:	00008067          	ret

80003cb0 <z_ready_thread>:
80003cb0:	00308013          	addi	zero,ra,3
{
80003cb4:	ff010113          	addi	sp,sp,-16
80003cb8:	00112623          	sw	ra,12(sp)
80003cbc:	00812423          	sw	s0,8(sp)
80003cc0:	00912223          	sw	s1,4(sp)
80003cc4:	00050413          	mv	s0,a0
	LOCKED(&sched_spinlock) {
80003cc8:	00000793          	li	a5,0
	__asm__ volatile ("csrrc %0, mstatus, %1"
80003ccc:	300474f3          	csrrci	s1,mstatus,8
80003cd0:	0100006f          	j	80003ce0 <z_ready_thread+0x30>
			  : "r" (key & MSTATUS_IEN)
80003cd4:	0084f793          	andi	a5,s1,8
	__asm__ volatile ("csrs mstatus, %0"
80003cd8:	3007a073          	csrs	mstatus,a5
80003cdc:	00100793          	li	a5,1
80003ce0:	00079e63          	bnez	a5,80003cfc <z_ready_thread+0x4c>
		if (!thread_active_elsewhere(thread)) {
80003ce4:	00040513          	mv	a0,s0
80003ce8:	ff4ff0ef          	jal	ra,800034dc <thread_active_elsewhere>
80003cec:	fe0514e3          	bnez	a0,80003cd4 <z_ready_thread+0x24>
			ready_thread(thread);
80003cf0:	00040513          	mv	a0,s0
80003cf4:	ec1ff0ef          	jal	ra,80003bb4 <ready_thread>
80003cf8:	fddff06f          	j	80003cd4 <z_ready_thread+0x24>
}
80003cfc:	00c12083          	lw	ra,12(sp)
80003d00:	00812403          	lw	s0,8(sp)
80003d04:	00412483          	lw	s1,4(sp)
80003d08:	01010113          	addi	sp,sp,16
80003d0c:	00008067          	ret

80003d10 <z_sched_start>:
80003d10:	00308013          	addi	zero,ra,3
{
80003d14:	ff010113          	addi	sp,sp,-16
80003d18:	00112623          	sw	ra,12(sp)
80003d1c:	00812423          	sw	s0,8(sp)
	__asm__ volatile ("csrrc %0, mstatus, %1"
80003d20:	30047473          	csrrci	s0,mstatus,8
	return (thread->base.thread_state & _THREAD_PRESTART) == 0U;
80003d24:	00d54783          	lbu	a5,13(a0)
	if (z_has_thread_started(thread)) {
80003d28:	0047f713          	andi	a4,a5,4
80003d2c:	00071e63          	bnez	a4,80003d48 <z_sched_start+0x38>
	__asm__ volatile ("csrs mstatus, %0"
80003d30:	00847413          	andi	s0,s0,8
80003d34:	30042073          	csrs	mstatus,s0
}
80003d38:	00c12083          	lw	ra,12(sp)
80003d3c:	00812403          	lw	s0,8(sp)
80003d40:	01010113          	addi	sp,sp,16
80003d44:	00008067          	ret
	thread->base.thread_state &= ~_THREAD_PRESTART;
80003d48:	ffb7f793          	andi	a5,a5,-5
80003d4c:	00f506a3          	sb	a5,13(a0)
	ready_thread(thread);
80003d50:	e65ff0ef          	jal	ra,80003bb4 <ready_thread>
	z_reschedule(&sched_spinlock, key);
80003d54:	00040593          	mv	a1,s0
80003d58:	80007537          	lui	a0,0x80007
80003d5c:	f7450513          	addi	a0,a0,-140 # 80006f74 <CONFIG_SYSTEM_WORKQUEUE_PRIORITY+0x80006f75>
80003d60:	ab1ff0ef          	jal	ra,80003810 <z_reschedule>
80003d64:	fd5ff06f          	j	80003d38 <z_sched_start+0x28>

80003d68 <z_thread_timeout>:
80003d68:	00308013          	addi	zero,ra,3
{
80003d6c:	ff010113          	addi	sp,sp,-16
80003d70:	00112623          	sw	ra,12(sp)
80003d74:	00812423          	sw	s0,8(sp)
80003d78:	00912223          	sw	s1,4(sp)
80003d7c:	01212023          	sw	s2,0(sp)
80003d80:	00050413          	mv	s0,a0
	struct k_thread *thread = CONTAINER_OF(timeout,
80003d84:	fe850913          	addi	s2,a0,-24
	LOCKED(&sched_spinlock) {
80003d88:	00000793          	li	a5,0
	__asm__ volatile ("csrrc %0, mstatus, %1"
80003d8c:	300474f3          	csrrci	s1,mstatus,8
80003d90:	02c0006f          	j	80003dbc <z_thread_timeout+0x54>
80003d94:	ff544783          	lbu	a5,-11(s0)
80003d98:	ffb7f713          	andi	a4,a5,-5
80003d9c:	fee40aa3          	sb	a4,-11(s0)
	thread->base.thread_state &= ~_THREAD_SUSPENDED;
80003da0:	feb7f793          	andi	a5,a5,-21
80003da4:	fef40aa3          	sb	a5,-11(s0)
			ready_thread(thread);
80003da8:	00090513          	mv	a0,s2
80003dac:	e09ff0ef          	jal	ra,80003bb4 <ready_thread>
			  : "r" (key & MSTATUS_IEN)
80003db0:	0084f793          	andi	a5,s1,8
	__asm__ volatile ("csrs mstatus, %0"
80003db4:	3007a073          	csrs	mstatus,a5
	LOCKED(&sched_spinlock) {
80003db8:	00100793          	li	a5,1
80003dbc:	02079263          	bnez	a5,80003de0 <z_thread_timeout+0x78>
		bool killed = ((thread->base.thread_state & _THREAD_DEAD) ||
80003dc0:	ff544783          	lbu	a5,-11(s0)
		if (!killed) {
80003dc4:	0287f793          	andi	a5,a5,40
80003dc8:	fe0794e3          	bnez	a5,80003db0 <z_thread_timeout+0x48>
			if (thread->base.pended_on != NULL) {
80003dcc:	ff042783          	lw	a5,-16(s0)
80003dd0:	fc0782e3          	beqz	a5,80003d94 <z_thread_timeout+0x2c>
				unpend_thread_no_timeout(thread);
80003dd4:	00090513          	mv	a0,s2
80003dd8:	ac9ff0ef          	jal	ra,800038a0 <unpend_thread_no_timeout>
80003ddc:	fb9ff06f          	j	80003d94 <z_thread_timeout+0x2c>
}
80003de0:	00c12083          	lw	ra,12(sp)
80003de4:	00812403          	lw	s0,8(sp)
80003de8:	00412483          	lw	s1,4(sp)
80003dec:	00012903          	lw	s2,0(sp)
80003df0:	01010113          	addi	sp,sp,16
80003df4:	00008067          	ret

80003df8 <unpend_all>:
80003df8:	00308013          	addi	zero,ra,3
{
80003dfc:	ff010113          	addi	sp,sp,-16
80003e00:	00112623          	sw	ra,12(sp)
80003e04:	00812423          	sw	s0,8(sp)
80003e08:	00912223          	sw	s1,4(sp)
80003e0c:	00050493          	mv	s1,a0
	return list->head == list;
80003e10:	0004a403          	lw	s0,0(s1)
	return sys_dlist_is_empty(list) ? NULL : list->head;
80003e14:	02848463          	beq	s1,s0,80003e3c <unpend_all+0x44>
	while ((thread = z_waitq_head(wait_q)) != NULL) {
80003e18:	02040263          	beqz	s0,80003e3c <unpend_all+0x44>
		unpend_thread_no_timeout(thread);
80003e1c:	00040513          	mv	a0,s0
80003e20:	a81ff0ef          	jal	ra,800038a0 <unpend_thread_no_timeout>
}

static inline int z_abort_thread_timeout(struct k_thread *thread)
{
	return z_abort_timeout(&thread->base.timeout);
80003e24:	01840513          	addi	a0,s0,24
80003e28:	149000ef          	jal	ra,80004770 <z_abort_timeout>
80003e2c:	06042c23          	sw	zero,120(s0)
		ready_thread(thread);
80003e30:	00040513          	mv	a0,s0
80003e34:	d81ff0ef          	jal	ra,80003bb4 <ready_thread>
80003e38:	fd9ff06f          	j	80003e10 <unpend_all+0x18>
}
80003e3c:	00c12083          	lw	ra,12(sp)
80003e40:	00812403          	lw	s0,8(sp)
80003e44:	00412483          	lw	s1,4(sp)
80003e48:	01010113          	addi	sp,sp,16
80003e4c:	00008067          	ret

80003e50 <unready_thread>:
80003e50:	00308013          	addi	zero,ra,3
{
80003e54:	ff010113          	addi	sp,sp,-16
80003e58:	00112623          	sw	ra,12(sp)
80003e5c:	00812423          	sw	s0,8(sp)
80003e60:	00050413          	mv	s0,a0
	return (thread->base.thread_state & state) != 0U;
80003e64:	00d54783          	lbu	a5,13(a0)
	if (z_is_thread_queued(thread)) {
80003e68:	01879713          	slli	a4,a5,0x18
80003e6c:	41875713          	srai	a4,a4,0x18
80003e70:	02074663          	bltz	a4,80003e9c <unready_thread+0x4c>
	update_cache(thread == _current);
80003e74:	800077b7          	lui	a5,0x80007
80003e78:	f5078793          	addi	a5,a5,-176 # 80006f50 <CONFIG_SYSTEM_WORKQUEUE_PRIORITY+0x80006f51>
80003e7c:	0087a503          	lw	a0,8(a5)
80003e80:	40850533          	sub	a0,a0,s0
80003e84:	00153513          	seqz	a0,a0
80003e88:	a75ff0ef          	jal	ra,800038fc <update_cache>
}
80003e8c:	00c12083          	lw	ra,12(sp)
80003e90:	00812403          	lw	s0,8(sp)
80003e94:	01010113          	addi	sp,sp,16
80003e98:	00008067          	ret
	thread->base.thread_state &= ~_THREAD_QUEUED;
80003e9c:	07f7f793          	andi	a5,a5,127
80003ea0:	00f506a3          	sb	a5,13(a0)
	_priq_run_remove(thread_runq(thread), thread);
80003ea4:	00050593          	mv	a1,a0
80003ea8:	80007537          	lui	a0,0x80007
80003eac:	f6c50513          	addi	a0,a0,-148 # 80006f6c <CONFIG_SYSTEM_WORKQUEUE_PRIORITY+0x80006f6d>
80003eb0:	9d1ff0ef          	jal	ra,80003880 <z_priq_dumb_remove>
}
80003eb4:	fc1ff06f          	j	80003e74 <unready_thread+0x24>

80003eb8 <add_to_waitq_locked>:
80003eb8:	00308013          	addi	zero,ra,3
{
80003ebc:	ff010113          	addi	sp,sp,-16
80003ec0:	00112623          	sw	ra,12(sp)
80003ec4:	00812423          	sw	s0,8(sp)
80003ec8:	00912223          	sw	s1,4(sp)
80003ecc:	01212023          	sw	s2,0(sp)
80003ed0:	00050493          	mv	s1,a0
80003ed4:	00058913          	mv	s2,a1
	unready_thread(thread);
80003ed8:	f79ff0ef          	jal	ra,80003e50 <unready_thread>
	thread->base.thread_state |= _THREAD_PENDING;
80003edc:	00d4c783          	lbu	a5,13(s1)
80003ee0:	0027e793          	ori	a5,a5,2
80003ee4:	00f486a3          	sb	a5,13(s1)
	if (wait_q != NULL) {
80003ee8:	06090863          	beqz	s2,80003f58 <add_to_waitq_locked+0xa0>
		thread->base.pended_on = wait_q;
80003eec:	0124a423          	sw	s2,8(s1)
	return list->head == list;
80003ef0:	00092403          	lw	s0,0(s2)
	return sys_dlist_is_empty(list) ? NULL : list->head;
80003ef4:	02891463          	bne	s2,s0,80003f1c <add_to_waitq_locked+0x64>
	SYS_DLIST_FOR_EACH_CONTAINER(pq, t, base.qnode_dlist) {
80003ef8:	00000413          	li	s0,0
80003efc:	0200006f          	j	80003f1c <add_to_waitq_locked+0x64>
	sys_dnode_t *const prev = successor->prev;
80003f00:	00442783          	lw	a5,4(s0)
	node->prev = prev;
80003f04:	00f4a223          	sw	a5,4(s1)
	node->next = successor;
80003f08:	0084a023          	sw	s0,0(s1)
	prev->next = node;
80003f0c:	0097a023          	sw	s1,0(a5)
	successor->prev = node;
80003f10:	00942223          	sw	s1,4(s0)
}
80003f14:	0440006f          	j	80003f58 <add_to_waitq_locked+0xa0>
80003f18:	00000413          	li	s0,0
80003f1c:	02040463          	beqz	s0,80003f44 <add_to_waitq_locked+0x8c>
		if (z_sched_prio_cmp(thread, t) > 0) {
80003f20:	00040593          	mv	a1,s0
80003f24:	00048513          	mv	a0,s1
80003f28:	e0cff0ef          	jal	ra,80003534 <z_sched_prio_cmp>
80003f2c:	fca04ae3          	bgtz	a0,80003f00 <add_to_waitq_locked+0x48>
	return (node != NULL) ? sys_dlist_peek_next_no_check(list, node) : NULL;
80003f30:	fe0406e3          	beqz	s0,80003f1c <add_to_waitq_locked+0x64>
	return (node == list->tail) ? NULL : node->next;
80003f34:	00492703          	lw	a4,4(s2)
80003f38:	fee400e3          	beq	s0,a4,80003f18 <add_to_waitq_locked+0x60>
80003f3c:	00042403          	lw	s0,0(s0)
80003f40:	fddff06f          	j	80003f1c <add_to_waitq_locked+0x64>
	sys_dnode_t *const tail = list->tail;
80003f44:	00492783          	lw	a5,4(s2)
	node->next = list;
80003f48:	0124a023          	sw	s2,0(s1)
	node->prev = tail;
80003f4c:	00f4a223          	sw	a5,4(s1)
	tail->next = node;
80003f50:	0097a023          	sw	s1,0(a5)
	list->tail = node;
80003f54:	00992223          	sw	s1,4(s2)
}
80003f58:	00c12083          	lw	ra,12(sp)
80003f5c:	00812403          	lw	s0,8(sp)
80003f60:	00412483          	lw	s1,4(sp)
80003f64:	00012903          	lw	s2,0(sp)
80003f68:	01010113          	addi	sp,sp,16
80003f6c:	00008067          	ret

80003f70 <pend>:
80003f70:	00308013          	addi	zero,ra,3
{
80003f74:	fe010113          	addi	sp,sp,-32
80003f78:	00112e23          	sw	ra,28(sp)
80003f7c:	00812c23          	sw	s0,24(sp)
80003f80:	00912a23          	sw	s1,20(sp)
80003f84:	01212823          	sw	s2,16(sp)
80003f88:	01312623          	sw	s3,12(sp)
80003f8c:	01412423          	sw	s4,8(sp)
80003f90:	00050413          	mv	s0,a0
80003f94:	00058493          	mv	s1,a1
80003f98:	00060a13          	mv	s4,a2
80003f9c:	00068993          	mv	s3,a3
	LOCKED(&sched_spinlock) {
80003fa0:	00000793          	li	a5,0
	__asm__ volatile ("csrrc %0, mstatus, %1"
80003fa4:	30047973          	csrrci	s2,mstatus,8
80003fa8:	01c0006f          	j	80003fc4 <pend+0x54>
		add_to_waitq_locked(thread, wait_q);
80003fac:	00048593          	mv	a1,s1
80003fb0:	00040513          	mv	a0,s0
80003fb4:	f05ff0ef          	jal	ra,80003eb8 <add_to_waitq_locked>
			  : "r" (key & MSTATUS_IEN)
80003fb8:	00897793          	andi	a5,s2,8
	__asm__ volatile ("csrs mstatus, %0"
80003fbc:	3007a073          	csrs	mstatus,a5
	LOCKED(&sched_spinlock) {
80003fc0:	00100793          	li	a5,1
80003fc4:	fe0784e3          	beqz	a5,80003fac <pend+0x3c>
	add_thread_timeout(thread, timeout);
80003fc8:	000a0593          	mv	a1,s4
80003fcc:	00098613          	mv	a2,s3
80003fd0:	00040513          	mv	a0,s0
80003fd4:	d20ff0ef          	jal	ra,800034f4 <add_thread_timeout>
}
80003fd8:	01c12083          	lw	ra,28(sp)
80003fdc:	01812403          	lw	s0,24(sp)
80003fe0:	01412483          	lw	s1,20(sp)
80003fe4:	01012903          	lw	s2,16(sp)
80003fe8:	00c12983          	lw	s3,12(sp)
80003fec:	00812a03          	lw	s4,8(sp)
80003ff0:	02010113          	addi	sp,sp,32
80003ff4:	00008067          	ret

80003ff8 <z_pend_curr>:
80003ff8:	00308013          	addi	zero,ra,3
{
80003ffc:	ff010113          	addi	sp,sp,-16
80004000:	00112623          	sw	ra,12(sp)
80004004:	00812423          	sw	s0,8(sp)
80004008:	00912223          	sw	s1,4(sp)
8000400c:	00050413          	mv	s0,a0
80004010:	00058493          	mv	s1,a1
80004014:	00060593          	mv	a1,a2
80004018:	00068613          	mv	a2,a3
8000401c:	00070693          	mv	a3,a4
	pend(_current, wait_q, timeout);
80004020:	800077b7          	lui	a5,0x80007
80004024:	f5078793          	addi	a5,a5,-176 # 80006f50 <CONFIG_SYSTEM_WORKQUEUE_PRIORITY+0x80006f51>
80004028:	0087a503          	lw	a0,8(a5)
8000402c:	f45ff0ef          	jal	ra,80003f70 <pend>
	return z_swap(lock, key);
80004030:	00048593          	mv	a1,s1
80004034:	00040513          	mv	a0,s0
80004038:	f40ff0ef          	jal	ra,80003778 <z_swap>
}
8000403c:	00c12083          	lw	ra,12(sp)
80004040:	00812403          	lw	s0,8(sp)
80004044:	00412483          	lw	s1,4(sp)
80004048:	01010113          	addi	sp,sp,16
8000404c:	00008067          	ret

80004050 <z_set_prio>:
80004050:	00308013          	addi	zero,ra,3
{
80004054:	fe010113          	addi	sp,sp,-32
80004058:	00112e23          	sw	ra,28(sp)
8000405c:	00812c23          	sw	s0,24(sp)
80004060:	00912a23          	sw	s1,20(sp)
80004064:	01212823          	sw	s2,16(sp)
80004068:	01312623          	sw	s3,12(sp)
8000406c:	01412423          	sw	s4,8(sp)
80004070:	01512223          	sw	s5,4(sp)
80004074:	00050493          	mv	s1,a0
80004078:	00058913          	mv	s2,a1
	LOCKED(&sched_spinlock) {
8000407c:	00000793          	li	a5,0
	__asm__ volatile ("csrrc %0, mstatus, %1"
80004080:	300479f3          	csrrci	s3,mstatus,8
	bool need_sched = 0;
80004084:	00000513          	li	a0,0
80004088:	0980006f          	j	80004120 <z_set_prio+0xd0>
	sys_dnode_t *const prev = successor->prev;
8000408c:	00442783          	lw	a5,4(s0)
	node->prev = prev;
80004090:	00f4a223          	sw	a5,4(s1)
	node->next = successor;
80004094:	0084a023          	sw	s0,0(s1)
	prev->next = node;
80004098:	0097a023          	sw	s1,0(a5)
	successor->prev = node;
8000409c:	00942223          	sw	s1,4(s0)
}
800040a0:	05c0006f          	j	800040fc <z_set_prio+0xac>
	SYS_DLIST_FOR_EACH_CONTAINER(pq, t, base.qnode_dlist) {
800040a4:	000a0413          	mv	s0,s4
800040a8:	02040863          	beqz	s0,800040d8 <z_set_prio+0x88>
		if (z_sched_prio_cmp(thread, t) > 0) {
800040ac:	00040593          	mv	a1,s0
800040b0:	00048513          	mv	a0,s1
800040b4:	c80ff0ef          	jal	ra,80003534 <z_sched_prio_cmp>
800040b8:	fca04ae3          	bgtz	a0,8000408c <z_set_prio+0x3c>
	return (node != NULL) ? sys_dlist_peek_next_no_check(list, node) : NULL;
800040bc:	fe0406e3          	beqz	s0,800040a8 <z_set_prio+0x58>
	return (node == list->tail) ? NULL : node->next;
800040c0:	800077b7          	lui	a5,0x80007
800040c4:	f5078793          	addi	a5,a5,-176 # 80006f50 <CONFIG_SYSTEM_WORKQUEUE_PRIORITY+0x80006f51>
800040c8:	0207a783          	lw	a5,32(a5)
800040cc:	fcf40ce3          	beq	s0,a5,800040a4 <z_set_prio+0x54>
800040d0:	00042403          	lw	s0,0(s0)
800040d4:	fd5ff06f          	j	800040a8 <z_set_prio+0x58>
	sys_dnode_t *const tail = list->tail;
800040d8:	800077b7          	lui	a5,0x80007
800040dc:	f5078793          	addi	a5,a5,-176 # 80006f50 <CONFIG_SYSTEM_WORKQUEUE_PRIORITY+0x80006f51>
800040e0:	0207a683          	lw	a3,32(a5)
	node->next = list;
800040e4:	80007737          	lui	a4,0x80007
800040e8:	f6c70713          	addi	a4,a4,-148 # 80006f6c <CONFIG_SYSTEM_WORKQUEUE_PRIORITY+0x80006f6d>
800040ec:	00e4a023          	sw	a4,0(s1)
	node->prev = tail;
800040f0:	00d4a223          	sw	a3,4(s1)
	tail->next = node;
800040f4:	0096a023          	sw	s1,0(a3)
	list->tail = node;
800040f8:	0297a023          	sw	s1,32(a5)
			update_cache(1);
800040fc:	00100513          	li	a0,1
80004100:	ffcff0ef          	jal	ra,800038fc <update_cache>
	return !((z_is_thread_prevented_from_running(thread)) != 0U ||
80004104:	00100513          	li	a0,1
80004108:	00c0006f          	j	80004114 <z_set_prio+0xc4>
			thread->base.prio = prio;
8000410c:	01248723          	sb	s2,14(s1)
80004110:	00000513          	li	a0,0
			  : "r" (key & MSTATUS_IEN)
80004114:	0089f793          	andi	a5,s3,8
	__asm__ volatile ("csrs mstatus, %0"
80004118:	3007a073          	csrs	mstatus,a5
	LOCKED(&sched_spinlock) {
8000411c:	00100793          	li	a5,1
80004120:	04079e63          	bnez	a5,8000417c <z_set_prio+0x12c>
	uint8_t state = thread->base.thread_state;
80004124:	00d4c783          	lbu	a5,13(s1)
	return !((z_is_thread_prevented_from_running(thread)) != 0U ||
80004128:	01f7f713          	andi	a4,a5,31
8000412c:	fe0710e3          	bnez	a4,8000410c <z_set_prio+0xbc>
	return node->next != NULL;
80004130:	0184aa03          	lw	s4,24(s1)
80004134:	fc0a1ce3          	bnez	s4,8000410c <z_set_prio+0xbc>
	thread->base.thread_state &= ~_THREAD_QUEUED;
80004138:	07f7f793          	andi	a5,a5,127
8000413c:	00f486a3          	sb	a5,13(s1)
	_priq_run_remove(thread_runq(thread), thread);
80004140:	00048593          	mv	a1,s1
80004144:	80007ab7          	lui	s5,0x80007
80004148:	f6ca8513          	addi	a0,s5,-148 # 80006f6c <CONFIG_SYSTEM_WORKQUEUE_PRIORITY+0x80006f6d>
8000414c:	f34ff0ef          	jal	ra,80003880 <z_priq_dumb_remove>
				thread->base.prio = prio;
80004150:	01248723          	sb	s2,14(s1)
	thread->base.thread_state |= _THREAD_QUEUED;
80004154:	00d4c783          	lbu	a5,13(s1)
80004158:	f807e793          	ori	a5,a5,-128
8000415c:	00f486a3          	sb	a5,13(s1)
	return list->head == list;
80004160:	800077b7          	lui	a5,0x80007
80004164:	f5078793          	addi	a5,a5,-176 # 80006f50 <CONFIG_SYSTEM_WORKQUEUE_PRIORITY+0x80006f51>
80004168:	01c7a403          	lw	s0,28(a5)
	return sys_dlist_is_empty(list) ? NULL : list->head;
8000416c:	f6ca8a93          	addi	s5,s5,-148
80004170:	f3541ce3          	bne	s0,s5,800040a8 <z_set_prio+0x58>
	SYS_DLIST_FOR_EACH_CONTAINER(pq, t, base.qnode_dlist) {
80004174:	000a0413          	mv	s0,s4
80004178:	f31ff06f          	j	800040a8 <z_set_prio+0x58>
}
8000417c:	01c12083          	lw	ra,28(sp)
80004180:	01812403          	lw	s0,24(sp)
80004184:	01412483          	lw	s1,20(sp)
80004188:	01012903          	lw	s2,16(sp)
8000418c:	00c12983          	lw	s3,12(sp)
80004190:	00812a03          	lw	s4,8(sp)
80004194:	00412a83          	lw	s5,4(sp)
80004198:	02010113          	addi	sp,sp,32
8000419c:	00008067          	ret

800041a0 <k_sched_unlock>:
800041a0:	00308013          	addi	zero,ra,3
{
800041a4:	ff010113          	addi	sp,sp,-16
800041a8:	00112623          	sw	ra,12(sp)
800041ac:	00812423          	sw	s0,8(sp)
	LOCKED(&sched_spinlock) {
800041b0:	00000793          	li	a5,0
	__asm__ volatile ("csrrc %0, mstatus, %1"
800041b4:	30047473          	csrrci	s0,mstatus,8
800041b8:	0300006f          	j	800041e8 <k_sched_unlock+0x48>
		++_current->base.sched_locked;
800041bc:	800077b7          	lui	a5,0x80007
800041c0:	f5078793          	addi	a5,a5,-176 # 80006f50 <CONFIG_SYSTEM_WORKQUEUE_PRIORITY+0x80006f51>
800041c4:	0087a703          	lw	a4,8(a5)
800041c8:	00f74783          	lbu	a5,15(a4)
800041cc:	00178793          	addi	a5,a5,1
800041d0:	00f707a3          	sb	a5,15(a4)
		update_cache(0);
800041d4:	00000513          	li	a0,0
800041d8:	f24ff0ef          	jal	ra,800038fc <update_cache>
			  : "r" (key & MSTATUS_IEN)
800041dc:	00847793          	andi	a5,s0,8
	__asm__ volatile ("csrs mstatus, %0"
800041e0:	3007a073          	csrs	mstatus,a5
	LOCKED(&sched_spinlock) {
800041e4:	00100793          	li	a5,1
800041e8:	fc078ae3          	beqz	a5,800041bc <k_sched_unlock+0x1c>
	__asm__ volatile ("csrrc %0, mstatus, %1"
800041ec:	30047573          	csrrci	a0,mstatus,8
	(void) z_reschedule_irqlock(arch_irq_lock());
800041f0:	d50ff0ef          	jal	ra,80003740 <z_reschedule_irqlock>
}
800041f4:	00c12083          	lw	ra,12(sp)
800041f8:	00812403          	lw	s0,8(sp)
800041fc:	01010113          	addi	sp,sp,16
80004200:	00008067          	ret

80004204 <end_thread>:
80004204:	00308013          	addi	zero,ra,3
	if ((thread->base.thread_state & _THREAD_DEAD) == 0U) {
80004208:	00d54783          	lbu	a5,13(a0)
8000420c:	0087f713          	andi	a4,a5,8
80004210:	08071663          	bnez	a4,8000429c <end_thread+0x98>
{
80004214:	ff010113          	addi	sp,sp,-16
80004218:	00112623          	sw	ra,12(sp)
8000421c:	00812423          	sw	s0,8(sp)
80004220:	00050413          	mv	s0,a0
		thread->base.thread_state |= _THREAD_DEAD;
80004224:	0087e713          	ori	a4,a5,8
80004228:	00e506a3          	sb	a4,13(a0)
		thread->base.thread_state &= ~_THREAD_ABORTING;
8000422c:	fdf7f713          	andi	a4,a5,-33
80004230:	00876713          	ori	a4,a4,8
80004234:	00e506a3          	sb	a4,13(a0)
		if (z_is_thread_queued(thread)) {
80004238:	01871713          	slli	a4,a4,0x18
8000423c:	41875713          	srai	a4,a4,0x18
80004240:	02074e63          	bltz	a4,8000427c <end_thread+0x78>
		if (thread->base.pended_on != NULL) {
80004244:	00842783          	lw	a5,8(s0)
80004248:	00078663          	beqz	a5,80004254 <end_thread+0x50>
			unpend_thread_no_timeout(thread);
8000424c:	00040513          	mv	a0,s0
80004250:	e50ff0ef          	jal	ra,800038a0 <unpend_thread_no_timeout>
80004254:	01840513          	addi	a0,s0,24
80004258:	518000ef          	jal	ra,80004770 <z_abort_timeout>
		unpend_all(&thread->join_queue);
8000425c:	06c40513          	addi	a0,s0,108
80004260:	b99ff0ef          	jal	ra,80003df8 <unpend_all>
		update_cache(1);
80004264:	00100513          	li	a0,1
80004268:	e94ff0ef          	jal	ra,800038fc <update_cache>
}
8000426c:	00c12083          	lw	ra,12(sp)
80004270:	00812403          	lw	s0,8(sp)
80004274:	01010113          	addi	sp,sp,16
80004278:	00008067          	ret
	thread->base.thread_state &= ~_THREAD_QUEUED;
8000427c:	05f7f793          	andi	a5,a5,95
80004280:	0087e793          	ori	a5,a5,8
80004284:	00f506a3          	sb	a5,13(a0)
	_priq_run_remove(thread_runq(thread), thread);
80004288:	00050593          	mv	a1,a0
8000428c:	80007537          	lui	a0,0x80007
80004290:	f6c50513          	addi	a0,a0,-148 # 80006f6c <CONFIG_SYSTEM_WORKQUEUE_PRIORITY+0x80006f6d>
80004294:	decff0ef          	jal	ra,80003880 <z_priq_dumb_remove>
}
80004298:	fadff06f          	j	80004244 <end_thread+0x40>
8000429c:	00008067          	ret

800042a0 <z_unpend_first_thread>:
800042a0:	00308013          	addi	zero,ra,3
{
800042a4:	ff010113          	addi	sp,sp,-16
800042a8:	00112623          	sw	ra,12(sp)
800042ac:	00812423          	sw	s0,8(sp)
800042b0:	00912223          	sw	s1,4(sp)
800042b4:	01212023          	sw	s2,0(sp)
800042b8:	00050493          	mv	s1,a0
	LOCKED(&sched_spinlock) {
800042bc:	00000793          	li	a5,0
800042c0:	30047973          	csrrci	s2,mstatus,8
	struct k_thread *thread = NULL;
800042c4:	00000413          	li	s0,0
800042c8:	0100006f          	j	800042d8 <z_unpend_first_thread+0x38>
			  : "r" (key & MSTATUS_IEN)
800042cc:	00897793          	andi	a5,s2,8
	__asm__ volatile ("csrs mstatus, %0"
800042d0:	3007a073          	csrs	mstatus,a5
	LOCKED(&sched_spinlock) {
800042d4:	00100793          	li	a5,1
800042d8:	02079263          	bnez	a5,800042fc <z_unpend_first_thread+0x5c>
		thread = _priq_wait_best(&wait_q->waitq);
800042dc:	00048513          	mv	a0,s1
800042e0:	e00ff0ef          	jal	ra,800038e0 <z_priq_dumb_best>
800042e4:	00050413          	mv	s0,a0
		if (thread != NULL) {
800042e8:	fe0502e3          	beqz	a0,800042cc <z_unpend_first_thread+0x2c>
			unpend_thread_no_timeout(thread);
800042ec:	db4ff0ef          	jal	ra,800038a0 <unpend_thread_no_timeout>
800042f0:	01840513          	addi	a0,s0,24
800042f4:	47c000ef          	jal	ra,80004770 <z_abort_timeout>
800042f8:	fd5ff06f          	j	800042cc <z_unpend_first_thread+0x2c>
}
800042fc:	00040513          	mv	a0,s0
80004300:	00c12083          	lw	ra,12(sp)
80004304:	00812403          	lw	s0,8(sp)
80004308:	00412483          	lw	s1,4(sp)
8000430c:	00012903          	lw	s2,0(sp)
80004310:	01010113          	addi	sp,sp,16
80004314:	00008067          	ret

80004318 <init_ready_q>:
80004318:	00308013          	addi	zero,ra,3
	sys_dlist_init(&rq->runq);
8000431c:	00450793          	addi	a5,a0,4
	list->head = (sys_dnode_t *)list;
80004320:	00f52223          	sw	a5,4(a0)
	list->tail = (sys_dnode_t *)list;
80004324:	00f52423          	sw	a5,8(a0)
}
80004328:	00008067          	ret

8000432c <z_sched_init>:
8000432c:	00308013          	addi	zero,ra,3
{
80004330:	ff010113          	addi	sp,sp,-16
80004334:	00112623          	sw	ra,12(sp)
	init_ready_q(&_kernel.ready_q);
80004338:	80007537          	lui	a0,0x80007
8000433c:	f6850513          	addi	a0,a0,-152 # 80006f68 <CONFIG_SYSTEM_WORKQUEUE_PRIORITY+0x80006f69>
80004340:	fd9ff0ef          	jal	ra,80004318 <init_ready_q>
	k_sched_time_slice_set(CONFIG_TIMESLICE_SIZE,
80004344:	00000593          	li	a1,0
80004348:	00000513          	li	a0,0
8000434c:	a5cff0ef          	jal	ra,800035a8 <k_sched_time_slice_set>
}
80004350:	00c12083          	lw	ra,12(sp)
80004354:	01010113          	addi	sp,sp,16
80004358:	00008067          	ret

8000435c <z_impl_z_current_get>:
8000435c:	00308013          	addi	zero,ra,3
	k_tid_t ret = _current_cpu->current;
80004360:	800077b7          	lui	a5,0x80007
}
80004364:	f5078793          	addi	a5,a5,-176 # 80006f50 <CONFIG_SYSTEM_WORKQUEUE_PRIORITY+0x80006f51>
80004368:	0087a503          	lw	a0,8(a5)
8000436c:	00008067          	ret

80004370 <z_thread_abort>:
80004370:	00308013          	addi	zero,ra,3
{
80004374:	ff010113          	addi	sp,sp,-16
80004378:	00112623          	sw	ra,12(sp)
8000437c:	00812423          	sw	s0,8(sp)
80004380:	00912223          	sw	s1,4(sp)
	__asm__ volatile ("csrrc %0, mstatus, %1"
80004384:	300474f3          	csrrci	s1,mstatus,8
	if ((thread->base.user_options & K_ESSENTIAL) != 0) {
80004388:	00c54783          	lbu	a5,12(a0)
8000438c:	0017f793          	andi	a5,a5,1
80004390:	02079063          	bnez	a5,800043b0 <z_thread_abort+0x40>
80004394:	00050413          	mv	s0,a0
	if ((thread->base.thread_state & _THREAD_DEAD) != 0U) {
80004398:	00d54783          	lbu	a5,13(a0)
8000439c:	0087f793          	andi	a5,a5,8
800043a0:	02078c63          	beqz	a5,800043d8 <z_thread_abort+0x68>
	__asm__ volatile ("csrs mstatus, %0"
800043a4:	0084f493          	andi	s1,s1,8
800043a8:	3004a073          	csrs	mstatus,s1
		return;
800043ac:	0180006f          	j	800043c4 <z_thread_abort+0x54>
800043b0:	0084f493          	andi	s1,s1,8
800043b4:	3004a073          	csrs	mstatus,s1
	return a0;
}

static inline uintptr_t arch_syscall_invoke1(uintptr_t arg1, uintptr_t call_id)
{
	register unsigned long a0 __asm__ ("a0") = arg1;
800043b8:	00400513          	li	a0,4
	register unsigned long t0 __asm__ ("t0") = call_id;
800043bc:	00000293          	li	t0,0

	__asm__ volatile ("ecall"
800043c0:	00000073          	ecall
}
800043c4:	00c12083          	lw	ra,12(sp)
800043c8:	00812403          	lw	s0,8(sp)
800043cc:	00412483          	lw	s1,4(sp)
800043d0:	01010113          	addi	sp,sp,16
800043d4:	00008067          	ret
	end_thread(thread);
800043d8:	e2dff0ef          	jal	ra,80004204 <end_thread>
	if (thread == _current && !arch_is_in_isr()) {
800043dc:	800077b7          	lui	a5,0x80007
800043e0:	f5078793          	addi	a5,a5,-176 # 80006f50 <CONFIG_SYSTEM_WORKQUEUE_PRIORITY+0x80006f51>
800043e4:	0087a783          	lw	a5,8(a5)
800043e8:	00878863          	beq	a5,s0,800043f8 <z_thread_abort+0x88>
800043ec:	0084f493          	andi	s1,s1,8
800043f0:	3004a073          	csrs	mstatus,s1
800043f4:	fd1ff06f          	j	800043c4 <z_thread_abort+0x54>
800043f8:	800077b7          	lui	a5,0x80007
800043fc:	f507a783          	lw	a5,-176(a5) # 80006f50 <CONFIG_SYSTEM_WORKQUEUE_PRIORITY+0x80006f51>
80004400:	fe0796e3          	bnez	a5,800043ec <z_thread_abort+0x7c>
		z_swap(&sched_spinlock, key);
80004404:	00048593          	mv	a1,s1
80004408:	80007537          	lui	a0,0x80007
8000440c:	f7450513          	addi	a0,a0,-140 # 80006f74 <CONFIG_SYSTEM_WORKQUEUE_PRIORITY+0x80006f75>
80004410:	b68ff0ef          	jal	ra,80003778 <z_swap>
80004414:	fd9ff06f          	j	800043ec <z_thread_abort+0x7c>

80004418 <z_impl_k_thread_abort>:
80004418:	00308013          	addi	zero,ra,3
{
8000441c:	ff010113          	addi	sp,sp,-16
80004420:	00112623          	sw	ra,12(sp)
	z_thread_abort(thread);
80004424:	f4dff0ef          	jal	ra,80004370 <z_thread_abort>
}
80004428:	00c12083          	lw	ra,12(sp)
8000442c:	01010113          	addi	sp,sp,16
80004430:	00008067          	ret

80004434 <first>:
80004434:	00308013          	addi	zero,ra,3
	return list->head == list;
80004438:	80c18793          	addi	a5,gp,-2036 # 800093fc <timeout_list>
8000443c:	0007a503          	lw	a0,0(a5)
	return sys_dlist_is_empty(list) ? NULL : list->head;
80004440:	00f50463          	beq	a0,a5,80004448 <first+0x14>
}
80004444:	00008067          	ret
80004448:	00000513          	li	a0,0
	return t == NULL ? NULL : CONTAINER_OF(t, struct _timeout, node);
8000444c:	ff9ff06f          	j	80004444 <first+0x10>

80004450 <next>:
80004450:	00308013          	addi	zero,ra,3
	return (node != NULL) ? sys_dlist_peek_next_no_check(list, node) : NULL;
80004454:	00050e63          	beqz	a0,80004470 <next+0x20>
	return (node == list->tail) ? NULL : node->next;
80004458:	80c18713          	addi	a4,gp,-2036 # 800093fc <timeout_list>
8000445c:	00472703          	lw	a4,4(a4)
80004460:	00e50663          	beq	a0,a4,8000446c <next+0x1c>
80004464:	00052503          	lw	a0,0(a0)
80004468:	00008067          	ret
8000446c:	00000513          	li	a0,0
}
80004470:	00008067          	ret

80004474 <remove_timeout>:
80004474:	00308013          	addi	zero,ra,3
{
80004478:	ff010113          	addi	sp,sp,-16
8000447c:	00112623          	sw	ra,12(sp)
80004480:	00812423          	sw	s0,8(sp)
80004484:	00050413          	mv	s0,a0
	if (next(t) != NULL) {
80004488:	fc9ff0ef          	jal	ra,80004450 <next>
8000448c:	02050663          	beqz	a0,800044b8 <remove_timeout+0x44>
		next(t)->dticks += t->dticks;
80004490:	01052783          	lw	a5,16(a0)
80004494:	01452683          	lw	a3,20(a0)
80004498:	01042703          	lw	a4,16(s0)
8000449c:	01442603          	lw	a2,20(s0)
800044a0:	00e78733          	add	a4,a5,a4
800044a4:	00f737b3          	sltu	a5,a4,a5
800044a8:	00c686b3          	add	a3,a3,a2
800044ac:	00d787b3          	add	a5,a5,a3
800044b0:	00e52823          	sw	a4,16(a0)
800044b4:	00f52a23          	sw	a5,20(a0)
	sys_dnode_t *const prev = node->prev;
800044b8:	00442703          	lw	a4,4(s0)
	sys_dnode_t *const next = node->next;
800044bc:	00042783          	lw	a5,0(s0)
	prev->next = next;
800044c0:	00f72023          	sw	a5,0(a4)
	next->prev = prev;
800044c4:	00e7a223          	sw	a4,4(a5)
	node->next = NULL;
800044c8:	00042023          	sw	zero,0(s0)
	node->prev = NULL;
800044cc:	00042223          	sw	zero,4(s0)
}
800044d0:	00c12083          	lw	ra,12(sp)
800044d4:	00812403          	lw	s0,8(sp)
800044d8:	01010113          	addi	sp,sp,16
800044dc:	00008067          	ret

800044e0 <elapsed>:
800044e0:	00308013          	addi	zero,ra,3
	return announce_remaining == 0 ? sys_clock_elapsed() : 0U;
800044e4:	800077b7          	lui	a5,0x80007
800044e8:	e287a783          	lw	a5,-472(a5) # 80006e28 <CONFIG_SYSTEM_WORKQUEUE_PRIORITY+0x80006e29>
800044ec:	00078663          	beqz	a5,800044f8 <elapsed+0x18>
800044f0:	00000513          	li	a0,0
}
800044f4:	00008067          	ret
{
800044f8:	ff010113          	addi	sp,sp,-16
800044fc:	00112623          	sw	ra,12(sp)
	return announce_remaining == 0 ? sys_clock_elapsed() : 0U;
80004500:	cf4fe0ef          	jal	ra,800029f4 <sys_clock_elapsed>
}
80004504:	00c12083          	lw	ra,12(sp)
80004508:	01010113          	addi	sp,sp,16
8000450c:	00008067          	ret

80004510 <next_timeout>:
80004510:	00308013          	addi	zero,ra,3
{
80004514:	ff010113          	addi	sp,sp,-16
80004518:	00112623          	sw	ra,12(sp)
8000451c:	00812423          	sw	s0,8(sp)
	struct _timeout *to = first();
80004520:	f15ff0ef          	jal	ra,80004434 <first>
80004524:	00050413          	mv	s0,a0
	int32_t ticks_elapsed = elapsed();
80004528:	fb9ff0ef          	jal	ra,800044e0 <elapsed>
	if ((to == NULL) ||
8000452c:	02040c63          	beqz	s0,80004564 <next_timeout+0x54>
	    ((int64_t)(to->dticks - ticks_elapsed) > (int64_t)INT_MAX)) {
80004530:	01042703          	lw	a4,16(s0)
80004534:	01442783          	lw	a5,20(s0)
80004538:	41f55693          	srai	a3,a0,0x1f
8000453c:	40a70533          	sub	a0,a4,a0
80004540:	00a73733          	sltu	a4,a4,a0
80004544:	40d787b3          	sub	a5,a5,a3
80004548:	40e787b3          	sub	a5,a5,a4
	if ((to == NULL) ||
8000454c:	02f04263          	bgtz	a5,80004570 <next_timeout+0x60>
80004550:	00079463          	bnez	a5,80004558 <next_timeout+0x48>
80004554:	00054e63          	bltz	a0,80004570 <next_timeout+0x60>
		ret = MAX(0, to->dticks - ticks_elapsed);
80004558:	0207d063          	bgez	a5,80004578 <next_timeout+0x68>
8000455c:	00000513          	li	a0,0
80004560:	0180006f          	j	80004578 <next_timeout+0x68>
		ret = MAX_WAIT;
80004564:	80000537          	lui	a0,0x80000
80004568:	fff54513          	not	a0,a0
8000456c:	00c0006f          	j	80004578 <next_timeout+0x68>
80004570:	80000537          	lui	a0,0x80000
80004574:	fff54513          	not	a0,a0
	if (_current_cpu->slice_ticks && _current_cpu->slice_ticks < ret) {
80004578:	800077b7          	lui	a5,0x80007
8000457c:	f5078793          	addi	a5,a5,-176 # 80006f50 <CONFIG_SYSTEM_WORKQUEUE_PRIORITY+0x80006f51>
80004580:	0107a783          	lw	a5,16(a5)
80004584:	00078663          	beqz	a5,80004590 <next_timeout+0x80>
80004588:	00a7d463          	bge	a5,a0,80004590 <next_timeout+0x80>
		ret = _current_cpu->slice_ticks;
8000458c:	00078513          	mv	a0,a5
}
80004590:	00c12083          	lw	ra,12(sp)
80004594:	00812403          	lw	s0,8(sp)
80004598:	01010113          	addi	sp,sp,16
8000459c:	00008067          	ret

800045a0 <z_add_timeout>:
800045a0:	00308013          	addi	zero,ra,3
{
800045a4:	fe010113          	addi	sp,sp,-32
800045a8:	00112e23          	sw	ra,28(sp)
800045ac:	00812c23          	sw	s0,24(sp)
800045b0:	00912a23          	sw	s1,20(sp)
800045b4:	01212823          	sw	s2,16(sp)
800045b8:	01312623          	sw	s3,12(sp)
800045bc:	01412423          	sw	s4,8(sp)
800045c0:	01512223          	sw	s5,4(sp)
800045c4:	00050413          	mv	s0,a0
800045c8:	00060493          	mv	s1,a2
800045cc:	00068913          	mv	s2,a3
	if (K_TIMEOUT_EQ(timeout, K_FOREVER)) {
800045d0:	fff00793          	li	a5,-1
800045d4:	00c78a63          	beq	a5,a2,800045e8 <z_add_timeout+0x48>
	to->fn = fn;
800045d8:	00b42423          	sw	a1,8(s0)
	LOCKED(&timeout_lock) {
800045dc:	00000793          	li	a5,0
	__asm__ volatile ("csrrc %0, mstatus, %1"
800045e0:	300479f3          	csrrci	s3,mstatus,8
800045e4:	1080006f          	j	800046ec <z_add_timeout+0x14c>
	if (K_TIMEOUT_EQ(timeout, K_FOREVER)) {
800045e8:	fef698e3          	bne	a3,a5,800045d8 <z_add_timeout+0x38>
}
800045ec:	01c12083          	lw	ra,28(sp)
800045f0:	01812403          	lw	s0,24(sp)
800045f4:	01412483          	lw	s1,20(sp)
800045f8:	01012903          	lw	s2,16(sp)
800045fc:	00c12983          	lw	s3,12(sp)
80004600:	00812a03          	lw	s4,8(sp)
80004604:	00412a83          	lw	s5,4(sp)
80004608:	02010113          	addi	sp,sp,32
8000460c:	00008067          	ret
			to->dticks = MAX(1, ticks);
80004610:	00071463          	bnez	a4,80004618 <z_add_timeout+0x78>
80004614:	12079463          	bnez	a5,8000473c <z_add_timeout+0x19c>
80004618:	00100793          	li	a5,1
8000461c:	00000713          	li	a4,0
80004620:	11c0006f          	j	8000473c <z_add_timeout+0x19c>
			to->dticks = timeout.ticks + 1 + elapsed();
80004624:	00148a13          	addi	s4,s1,1
80004628:	009a3ab3          	sltu	s5,s4,s1
8000462c:	012a8ab3          	add	s5,s5,s2
80004630:	eb1ff0ef          	jal	ra,800044e0 <elapsed>
80004634:	41f55713          	srai	a4,a0,0x1f
80004638:	00aa07b3          	add	a5,s4,a0
8000463c:	0147ba33          	sltu	s4,a5,s4
80004640:	00ea8ab3          	add	s5,s5,a4
80004644:	015a0a33          	add	s4,s4,s5
80004648:	00f42823          	sw	a5,16(s0)
8000464c:	01442a23          	sw	s4,20(s0)
80004650:	0f40006f          	j	80004744 <z_add_timeout+0x1a4>
			to->dticks -= t->dticks;
80004654:	40d706b3          	sub	a3,a4,a3
80004658:	00d73733          	sltu	a4,a4,a3
8000465c:	40c787b3          	sub	a5,a5,a2
80004660:	40e787b3          	sub	a5,a5,a4
80004664:	00d42823          	sw	a3,16(s0)
80004668:	00f42a23          	sw	a5,20(s0)
		for (t = first(); t != NULL; t = next(t)) {
8000466c:	de5ff0ef          	jal	ra,80004450 <next>
80004670:	04050863          	beqz	a0,800046c0 <z_add_timeout+0x120>
			if (t->dticks > to->dticks) {
80004674:	01052683          	lw	a3,16(a0) # 80000010 <CONFIG_SYSTEM_WORKQUEUE_PRIORITY+0x80000011>
80004678:	01452603          	lw	a2,20(a0)
8000467c:	01042703          	lw	a4,16(s0)
80004680:	01442783          	lw	a5,20(s0)
80004684:	00c7c663          	blt	a5,a2,80004690 <z_add_timeout+0xf0>
80004688:	fcf616e3          	bne	a2,a5,80004654 <z_add_timeout+0xb4>
8000468c:	fcd774e3          	bgeu	a4,a3,80004654 <z_add_timeout+0xb4>
				t->dticks -= to->dticks;
80004690:	40e68733          	sub	a4,a3,a4
80004694:	00e6b6b3          	sltu	a3,a3,a4
80004698:	40f60633          	sub	a2,a2,a5
8000469c:	40d60633          	sub	a2,a2,a3
800046a0:	00e52823          	sw	a4,16(a0)
800046a4:	00c52a23          	sw	a2,20(a0)
	sys_dnode_t *const prev = successor->prev;
800046a8:	00452783          	lw	a5,4(a0)
	node->prev = prev;
800046ac:	00f42223          	sw	a5,4(s0)
	node->next = successor;
800046b0:	00a42023          	sw	a0,0(s0)
	prev->next = node;
800046b4:	0087a023          	sw	s0,0(a5)
	successor->prev = node;
800046b8:	00852223          	sw	s0,4(a0)
		if (t == NULL) {
800046bc:	01c0006f          	j	800046d8 <z_add_timeout+0x138>
	sys_dnode_t *const tail = list->tail;
800046c0:	80c18793          	addi	a5,gp,-2036 # 800093fc <timeout_list>
800046c4:	0047a703          	lw	a4,4(a5)
	node->next = list;
800046c8:	00f42023          	sw	a5,0(s0)
	node->prev = tail;
800046cc:	00e42223          	sw	a4,4(s0)
	tail->next = node;
800046d0:	00872023          	sw	s0,0(a4)
	list->tail = node;
800046d4:	0087a223          	sw	s0,4(a5)
		if (to == first()) {
800046d8:	d5dff0ef          	jal	ra,80004434 <first>
800046dc:	06a40863          	beq	s0,a0,8000474c <z_add_timeout+0x1ac>
			  : "r" (key & MSTATUS_IEN)
800046e0:	0089f793          	andi	a5,s3,8
	__asm__ volatile ("csrs mstatus, %0"
800046e4:	3007a073          	csrs	mstatus,a5
	LOCKED(&timeout_lock) {
800046e8:	00100793          	li	a5,1
800046ec:	f00790e3          	bnez	a5,800045ec <z_add_timeout+0x4c>
		    Z_TICK_ABS(timeout.ticks) >= 0) {
800046f0:	ffe00793          	li	a5,-2
800046f4:	40978733          	sub	a4,a5,s1
800046f8:	00e7b733          	sltu	a4,a5,a4
800046fc:	fff94793          	not	a5,s2
80004700:	40e787b3          	sub	a5,a5,a4
		if (IS_ENABLED(CONFIG_TIMEOUT_64BIT) &&
80004704:	f207c0e3          	bltz	a5,80004624 <z_add_timeout+0x84>
			k_ticks_t ticks = Z_TICK_ABS(timeout.ticks) - curr_tick;
80004708:	80007737          	lui	a4,0x80007
8000470c:	e0072783          	lw	a5,-512(a4) # 80006e00 <CONFIG_SYSTEM_WORKQUEUE_PRIORITY+0x80006e01>
80004710:	e0472683          	lw	a3,-508(a4)
80004714:	009787b3          	add	a5,a5,s1
80004718:	0097b733          	sltu	a4,a5,s1
8000471c:	012686b3          	add	a3,a3,s2
80004720:	00d70733          	add	a4,a4,a3
80004724:	ffe00693          	li	a3,-2
80004728:	40f687b3          	sub	a5,a3,a5
8000472c:	00f6b6b3          	sltu	a3,a3,a5
80004730:	fff74713          	not	a4,a4
			to->dticks = MAX(1, ticks);
80004734:	40d70733          	sub	a4,a4,a3
80004738:	ece05ce3          	blez	a4,80004610 <z_add_timeout+0x70>
8000473c:	00f42823          	sw	a5,16(s0)
80004740:	00e42a23          	sw	a4,20(s0)
		for (t = first(); t != NULL; t = next(t)) {
80004744:	cf1ff0ef          	jal	ra,80004434 <first>
80004748:	f29ff06f          	j	80004670 <z_add_timeout+0xd0>
			int32_t next_time = next_timeout();
8000474c:	dc5ff0ef          	jal	ra,80004510 <next_timeout>
			if (next_time == 0 ||
80004750:	00050a63          	beqz	a0,80004764 <z_add_timeout+0x1c4>
			    _current_cpu->slice_ticks != next_time) {
80004754:	800077b7          	lui	a5,0x80007
80004758:	f5078793          	addi	a5,a5,-176 # 80006f50 <CONFIG_SYSTEM_WORKQUEUE_PRIORITY+0x80006f51>
8000475c:	0107a783          	lw	a5,16(a5)
			if (next_time == 0 ||
80004760:	f8a780e3          	beq	a5,a0,800046e0 <z_add_timeout+0x140>
				sys_clock_set_timeout(next_time, false);
80004764:	00000593          	li	a1,0
80004768:	9acfe0ef          	jal	ra,80002914 <sys_clock_set_timeout>
8000476c:	f75ff06f          	j	800046e0 <z_add_timeout+0x140>

80004770 <z_abort_timeout>:
80004770:	00308013          	addi	zero,ra,3
{
80004774:	ff010113          	addi	sp,sp,-16
80004778:	00112623          	sw	ra,12(sp)
8000477c:	00812423          	sw	s0,8(sp)
80004780:	00912223          	sw	s1,4(sp)
80004784:	01212023          	sw	s2,0(sp)
80004788:	00050493          	mv	s1,a0
	LOCKED(&timeout_lock) {
8000478c:	00000413          	li	s0,0
	__asm__ volatile ("csrrc %0, mstatus, %1"
80004790:	30047973          	csrrci	s2,mstatus,8
	int ret = -EINVAL;
80004794:	fea00513          	li	a0,-22
80004798:	0100006f          	j	800047a8 <z_abort_timeout+0x38>
			  : "r" (key & MSTATUS_IEN)
8000479c:	00897793          	andi	a5,s2,8
	__asm__ volatile ("csrs mstatus, %0"
800047a0:	3007a073          	csrs	mstatus,a5
	LOCKED(&timeout_lock) {
800047a4:	00100413          	li	s0,1
800047a8:	00041e63          	bnez	s0,800047c4 <z_abort_timeout+0x54>
	return node->next != NULL;
800047ac:	0004a783          	lw	a5,0(s1)
		if (sys_dnode_is_linked(&to->node)) {
800047b0:	fe0786e3          	beqz	a5,8000479c <z_abort_timeout+0x2c>
			remove_timeout(to);
800047b4:	00048513          	mv	a0,s1
800047b8:	cbdff0ef          	jal	ra,80004474 <remove_timeout>
			ret = 0;
800047bc:	00040513          	mv	a0,s0
800047c0:	fddff06f          	j	8000479c <z_abort_timeout+0x2c>
}
800047c4:	00c12083          	lw	ra,12(sp)
800047c8:	00812403          	lw	s0,8(sp)
800047cc:	00412483          	lw	s1,4(sp)
800047d0:	00012903          	lw	s2,0(sp)
800047d4:	01010113          	addi	sp,sp,16
800047d8:	00008067          	ret

800047dc <z_set_timeout_expiry>:
800047dc:	00308013          	addi	zero,ra,3
{
800047e0:	fe010113          	addi	sp,sp,-32
800047e4:	00112e23          	sw	ra,28(sp)
800047e8:	00812c23          	sw	s0,24(sp)
800047ec:	00912a23          	sw	s1,20(sp)
800047f0:	01212823          	sw	s2,16(sp)
800047f4:	01312623          	sw	s3,12(sp)
800047f8:	00050493          	mv	s1,a0
800047fc:	00058993          	mv	s3,a1
	LOCKED(&timeout_lock) {
80004800:	00000413          	li	s0,0
	__asm__ volatile ("csrrc %0, mstatus, %1"
80004804:	30047973          	csrrci	s2,mstatus,8
80004808:	0240006f          	j	8000482c <z_set_timeout_expiry+0x50>
			      || (ticks <= next_to);
8000480c:	00100413          	li	s0,1
		bool sooner = (next_to == K_TICKS_FOREVER)
80004810:	00147413          	andi	s0,s0,1
		if (!imminent && (sooner || IS_ENABLED(CONFIG_SMP))) {
80004814:	00100793          	li	a5,1
80004818:	00a7d463          	bge	a5,a0,80004820 <z_set_timeout_expiry+0x44>
8000481c:	02041663          	bnez	s0,80004848 <z_set_timeout_expiry+0x6c>
			  : "r" (key & MSTATUS_IEN)
80004820:	00897793          	andi	a5,s2,8
	__asm__ volatile ("csrs mstatus, %0"
80004824:	3007a073          	csrs	mstatus,a5
	LOCKED(&timeout_lock) {
80004828:	00100413          	li	s0,1
8000482c:	02041863          	bnez	s0,8000485c <z_set_timeout_expiry+0x80>
		int next_to = next_timeout();
80004830:	ce1ff0ef          	jal	ra,80004510 <next_timeout>
			      || (ticks <= next_to);
80004834:	fff00793          	li	a5,-1
80004838:	fcf50ae3          	beq	a0,a5,8000480c <z_set_timeout_expiry+0x30>
8000483c:	fc954ae3          	blt	a0,s1,80004810 <z_set_timeout_expiry+0x34>
80004840:	00100413          	li	s0,1
80004844:	fcdff06f          	j	80004810 <z_set_timeout_expiry+0x34>
			sys_clock_set_timeout(MIN(ticks, next_to), is_idle);
80004848:	00a4d463          	bge	s1,a0,80004850 <z_set_timeout_expiry+0x74>
8000484c:	00048513          	mv	a0,s1
80004850:	00098593          	mv	a1,s3
80004854:	8c0fe0ef          	jal	ra,80002914 <sys_clock_set_timeout>
80004858:	fc9ff06f          	j	80004820 <z_set_timeout_expiry+0x44>
}
8000485c:	01c12083          	lw	ra,28(sp)
80004860:	01812403          	lw	s0,24(sp)
80004864:	01412483          	lw	s1,20(sp)
80004868:	01012903          	lw	s2,16(sp)
8000486c:	00c12983          	lw	s3,12(sp)
80004870:	02010113          	addi	sp,sp,32
80004874:	00008067          	ret

80004878 <sys_clock_announce>:
80004878:	00308013          	addi	zero,ra,3
{
8000487c:	ff010113          	addi	sp,sp,-16
80004880:	00112623          	sw	ra,12(sp)
80004884:	00812423          	sw	s0,8(sp)
80004888:	00912223          	sw	s1,4(sp)
8000488c:	01212023          	sw	s2,0(sp)
80004890:	00050413          	mv	s0,a0
	z_time_slice(ticks);
80004894:	a7cff0ef          	jal	ra,80003b10 <z_time_slice>
	__asm__ volatile ("csrrc %0, mstatus, %1"
80004898:	300474f3          	csrrci	s1,mstatus,8
	announce_remaining = ticks;
8000489c:	800077b7          	lui	a5,0x80007
800048a0:	e287a423          	sw	s0,-472(a5) # 80006e28 <CONFIG_SYSTEM_WORKQUEUE_PRIORITY+0x80006e29>
	while (first() != NULL && first()->dticks <= announce_remaining) {
800048a4:	06c0006f          	j	80004910 <sys_clock_announce+0x98>
		curr_tick += dt;
800048a8:	80007737          	lui	a4,0x80007
800048ac:	41f95593          	srai	a1,s2,0x1f
800048b0:	e0072783          	lw	a5,-512(a4) # 80006e00 <CONFIG_SYSTEM_WORKQUEUE_PRIORITY+0x80006e01>
800048b4:	e0472683          	lw	a3,-508(a4)
800048b8:	01278633          	add	a2,a5,s2
800048bc:	00f637b3          	sltu	a5,a2,a5
800048c0:	00b686b3          	add	a3,a3,a1
800048c4:	00d787b3          	add	a5,a5,a3
800048c8:	e0c72023          	sw	a2,-512(a4)
800048cc:	e0f72223          	sw	a5,-508(a4)
		t->dticks = 0;
800048d0:	00000793          	li	a5,0
800048d4:	00000813          	li	a6,0
800048d8:	00f42823          	sw	a5,16(s0)
800048dc:	01042a23          	sw	a6,20(s0)
		remove_timeout(t);
800048e0:	00040513          	mv	a0,s0
800048e4:	b91ff0ef          	jal	ra,80004474 <remove_timeout>
			  : "r" (key & MSTATUS_IEN)
800048e8:	0084f493          	andi	s1,s1,8
	__asm__ volatile ("csrs mstatus, %0"
800048ec:	3004a073          	csrs	mstatus,s1
		t->fn(t);
800048f0:	00842783          	lw	a5,8(s0)
800048f4:	00040513          	mv	a0,s0
800048f8:	000780e7          	jalr	a5
	__asm__ volatile ("csrrc %0, mstatus, %1"
800048fc:	300474f3          	csrrci	s1,mstatus,8
		announce_remaining -= dt;
80004900:	80007737          	lui	a4,0x80007
80004904:	e2872783          	lw	a5,-472(a4) # 80006e28 <CONFIG_SYSTEM_WORKQUEUE_PRIORITY+0x80006e29>
80004908:	412787b3          	sub	a5,a5,s2
8000490c:	e2f72423          	sw	a5,-472(a4)
	while (first() != NULL && first()->dticks <= announce_remaining) {
80004910:	b25ff0ef          	jal	ra,80004434 <first>
80004914:	00050413          	mv	s0,a0
80004918:	02050263          	beqz	a0,8000493c <sys_clock_announce+0xc4>
8000491c:	01052903          	lw	s2,16(a0)
80004920:	01452703          	lw	a4,20(a0)
80004924:	800077b7          	lui	a5,0x80007
80004928:	e287a683          	lw	a3,-472(a5) # 80006e28 <CONFIG_SYSTEM_WORKQUEUE_PRIORITY+0x80006e29>
8000492c:	41f6d793          	srai	a5,a3,0x1f
80004930:	00e7c663          	blt	a5,a4,8000493c <sys_clock_announce+0xc4>
80004934:	f6f71ae3          	bne	a4,a5,800048a8 <sys_clock_announce+0x30>
80004938:	f726f8e3          	bgeu	a3,s2,800048a8 <sys_clock_announce+0x30>
	if (first() != NULL) {
8000493c:	02040863          	beqz	s0,8000496c <sys_clock_announce+0xf4>
		first()->dticks -= announce_remaining;
80004940:	01042683          	lw	a3,16(s0)
80004944:	01442783          	lw	a5,20(s0)
80004948:	80007737          	lui	a4,0x80007
8000494c:	e2872703          	lw	a4,-472(a4) # 80006e28 <CONFIG_SYSTEM_WORKQUEUE_PRIORITY+0x80006e29>
80004950:	41f75613          	srai	a2,a4,0x1f
80004954:	40e68733          	sub	a4,a3,a4
80004958:	00e6b6b3          	sltu	a3,a3,a4
8000495c:	40c787b3          	sub	a5,a5,a2
80004960:	40d787b3          	sub	a5,a5,a3
80004964:	00e42823          	sw	a4,16(s0)
80004968:	00f42a23          	sw	a5,20(s0)
	curr_tick += announce_remaining;
8000496c:	800076b7          	lui	a3,0x80007
80004970:	800075b7          	lui	a1,0x80007
80004974:	e285a703          	lw	a4,-472(a1) # 80006e28 <CONFIG_SYSTEM_WORKQUEUE_PRIORITY+0x80006e29>
80004978:	41f75513          	srai	a0,a4,0x1f
8000497c:	e006a783          	lw	a5,-512(a3) # 80006e00 <CONFIG_SYSTEM_WORKQUEUE_PRIORITY+0x80006e01>
80004980:	e046a603          	lw	a2,-508(a3)
80004984:	00e78733          	add	a4,a5,a4
80004988:	00f737b3          	sltu	a5,a4,a5
8000498c:	00a60633          	add	a2,a2,a0
80004990:	00c787b3          	add	a5,a5,a2
80004994:	e0e6a023          	sw	a4,-512(a3)
80004998:	e0f6a223          	sw	a5,-508(a3)
	announce_remaining = 0;
8000499c:	e205a423          	sw	zero,-472(a1)
	sys_clock_set_timeout(next_timeout(), false);
800049a0:	b71ff0ef          	jal	ra,80004510 <next_timeout>
800049a4:	00000593          	li	a1,0
800049a8:	f6dfd0ef          	jal	ra,80002914 <sys_clock_set_timeout>
			  : "r" (key & MSTATUS_IEN)
800049ac:	0084f493          	andi	s1,s1,8
	__asm__ volatile ("csrs mstatus, %0"
800049b0:	3004a073          	csrs	mstatus,s1
}
800049b4:	00c12083          	lw	ra,12(sp)
800049b8:	00812403          	lw	s0,8(sp)
800049bc:	00412483          	lw	s1,4(sp)
800049c0:	00012903          	lw	s2,0(sp)
800049c4:	01010113          	addi	sp,sp,16
800049c8:	00008067          	ret

800049cc <boot_banner>:
800049cc:	00308013          	addi	zero,ra,3
{
800049d0:	ff010113          	addi	sp,sp,-16
800049d4:	00112623          	sw	ra,12(sp)
	printk("*** Booting Zephyr OS build %s %s ***\n",
800049d8:	80007637          	lui	a2,0x80007
800049dc:	8d460613          	addi	a2,a2,-1836 # 800068d4 <CONFIG_SYSTEM_WORKQUEUE_PRIORITY+0x800068d5>
800049e0:	800075b7          	lui	a1,0x80007
800049e4:	bb458593          	addi	a1,a1,-1100 # 80006bb4 <CONFIG_SYSTEM_WORKQUEUE_PRIORITY+0x80006bb5>
800049e8:	80007537          	lui	a0,0x80007
800049ec:	bd450513          	addi	a0,a0,-1068 # 80006bd4 <CONFIG_SYSTEM_WORKQUEUE_PRIORITY+0x80006bd5>
800049f0:	8f8fc0ef          	jal	ra,80000ae8 <printk>
}
800049f4:	00c12083          	lw	ra,12(sp)
800049f8:	01010113          	addi	sp,sp,16
800049fc:	00008067          	ret

80004a00 <_OffsetAbsSyms>:
80004a00:	00308013          	addi	zero,ra,3
GEN_ABS_SYM_END
80004a04:	00008067          	ret

80004a08 <malloc>:
80004a08:	00050593          	mv	a1,a0
80004a0c:	8141a503          	lw	a0,-2028(gp) # 80009404 <_impure_ptr>
80004a10:	1000006f          	j	80004b10 <_malloc_r>

80004a14 <_free_r>:
80004a14:	0e058c63          	beqz	a1,80004b0c <_free_r+0xf8>
80004a18:	ffc5a783          	lw	a5,-4(a1)
80004a1c:	fe010113          	addi	sp,sp,-32
80004a20:	00812c23          	sw	s0,24(sp)
80004a24:	00112e23          	sw	ra,28(sp)
80004a28:	ffc58413          	addi	s0,a1,-4
80004a2c:	0007d463          	bgez	a5,80004a34 <_free_r+0x20>
80004a30:	00f40433          	add	s0,s0,a5
80004a34:	00a12623          	sw	a0,12(sp)
80004a38:	6a8000ef          	jal	ra,800050e0 <__malloc_lock>
80004a3c:	80007737          	lui	a4,0x80007
80004a40:	e3072783          	lw	a5,-464(a4) # 80006e30 <CONFIG_SYSTEM_WORKQUEUE_PRIORITY+0x80006e31>
80004a44:	00c12503          	lw	a0,12(sp)
80004a48:	00079e63          	bnez	a5,80004a64 <_free_r+0x50>
80004a4c:	00042223          	sw	zero,4(s0)
80004a50:	e2872823          	sw	s0,-464(a4)
80004a54:	01812403          	lw	s0,24(sp)
80004a58:	01c12083          	lw	ra,28(sp)
80004a5c:	02010113          	addi	sp,sp,32
80004a60:	68c0006f          	j	800050ec <__malloc_unlock>
80004a64:	02f47463          	bgeu	s0,a5,80004a8c <_free_r+0x78>
80004a68:	00042603          	lw	a2,0(s0)
80004a6c:	00c406b3          	add	a3,s0,a2
80004a70:	00d79a63          	bne	a5,a3,80004a84 <_free_r+0x70>
80004a74:	0007a683          	lw	a3,0(a5)
80004a78:	0047a783          	lw	a5,4(a5)
80004a7c:	00c686b3          	add	a3,a3,a2
80004a80:	00d42023          	sw	a3,0(s0)
80004a84:	00f42223          	sw	a5,4(s0)
80004a88:	fc9ff06f          	j	80004a50 <_free_r+0x3c>
80004a8c:	00078713          	mv	a4,a5
80004a90:	0047a783          	lw	a5,4(a5)
80004a94:	00078463          	beqz	a5,80004a9c <_free_r+0x88>
80004a98:	fef47ae3          	bgeu	s0,a5,80004a8c <_free_r+0x78>
80004a9c:	00072683          	lw	a3,0(a4)
80004aa0:	00d70633          	add	a2,a4,a3
80004aa4:	02861863          	bne	a2,s0,80004ad4 <_free_r+0xc0>
80004aa8:	00042603          	lw	a2,0(s0)
80004aac:	00c686b3          	add	a3,a3,a2
80004ab0:	00d72023          	sw	a3,0(a4)
80004ab4:	00d70633          	add	a2,a4,a3
80004ab8:	f8c79ee3          	bne	a5,a2,80004a54 <_free_r+0x40>
80004abc:	0007a603          	lw	a2,0(a5)
80004ac0:	0047a783          	lw	a5,4(a5)
80004ac4:	00d606b3          	add	a3,a2,a3
80004ac8:	00d72023          	sw	a3,0(a4)
80004acc:	00f72223          	sw	a5,4(a4)
80004ad0:	f85ff06f          	j	80004a54 <_free_r+0x40>
80004ad4:	00c47863          	bgeu	s0,a2,80004ae4 <_free_r+0xd0>
80004ad8:	00c00793          	li	a5,12
80004adc:	00f52023          	sw	a5,0(a0)
80004ae0:	f75ff06f          	j	80004a54 <_free_r+0x40>
80004ae4:	00042603          	lw	a2,0(s0)
80004ae8:	00c406b3          	add	a3,s0,a2
80004aec:	00d79a63          	bne	a5,a3,80004b00 <_free_r+0xec>
80004af0:	0007a683          	lw	a3,0(a5)
80004af4:	0047a783          	lw	a5,4(a5)
80004af8:	00c686b3          	add	a3,a3,a2
80004afc:	00d42023          	sw	a3,0(s0)
80004b00:	00f42223          	sw	a5,4(s0)
80004b04:	00872223          	sw	s0,4(a4)
80004b08:	f4dff06f          	j	80004a54 <_free_r+0x40>
80004b0c:	00008067          	ret

80004b10 <_malloc_r>:
80004b10:	fe010113          	addi	sp,sp,-32
80004b14:	00912a23          	sw	s1,20(sp)
80004b18:	00358493          	addi	s1,a1,3
80004b1c:	ffc4f493          	andi	s1,s1,-4
80004b20:	01212823          	sw	s2,16(sp)
80004b24:	00112e23          	sw	ra,28(sp)
80004b28:	00812c23          	sw	s0,24(sp)
80004b2c:	01312623          	sw	s3,12(sp)
80004b30:	00848493          	addi	s1,s1,8
80004b34:	00c00793          	li	a5,12
80004b38:	00050913          	mv	s2,a0
80004b3c:	06f4f463          	bgeu	s1,a5,80004ba4 <_malloc_r+0x94>
80004b40:	00c00493          	li	s1,12
80004b44:	06b4e263          	bltu	s1,a1,80004ba8 <_malloc_r+0x98>
80004b48:	00090513          	mv	a0,s2
80004b4c:	594000ef          	jal	ra,800050e0 <__malloc_lock>
80004b50:	800076b7          	lui	a3,0x80007
80004b54:	e306a703          	lw	a4,-464(a3) # 80006e30 <CONFIG_SYSTEM_WORKQUEUE_PRIORITY+0x80006e31>
80004b58:	00070413          	mv	s0,a4
80004b5c:	06041a63          	bnez	s0,80004bd0 <_malloc_r+0xc0>
80004b60:	80007437          	lui	s0,0x80007
80004b64:	e2c42783          	lw	a5,-468(s0) # 80006e2c <CONFIG_SYSTEM_WORKQUEUE_PRIORITY+0x80006e2d>
80004b68:	00079a63          	bnez	a5,80004b7c <_malloc_r+0x6c>
80004b6c:	00000593          	li	a1,0
80004b70:	00090513          	mv	a0,s2
80004b74:	158000ef          	jal	ra,80004ccc <_sbrk_r>
80004b78:	e2a42623          	sw	a0,-468(s0)
80004b7c:	00048593          	mv	a1,s1
80004b80:	00090513          	mv	a0,s2
80004b84:	148000ef          	jal	ra,80004ccc <_sbrk_r>
80004b88:	fff00993          	li	s3,-1
80004b8c:	0b351a63          	bne	a0,s3,80004c40 <_malloc_r+0x130>
80004b90:	00c00793          	li	a5,12
80004b94:	00f92023          	sw	a5,0(s2)
80004b98:	00090513          	mv	a0,s2
80004b9c:	550000ef          	jal	ra,800050ec <__malloc_unlock>
80004ba0:	0100006f          	j	80004bb0 <_malloc_r+0xa0>
80004ba4:	fa04d0e3          	bgez	s1,80004b44 <_malloc_r+0x34>
80004ba8:	00c00793          	li	a5,12
80004bac:	00f92023          	sw	a5,0(s2)
80004bb0:	00000513          	li	a0,0
80004bb4:	01c12083          	lw	ra,28(sp)
80004bb8:	01812403          	lw	s0,24(sp)
80004bbc:	01412483          	lw	s1,20(sp)
80004bc0:	01012903          	lw	s2,16(sp)
80004bc4:	00c12983          	lw	s3,12(sp)
80004bc8:	02010113          	addi	sp,sp,32
80004bcc:	00008067          	ret
80004bd0:	00042783          	lw	a5,0(s0)
80004bd4:	409787b3          	sub	a5,a5,s1
80004bd8:	0407ce63          	bltz	a5,80004c34 <_malloc_r+0x124>
80004bdc:	00b00613          	li	a2,11
80004be0:	00f67a63          	bgeu	a2,a5,80004bf4 <_malloc_r+0xe4>
80004be4:	00f42023          	sw	a5,0(s0)
80004be8:	00f40433          	add	s0,s0,a5
80004bec:	00942023          	sw	s1,0(s0)
80004bf0:	0100006f          	j	80004c00 <_malloc_r+0xf0>
80004bf4:	00442783          	lw	a5,4(s0)
80004bf8:	02871a63          	bne	a4,s0,80004c2c <_malloc_r+0x11c>
80004bfc:	e2f6a823          	sw	a5,-464(a3)
80004c00:	00090513          	mv	a0,s2
80004c04:	4e8000ef          	jal	ra,800050ec <__malloc_unlock>
80004c08:	00b40513          	addi	a0,s0,11
80004c0c:	00440793          	addi	a5,s0,4
80004c10:	ff857513          	andi	a0,a0,-8
80004c14:	40f50733          	sub	a4,a0,a5
80004c18:	f8f50ee3          	beq	a0,a5,80004bb4 <_malloc_r+0xa4>
80004c1c:	00e40433          	add	s0,s0,a4
80004c20:	40a787b3          	sub	a5,a5,a0
80004c24:	00f42023          	sw	a5,0(s0)
80004c28:	f8dff06f          	j	80004bb4 <_malloc_r+0xa4>
80004c2c:	00f72223          	sw	a5,4(a4)
80004c30:	fd1ff06f          	j	80004c00 <_malloc_r+0xf0>
80004c34:	00040713          	mv	a4,s0
80004c38:	00442403          	lw	s0,4(s0)
80004c3c:	f21ff06f          	j	80004b5c <_malloc_r+0x4c>
80004c40:	00350413          	addi	s0,a0,3
80004c44:	ffc47413          	andi	s0,s0,-4
80004c48:	fa8502e3          	beq	a0,s0,80004bec <_malloc_r+0xdc>
80004c4c:	40a405b3          	sub	a1,s0,a0
80004c50:	00090513          	mv	a0,s2
80004c54:	078000ef          	jal	ra,80004ccc <_sbrk_r>
80004c58:	f9351ae3          	bne	a0,s3,80004bec <_malloc_r+0xdc>
80004c5c:	f35ff06f          	j	80004b90 <_malloc_r+0x80>

80004c60 <iprintf>:
80004c60:	fb010113          	addi	sp,sp,-80
80004c64:	04f12223          	sw	a5,68(sp)
80004c68:	02812423          	sw	s0,40(sp)
80004c6c:	00050413          	mv	s0,a0
80004c70:	8141a503          	lw	a0,-2028(gp) # 80009404 <_impure_ptr>
80004c74:	02112623          	sw	ra,44(sp)
80004c78:	02b12a23          	sw	a1,52(sp)
80004c7c:	02c12c23          	sw	a2,56(sp)
80004c80:	02d12e23          	sw	a3,60(sp)
80004c84:	04e12023          	sw	a4,64(sp)
80004c88:	05012423          	sw	a6,72(sp)
80004c8c:	05112623          	sw	a7,76(sp)
80004c90:	00050c63          	beqz	a0,80004ca8 <iprintf+0x48>
80004c94:	01852783          	lw	a5,24(a0)
80004c98:	00079863          	bnez	a5,80004ca8 <iprintf+0x48>
80004c9c:	00a12623          	sw	a0,12(sp)
80004ca0:	1d8000ef          	jal	ra,80004e78 <__sinit>
80004ca4:	00c12503          	lw	a0,12(sp)
80004ca8:	00852583          	lw	a1,8(a0)
80004cac:	03410693          	addi	a3,sp,52
80004cb0:	00040613          	mv	a2,s0
80004cb4:	00d12e23          	sw	a3,28(sp)
80004cb8:	4f0000ef          	jal	ra,800051a8 <_vfiprintf_r>
80004cbc:	02c12083          	lw	ra,44(sp)
80004cc0:	02812403          	lw	s0,40(sp)
80004cc4:	05010113          	addi	sp,sp,80
80004cc8:	00008067          	ret

80004ccc <_sbrk_r>:
80004ccc:	ff010113          	addi	sp,sp,-16
80004cd0:	00812423          	sw	s0,8(sp)
80004cd4:	00912223          	sw	s1,4(sp)
80004cd8:	00050413          	mv	s0,a0
80004cdc:	800074b7          	lui	s1,0x80007
80004ce0:	00058513          	mv	a0,a1
80004ce4:	00112623          	sw	ra,12(sp)
80004ce8:	e204aa23          	sw	zero,-460(s1) # 80006e34 <CONFIG_SYSTEM_WORKQUEUE_PRIORITY+0x80006e35>
80004cec:	c14fd0ef          	jal	ra,80002100 <_sbrk>
80004cf0:	fff00793          	li	a5,-1
80004cf4:	00f51863          	bne	a0,a5,80004d04 <_sbrk_r+0x38>
80004cf8:	e344a783          	lw	a5,-460(s1)
80004cfc:	00078463          	beqz	a5,80004d04 <_sbrk_r+0x38>
80004d00:	00f42023          	sw	a5,0(s0)
80004d04:	00c12083          	lw	ra,12(sp)
80004d08:	00812403          	lw	s0,8(sp)
80004d0c:	00412483          	lw	s1,4(sp)
80004d10:	01010113          	addi	sp,sp,16
80004d14:	00008067          	ret

80004d18 <strlen>:
80004d18:	00050793          	mv	a5,a0
80004d1c:	0007c703          	lbu	a4,0(a5)
80004d20:	00178793          	addi	a5,a5,1
80004d24:	fe071ce3          	bnez	a4,80004d1c <strlen+0x4>
80004d28:	40a78533          	sub	a0,a5,a0
80004d2c:	fff50513          	addi	a0,a0,-1
80004d30:	00008067          	ret

80004d34 <strnlen>:
80004d34:	00b505b3          	add	a1,a0,a1
80004d38:	00050793          	mv	a5,a0
80004d3c:	00b78663          	beq	a5,a1,80004d48 <strnlen+0x14>
80004d40:	0007c703          	lbu	a4,0(a5)
80004d44:	00071663          	bnez	a4,80004d50 <strnlen+0x1c>
80004d48:	40a78533          	sub	a0,a5,a0
80004d4c:	00008067          	ret
80004d50:	00178793          	addi	a5,a5,1
80004d54:	fe9ff06f          	j	80004d3c <strnlen+0x8>

80004d58 <std>:
80004d58:	ff010113          	addi	sp,sp,-16
80004d5c:	00812423          	sw	s0,8(sp)
80004d60:	00112623          	sw	ra,12(sp)
80004d64:	00050413          	mv	s0,a0
80004d68:	00b51623          	sh	a1,12(a0)
80004d6c:	00c51723          	sh	a2,14(a0)
80004d70:	00052023          	sw	zero,0(a0)
80004d74:	00052223          	sw	zero,4(a0)
80004d78:	00052423          	sw	zero,8(a0)
80004d7c:	06052223          	sw	zero,100(a0)
80004d80:	00052823          	sw	zero,16(a0)
80004d84:	00052a23          	sw	zero,20(a0)
80004d88:	00052c23          	sw	zero,24(a0)
80004d8c:	00800613          	li	a2,8
80004d90:	00000593          	li	a1,0
80004d94:	05c50513          	addi	a0,a0,92
80004d98:	c61fb0ef          	jal	ra,800009f8 <memset>
80004d9c:	800067b7          	lui	a5,0x80006
80004da0:	b4878793          	addi	a5,a5,-1208 # 80005b48 <CONFIG_SYSTEM_WORKQUEUE_PRIORITY+0x80005b49>
80004da4:	02f42223          	sw	a5,36(s0)
80004da8:	800067b7          	lui	a5,0x80006
80004dac:	b9878793          	addi	a5,a5,-1128 # 80005b98 <CONFIG_SYSTEM_WORKQUEUE_PRIORITY+0x80005b99>
80004db0:	02f42423          	sw	a5,40(s0)
80004db4:	800067b7          	lui	a5,0x80006
80004db8:	c1c78793          	addi	a5,a5,-996 # 80005c1c <CONFIG_SYSTEM_WORKQUEUE_PRIORITY+0x80005c1d>
80004dbc:	02f42623          	sw	a5,44(s0)
80004dc0:	800067b7          	lui	a5,0x80006
80004dc4:	c7478793          	addi	a5,a5,-908 # 80005c74 <CONFIG_SYSTEM_WORKQUEUE_PRIORITY+0x80005c75>
80004dc8:	00c12083          	lw	ra,12(sp)
80004dcc:	02842023          	sw	s0,32(s0)
80004dd0:	02f42823          	sw	a5,48(s0)
80004dd4:	00812403          	lw	s0,8(sp)
80004dd8:	01010113          	addi	sp,sp,16
80004ddc:	00008067          	ret

80004de0 <_cleanup_r>:
80004de0:	800065b7          	lui	a1,0x80006
80004de4:	1a058593          	addi	a1,a1,416 # 800061a0 <CONFIG_SYSTEM_WORKQUEUE_PRIORITY+0x800061a1>
80004de8:	2480006f          	j	80005030 <_fwalk_reent>

80004dec <__sfmoreglue>:
80004dec:	ff010113          	addi	sp,sp,-16
80004df0:	00912223          	sw	s1,4(sp)
80004df4:	06800793          	li	a5,104
80004df8:	fff58493          	addi	s1,a1,-1
80004dfc:	02f484b3          	mul	s1,s1,a5
80004e00:	01212023          	sw	s2,0(sp)
80004e04:	00058913          	mv	s2,a1
80004e08:	00812423          	sw	s0,8(sp)
80004e0c:	00112623          	sw	ra,12(sp)
80004e10:	07448593          	addi	a1,s1,116
80004e14:	cfdff0ef          	jal	ra,80004b10 <_malloc_r>
80004e18:	00050413          	mv	s0,a0
80004e1c:	02050063          	beqz	a0,80004e3c <__sfmoreglue+0x50>
80004e20:	00052023          	sw	zero,0(a0)
80004e24:	01252223          	sw	s2,4(a0)
80004e28:	00c50513          	addi	a0,a0,12
80004e2c:	00a42423          	sw	a0,8(s0)
80004e30:	06848613          	addi	a2,s1,104
80004e34:	00000593          	li	a1,0
80004e38:	bc1fb0ef          	jal	ra,800009f8 <memset>
80004e3c:	00c12083          	lw	ra,12(sp)
80004e40:	00040513          	mv	a0,s0
80004e44:	00812403          	lw	s0,8(sp)
80004e48:	00412483          	lw	s1,4(sp)
80004e4c:	00012903          	lw	s2,0(sp)
80004e50:	01010113          	addi	sp,sp,16
80004e54:	00008067          	ret

80004e58 <__sfp_lock_acquire>:
80004e58:	83018513          	addi	a0,gp,-2000 # 80009420 <__lock___sfp_recursive_mutex>
80004e5c:	b14fd06f          	j	80002170 <__retarget_lock_acquire_recursive>

80004e60 <__sfp_lock_release>:
80004e60:	83018513          	addi	a0,gp,-2000 # 80009420 <__lock___sfp_recursive_mutex>
80004e64:	b30fd06f          	j	80002194 <__retarget_lock_release_recursive>

80004e68 <__sinit_lock_acquire>:
80004e68:	84418513          	addi	a0,gp,-1980 # 80009434 <__lock___sinit_recursive_mutex>
80004e6c:	b04fd06f          	j	80002170 <__retarget_lock_acquire_recursive>

80004e70 <__sinit_lock_release>:
80004e70:	84418513          	addi	a0,gp,-1980 # 80009434 <__lock___sinit_recursive_mutex>
80004e74:	b20fd06f          	j	80002194 <__retarget_lock_release_recursive>

80004e78 <__sinit>:
80004e78:	ff010113          	addi	sp,sp,-16
80004e7c:	00812423          	sw	s0,8(sp)
80004e80:	00112623          	sw	ra,12(sp)
80004e84:	00050413          	mv	s0,a0
80004e88:	fe1ff0ef          	jal	ra,80004e68 <__sinit_lock_acquire>
80004e8c:	01842783          	lw	a5,24(s0)
80004e90:	00078a63          	beqz	a5,80004ea4 <__sinit+0x2c>
80004e94:	00812403          	lw	s0,8(sp)
80004e98:	00c12083          	lw	ra,12(sp)
80004e9c:	01010113          	addi	sp,sp,16
80004ea0:	fd1ff06f          	j	80004e70 <__sinit_lock_release>
80004ea4:	800057b7          	lui	a5,0x80005
80004ea8:	de078793          	addi	a5,a5,-544 # 80004de0 <CONFIG_SYSTEM_WORKQUEUE_PRIORITY+0x80004de1>
80004eac:	02f42423          	sw	a5,40(s0)
80004eb0:	800067b7          	lui	a5,0x80006
80004eb4:	7b47a783          	lw	a5,1972(a5) # 800067b4 <CONFIG_SYSTEM_WORKQUEUE_PRIORITY+0x800067b5>
80004eb8:	04042423          	sw	zero,72(s0)
80004ebc:	04042623          	sw	zero,76(s0)
80004ec0:	04042823          	sw	zero,80(s0)
80004ec4:	00879663          	bne	a5,s0,80004ed0 <__sinit+0x58>
80004ec8:	00100793          	li	a5,1
80004ecc:	00f42c23          	sw	a5,24(s0)
80004ed0:	00040513          	mv	a0,s0
80004ed4:	05c000ef          	jal	ra,80004f30 <__sfp>
80004ed8:	00a42223          	sw	a0,4(s0)
80004edc:	00040513          	mv	a0,s0
80004ee0:	050000ef          	jal	ra,80004f30 <__sfp>
80004ee4:	00a42423          	sw	a0,8(s0)
80004ee8:	00040513          	mv	a0,s0
80004eec:	044000ef          	jal	ra,80004f30 <__sfp>
80004ef0:	00a42623          	sw	a0,12(s0)
80004ef4:	00442503          	lw	a0,4(s0)
80004ef8:	00000613          	li	a2,0
80004efc:	00400593          	li	a1,4
80004f00:	e59ff0ef          	jal	ra,80004d58 <std>
80004f04:	00842503          	lw	a0,8(s0)
80004f08:	00100613          	li	a2,1
80004f0c:	00900593          	li	a1,9
80004f10:	e49ff0ef          	jal	ra,80004d58 <std>
80004f14:	00c42503          	lw	a0,12(s0)
80004f18:	00200613          	li	a2,2
80004f1c:	01200593          	li	a1,18
80004f20:	e39ff0ef          	jal	ra,80004d58 <std>
80004f24:	00100793          	li	a5,1
80004f28:	00f42c23          	sw	a5,24(s0)
80004f2c:	f69ff06f          	j	80004e94 <__sinit+0x1c>

80004f30 <__sfp>:
80004f30:	ff010113          	addi	sp,sp,-16
80004f34:	00912223          	sw	s1,4(sp)
80004f38:	01212023          	sw	s2,0(sp)
80004f3c:	00112623          	sw	ra,12(sp)
80004f40:	00812423          	sw	s0,8(sp)
80004f44:	00050913          	mv	s2,a0
80004f48:	f11ff0ef          	jal	ra,80004e58 <__sfp_lock_acquire>
80004f4c:	800067b7          	lui	a5,0x80006
80004f50:	7b47a483          	lw	s1,1972(a5) # 800067b4 <CONFIG_SYSTEM_WORKQUEUE_PRIORITY+0x800067b5>
80004f54:	0184a783          	lw	a5,24(s1)
80004f58:	00079663          	bnez	a5,80004f64 <__sfp+0x34>
80004f5c:	00048513          	mv	a0,s1
80004f60:	f19ff0ef          	jal	ra,80004e78 <__sinit>
80004f64:	04848493          	addi	s1,s1,72
80004f68:	0084a403          	lw	s0,8(s1)
80004f6c:	0044a783          	lw	a5,4(s1)
80004f70:	fff78793          	addi	a5,a5,-1
80004f74:	0007da63          	bgez	a5,80004f88 <__sfp+0x58>
80004f78:	0004a783          	lw	a5,0(s1)
80004f7c:	08078663          	beqz	a5,80005008 <__sfp+0xd8>
80004f80:	0004a483          	lw	s1,0(s1)
80004f84:	fe5ff06f          	j	80004f68 <__sfp+0x38>
80004f88:	00c41703          	lh	a4,12(s0)
80004f8c:	06071a63          	bnez	a4,80005000 <__sfp+0xd0>
80004f90:	ffff07b7          	lui	a5,0xffff0
80004f94:	00178793          	addi	a5,a5,1 # ffff0001 <CONFIG_SYSTEM_WORKQUEUE_PRIORITY+0xffff0002>
80004f98:	00f42623          	sw	a5,12(s0)
80004f9c:	05840513          	addi	a0,s0,88
80004fa0:	06042223          	sw	zero,100(s0)
80004fa4:	998fd0ef          	jal	ra,8000213c <__retarget_lock_init_recursive>
80004fa8:	eb9ff0ef          	jal	ra,80004e60 <__sfp_lock_release>
80004fac:	00800613          	li	a2,8
80004fb0:	00042023          	sw	zero,0(s0)
80004fb4:	00042423          	sw	zero,8(s0)
80004fb8:	00042223          	sw	zero,4(s0)
80004fbc:	00042823          	sw	zero,16(s0)
80004fc0:	00042a23          	sw	zero,20(s0)
80004fc4:	00042c23          	sw	zero,24(s0)
80004fc8:	00000593          	li	a1,0
80004fcc:	05c40513          	addi	a0,s0,92
80004fd0:	a29fb0ef          	jal	ra,800009f8 <memset>
80004fd4:	02042a23          	sw	zero,52(s0)
80004fd8:	02042c23          	sw	zero,56(s0)
80004fdc:	04042423          	sw	zero,72(s0)
80004fe0:	04042623          	sw	zero,76(s0)
80004fe4:	00c12083          	lw	ra,12(sp)
80004fe8:	00040513          	mv	a0,s0
80004fec:	00812403          	lw	s0,8(sp)
80004ff0:	00412483          	lw	s1,4(sp)
80004ff4:	00012903          	lw	s2,0(sp)
80004ff8:	01010113          	addi	sp,sp,16
80004ffc:	00008067          	ret
80005000:	06840413          	addi	s0,s0,104
80005004:	f6dff06f          	j	80004f70 <__sfp+0x40>
80005008:	00400593          	li	a1,4
8000500c:	00090513          	mv	a0,s2
80005010:	dddff0ef          	jal	ra,80004dec <__sfmoreglue>
80005014:	00a4a023          	sw	a0,0(s1)
80005018:	00050413          	mv	s0,a0
8000501c:	f60512e3          	bnez	a0,80004f80 <__sfp+0x50>
80005020:	e41ff0ef          	jal	ra,80004e60 <__sfp_lock_release>
80005024:	00c00793          	li	a5,12
80005028:	00f92023          	sw	a5,0(s2)
8000502c:	fb9ff06f          	j	80004fe4 <__sfp+0xb4>

80005030 <_fwalk_reent>:
80005030:	fd010113          	addi	sp,sp,-48
80005034:	02812423          	sw	s0,40(sp)
80005038:	03212023          	sw	s2,32(sp)
8000503c:	01312e23          	sw	s3,28(sp)
80005040:	01412c23          	sw	s4,24(sp)
80005044:	01612823          	sw	s6,16(sp)
80005048:	01712623          	sw	s7,12(sp)
8000504c:	02112623          	sw	ra,44(sp)
80005050:	02912223          	sw	s1,36(sp)
80005054:	01512a23          	sw	s5,20(sp)
80005058:	00050913          	mv	s2,a0
8000505c:	00058a13          	mv	s4,a1
80005060:	04850413          	addi	s0,a0,72
80005064:	00000993          	li	s3,0
80005068:	00100b13          	li	s6,1
8000506c:	fff00b93          	li	s7,-1
80005070:	00842483          	lw	s1,8(s0)
80005074:	00442a83          	lw	s5,4(s0)
80005078:	fffa8a93          	addi	s5,s5,-1
8000507c:	020ade63          	bgez	s5,800050b8 <_fwalk_reent+0x88>
80005080:	00042403          	lw	s0,0(s0)
80005084:	fe0416e3          	bnez	s0,80005070 <_fwalk_reent+0x40>
80005088:	02c12083          	lw	ra,44(sp)
8000508c:	02812403          	lw	s0,40(sp)
80005090:	02412483          	lw	s1,36(sp)
80005094:	02012903          	lw	s2,32(sp)
80005098:	01812a03          	lw	s4,24(sp)
8000509c:	01412a83          	lw	s5,20(sp)
800050a0:	01012b03          	lw	s6,16(sp)
800050a4:	00c12b83          	lw	s7,12(sp)
800050a8:	00098513          	mv	a0,s3
800050ac:	01c12983          	lw	s3,28(sp)
800050b0:	03010113          	addi	sp,sp,48
800050b4:	00008067          	ret
800050b8:	00c4d783          	lhu	a5,12(s1)
800050bc:	00fb7e63          	bgeu	s6,a5,800050d8 <_fwalk_reent+0xa8>
800050c0:	00e49783          	lh	a5,14(s1)
800050c4:	01778a63          	beq	a5,s7,800050d8 <_fwalk_reent+0xa8>
800050c8:	00048593          	mv	a1,s1
800050cc:	00090513          	mv	a0,s2
800050d0:	000a00e7          	jalr	s4
800050d4:	00a9e9b3          	or	s3,s3,a0
800050d8:	06848493          	addi	s1,s1,104
800050dc:	f9dff06f          	j	80005078 <_fwalk_reent+0x48>

800050e0 <__malloc_lock>:
800050e0:	80009537          	lui	a0,0x80009
800050e4:	40c50513          	addi	a0,a0,1036 # 8000940c <CONFIG_SYSTEM_WORKQUEUE_PRIORITY+0x8000940d>
800050e8:	888fd06f          	j	80002170 <__retarget_lock_acquire_recursive>

800050ec <__malloc_unlock>:
800050ec:	80009537          	lui	a0,0x80009
800050f0:	40c50513          	addi	a0,a0,1036 # 8000940c <CONFIG_SYSTEM_WORKQUEUE_PRIORITY+0x8000940d>
800050f4:	8a0fd06f          	j	80002194 <__retarget_lock_release_recursive>

800050f8 <__sfputc_r>:
800050f8:	00862783          	lw	a5,8(a2)
800050fc:	fff78793          	addi	a5,a5,-1
80005100:	00f62423          	sw	a5,8(a2)
80005104:	0007dc63          	bgez	a5,8000511c <__sfputc_r+0x24>
80005108:	01862703          	lw	a4,24(a2)
8000510c:	00e7c663          	blt	a5,a4,80005118 <__sfputc_r+0x20>
80005110:	00a00793          	li	a5,10
80005114:	00f59463          	bne	a1,a5,8000511c <__sfputc_r+0x24>
80005118:	3650006f          	j	80005c7c <__swbuf_r>
8000511c:	00062783          	lw	a5,0(a2)
80005120:	00058513          	mv	a0,a1
80005124:	00178713          	addi	a4,a5,1
80005128:	00e62023          	sw	a4,0(a2)
8000512c:	00b78023          	sb	a1,0(a5)
80005130:	00008067          	ret

80005134 <__sfputs_r>:
80005134:	fe010113          	addi	sp,sp,-32
80005138:	00812c23          	sw	s0,24(sp)
8000513c:	00912a23          	sw	s1,20(sp)
80005140:	01212823          	sw	s2,16(sp)
80005144:	01312623          	sw	s3,12(sp)
80005148:	01412423          	sw	s4,8(sp)
8000514c:	00112e23          	sw	ra,28(sp)
80005150:	00050913          	mv	s2,a0
80005154:	00058993          	mv	s3,a1
80005158:	00060413          	mv	s0,a2
8000515c:	00d604b3          	add	s1,a2,a3
80005160:	fff00a13          	li	s4,-1
80005164:	00941663          	bne	s0,s1,80005170 <__sfputs_r+0x3c>
80005168:	00000513          	li	a0,0
8000516c:	01c0006f          	j	80005188 <__sfputs_r+0x54>
80005170:	00044583          	lbu	a1,0(s0)
80005174:	00098613          	mv	a2,s3
80005178:	00090513          	mv	a0,s2
8000517c:	f7dff0ef          	jal	ra,800050f8 <__sfputc_r>
80005180:	00140413          	addi	s0,s0,1
80005184:	ff4510e3          	bne	a0,s4,80005164 <__sfputs_r+0x30>
80005188:	01c12083          	lw	ra,28(sp)
8000518c:	01812403          	lw	s0,24(sp)
80005190:	01412483          	lw	s1,20(sp)
80005194:	01012903          	lw	s2,16(sp)
80005198:	00c12983          	lw	s3,12(sp)
8000519c:	00812a03          	lw	s4,8(sp)
800051a0:	02010113          	addi	sp,sp,32
800051a4:	00008067          	ret

800051a8 <_vfiprintf_r>:
800051a8:	f5010113          	addi	sp,sp,-176
800051ac:	0a812423          	sw	s0,168(sp)
800051b0:	0a912223          	sw	s1,164(sp)
800051b4:	0b212023          	sw	s2,160(sp)
800051b8:	09312e23          	sw	s3,156(sp)
800051bc:	0a112623          	sw	ra,172(sp)
800051c0:	09412c23          	sw	s4,152(sp)
800051c4:	09512a23          	sw	s5,148(sp)
800051c8:	09612823          	sw	s6,144(sp)
800051cc:	09712623          	sw	s7,140(sp)
800051d0:	09812423          	sw	s8,136(sp)
800051d4:	09912223          	sw	s9,132(sp)
800051d8:	09a12023          	sw	s10,128(sp)
800051dc:	07b12e23          	sw	s11,124(sp)
800051e0:	00050993          	mv	s3,a0
800051e4:	00058413          	mv	s0,a1
800051e8:	00060913          	mv	s2,a2
800051ec:	00068493          	mv	s1,a3
800051f0:	00050863          	beqz	a0,80005200 <_vfiprintf_r+0x58>
800051f4:	01852783          	lw	a5,24(a0)
800051f8:	00079463          	bnez	a5,80005200 <_vfiprintf_r+0x58>
800051fc:	c7dff0ef          	jal	ra,80004e78 <__sinit>
80005200:	800077b7          	lui	a5,0x80007
80005204:	d4078793          	addi	a5,a5,-704 # 80006d40 <CONFIG_SYSTEM_WORKQUEUE_PRIORITY+0x80006d41>
80005208:	08f41c63          	bne	s0,a5,800052a0 <_vfiprintf_r+0xf8>
8000520c:	0049a403          	lw	s0,4(s3)
80005210:	06442783          	lw	a5,100(s0)
80005214:	0017f793          	andi	a5,a5,1
80005218:	00079c63          	bnez	a5,80005230 <_vfiprintf_r+0x88>
8000521c:	00c45783          	lhu	a5,12(s0)
80005220:	2007f793          	andi	a5,a5,512
80005224:	00079663          	bnez	a5,80005230 <_vfiprintf_r+0x88>
80005228:	05842503          	lw	a0,88(s0)
8000522c:	f45fc0ef          	jal	ra,80002170 <__retarget_lock_acquire_recursive>
80005230:	00c45783          	lhu	a5,12(s0)
80005234:	0087f793          	andi	a5,a5,8
80005238:	00078663          	beqz	a5,80005244 <_vfiprintf_r+0x9c>
8000523c:	01042783          	lw	a5,16(s0)
80005240:	0a079063          	bnez	a5,800052e0 <_vfiprintf_r+0x138>
80005244:	00040593          	mv	a1,s0
80005248:	00098513          	mv	a0,s3
8000524c:	3bd000ef          	jal	ra,80005e08 <__swsetup_r>
80005250:	08050863          	beqz	a0,800052e0 <_vfiprintf_r+0x138>
80005254:	06442783          	lw	a5,100(s0)
80005258:	0017f793          	andi	a5,a5,1
8000525c:	06078663          	beqz	a5,800052c8 <_vfiprintf_r+0x120>
80005260:	fff00513          	li	a0,-1
80005264:	0ac12083          	lw	ra,172(sp)
80005268:	0a812403          	lw	s0,168(sp)
8000526c:	0a412483          	lw	s1,164(sp)
80005270:	0a012903          	lw	s2,160(sp)
80005274:	09c12983          	lw	s3,156(sp)
80005278:	09812a03          	lw	s4,152(sp)
8000527c:	09412a83          	lw	s5,148(sp)
80005280:	09012b03          	lw	s6,144(sp)
80005284:	08c12b83          	lw	s7,140(sp)
80005288:	08812c03          	lw	s8,136(sp)
8000528c:	08412c83          	lw	s9,132(sp)
80005290:	08012d03          	lw	s10,128(sp)
80005294:	07c12d83          	lw	s11,124(sp)
80005298:	0b010113          	addi	sp,sp,176
8000529c:	00008067          	ret
800052a0:	800077b7          	lui	a5,0x80007
800052a4:	d2078793          	addi	a5,a5,-736 # 80006d20 <CONFIG_SYSTEM_WORKQUEUE_PRIORITY+0x80006d21>
800052a8:	00f41663          	bne	s0,a5,800052b4 <_vfiprintf_r+0x10c>
800052ac:	0089a403          	lw	s0,8(s3)
800052b0:	f61ff06f          	j	80005210 <_vfiprintf_r+0x68>
800052b4:	800077b7          	lui	a5,0x80007
800052b8:	d0078793          	addi	a5,a5,-768 # 80006d00 <CONFIG_SYSTEM_WORKQUEUE_PRIORITY+0x80006d01>
800052bc:	f4f41ae3          	bne	s0,a5,80005210 <_vfiprintf_r+0x68>
800052c0:	00c9a403          	lw	s0,12(s3)
800052c4:	f4dff06f          	j	80005210 <_vfiprintf_r+0x68>
800052c8:	00c45783          	lhu	a5,12(s0)
800052cc:	2007f793          	andi	a5,a5,512
800052d0:	f80798e3          	bnez	a5,80005260 <_vfiprintf_r+0xb8>
800052d4:	05842503          	lw	a0,88(s0)
800052d8:	ebdfc0ef          	jal	ra,80002194 <__retarget_lock_release_recursive>
800052dc:	f85ff06f          	j	80005260 <_vfiprintf_r+0xb8>
800052e0:	02000793          	li	a5,32
800052e4:	02f104a3          	sb	a5,41(sp)
800052e8:	03000793          	li	a5,48
800052ec:	02012223          	sw	zero,36(sp)
800052f0:	02f10523          	sb	a5,42(sp)
800052f4:	00912623          	sw	s1,12(sp)
800052f8:	02500c93          	li	s9,37
800052fc:	80007b37          	lui	s6,0x80007
80005300:	80007bb7          	lui	s7,0x80007
80005304:	80007d37          	lui	s10,0x80007
80005308:	80005c37          	lui	s8,0x80005
8000530c:	00000a93          	li	s5,0
80005310:	00090493          	mv	s1,s2
80005314:	0004c783          	lbu	a5,0(s1)
80005318:	00078463          	beqz	a5,80005320 <_vfiprintf_r+0x178>
8000531c:	0d979c63          	bne	a5,s9,800053f4 <_vfiprintf_r+0x24c>
80005320:	41248db3          	sub	s11,s1,s2
80005324:	03248663          	beq	s1,s2,80005350 <_vfiprintf_r+0x1a8>
80005328:	000d8693          	mv	a3,s11
8000532c:	00090613          	mv	a2,s2
80005330:	00040593          	mv	a1,s0
80005334:	00098513          	mv	a0,s3
80005338:	dfdff0ef          	jal	ra,80005134 <__sfputs_r>
8000533c:	fff00793          	li	a5,-1
80005340:	24f50463          	beq	a0,a5,80005588 <_vfiprintf_r+0x3e0>
80005344:	02412783          	lw	a5,36(sp)
80005348:	01b787b3          	add	a5,a5,s11
8000534c:	02f12223          	sw	a5,36(sp)
80005350:	0004c783          	lbu	a5,0(s1)
80005354:	22078a63          	beqz	a5,80005588 <_vfiprintf_r+0x3e0>
80005358:	fff00793          	li	a5,-1
8000535c:	00148913          	addi	s2,s1,1
80005360:	00012823          	sw	zero,16(sp)
80005364:	00012e23          	sw	zero,28(sp)
80005368:	00f12a23          	sw	a5,20(sp)
8000536c:	00012c23          	sw	zero,24(sp)
80005370:	040109a3          	sb	zero,83(sp)
80005374:	06012423          	sw	zero,104(sp)
80005378:	00100d93          	li	s11,1
8000537c:	00094583          	lbu	a1,0(s2)
80005380:	00500613          	li	a2,5
80005384:	d60b0513          	addi	a0,s6,-672 # 80006d60 <CONFIG_SYSTEM_WORKQUEUE_PRIORITY+0x80006d61>
80005388:	0d0010ef          	jal	ra,80006458 <memchr>
8000538c:	01012783          	lw	a5,16(sp)
80005390:	00190493          	addi	s1,s2,1
80005394:	06051463          	bnez	a0,800053fc <_vfiprintf_r+0x254>
80005398:	0107f713          	andi	a4,a5,16
8000539c:	00070663          	beqz	a4,800053a8 <_vfiprintf_r+0x200>
800053a0:	02000713          	li	a4,32
800053a4:	04e109a3          	sb	a4,83(sp)
800053a8:	0087f713          	andi	a4,a5,8
800053ac:	00070663          	beqz	a4,800053b8 <_vfiprintf_r+0x210>
800053b0:	02b00713          	li	a4,43
800053b4:	04e109a3          	sb	a4,83(sp)
800053b8:	00094683          	lbu	a3,0(s2)
800053bc:	02a00713          	li	a4,42
800053c0:	04e68c63          	beq	a3,a4,80005418 <_vfiprintf_r+0x270>
800053c4:	01c12783          	lw	a5,28(sp)
800053c8:	00090493          	mv	s1,s2
800053cc:	00000693          	li	a3,0
800053d0:	00900613          	li	a2,9
800053d4:	00a00513          	li	a0,10
800053d8:	0004c703          	lbu	a4,0(s1)
800053dc:	00148593          	addi	a1,s1,1
800053e0:	fd070713          	addi	a4,a4,-48
800053e4:	08e67e63          	bgeu	a2,a4,80005480 <_vfiprintf_r+0x2d8>
800053e8:	04068463          	beqz	a3,80005430 <_vfiprintf_r+0x288>
800053ec:	00f12e23          	sw	a5,28(sp)
800053f0:	0400006f          	j	80005430 <_vfiprintf_r+0x288>
800053f4:	00148493          	addi	s1,s1,1
800053f8:	f1dff06f          	j	80005314 <_vfiprintf_r+0x16c>
800053fc:	d60b0713          	addi	a4,s6,-672
80005400:	40e50533          	sub	a0,a0,a4
80005404:	00ad9533          	sll	a0,s11,a0
80005408:	00a7e7b3          	or	a5,a5,a0
8000540c:	00f12823          	sw	a5,16(sp)
80005410:	00048913          	mv	s2,s1
80005414:	f69ff06f          	j	8000537c <_vfiprintf_r+0x1d4>
80005418:	00c12703          	lw	a4,12(sp)
8000541c:	00470693          	addi	a3,a4,4
80005420:	00072703          	lw	a4,0(a4)
80005424:	00d12623          	sw	a3,12(sp)
80005428:	04074263          	bltz	a4,8000546c <_vfiprintf_r+0x2c4>
8000542c:	00e12e23          	sw	a4,28(sp)
80005430:	0004c703          	lbu	a4,0(s1)
80005434:	02e00793          	li	a5,46
80005438:	08f71463          	bne	a4,a5,800054c0 <_vfiprintf_r+0x318>
8000543c:	0014c703          	lbu	a4,1(s1)
80005440:	02a00793          	li	a5,42
80005444:	04f71863          	bne	a4,a5,80005494 <_vfiprintf_r+0x2ec>
80005448:	00c12783          	lw	a5,12(sp)
8000544c:	00248493          	addi	s1,s1,2
80005450:	00478713          	addi	a4,a5,4
80005454:	0007a783          	lw	a5,0(a5)
80005458:	00e12623          	sw	a4,12(sp)
8000545c:	0007d463          	bgez	a5,80005464 <_vfiprintf_r+0x2bc>
80005460:	fff00793          	li	a5,-1
80005464:	00f12a23          	sw	a5,20(sp)
80005468:	0580006f          	j	800054c0 <_vfiprintf_r+0x318>
8000546c:	40e00733          	neg	a4,a4
80005470:	0027e793          	ori	a5,a5,2
80005474:	00e12e23          	sw	a4,28(sp)
80005478:	00f12823          	sw	a5,16(sp)
8000547c:	fb5ff06f          	j	80005430 <_vfiprintf_r+0x288>
80005480:	02a787b3          	mul	a5,a5,a0
80005484:	00058493          	mv	s1,a1
80005488:	00100693          	li	a3,1
8000548c:	00e787b3          	add	a5,a5,a4
80005490:	f49ff06f          	j	800053d8 <_vfiprintf_r+0x230>
80005494:	00148493          	addi	s1,s1,1
80005498:	00012a23          	sw	zero,20(sp)
8000549c:	00000693          	li	a3,0
800054a0:	00000793          	li	a5,0
800054a4:	00900613          	li	a2,9
800054a8:	00a00513          	li	a0,10
800054ac:	0004c703          	lbu	a4,0(s1)
800054b0:	00148593          	addi	a1,s1,1
800054b4:	fd070713          	addi	a4,a4,-48
800054b8:	08e67263          	bgeu	a2,a4,8000553c <_vfiprintf_r+0x394>
800054bc:	fa0694e3          	bnez	a3,80005464 <_vfiprintf_r+0x2bc>
800054c0:	0004c583          	lbu	a1,0(s1)
800054c4:	00300613          	li	a2,3
800054c8:	d68b8513          	addi	a0,s7,-664 # 80006d68 <CONFIG_SYSTEM_WORKQUEUE_PRIORITY+0x80006d69>
800054cc:	78d000ef          	jal	ra,80006458 <memchr>
800054d0:	02050263          	beqz	a0,800054f4 <_vfiprintf_r+0x34c>
800054d4:	d68b8793          	addi	a5,s7,-664
800054d8:	40f50533          	sub	a0,a0,a5
800054dc:	01012783          	lw	a5,16(sp)
800054e0:	04000713          	li	a4,64
800054e4:	00a71733          	sll	a4,a4,a0
800054e8:	00e7e7b3          	or	a5,a5,a4
800054ec:	00148493          	addi	s1,s1,1
800054f0:	00f12823          	sw	a5,16(sp)
800054f4:	0004c583          	lbu	a1,0(s1)
800054f8:	00600613          	li	a2,6
800054fc:	d6cd0513          	addi	a0,s10,-660 # 80006d6c <CONFIG_SYSTEM_WORKQUEUE_PRIORITY+0x80006d6d>
80005500:	00148913          	addi	s2,s1,1
80005504:	02b10423          	sb	a1,40(sp)
80005508:	751000ef          	jal	ra,80006458 <memchr>
8000550c:	0a050863          	beqz	a0,800055bc <_vfiprintf_r+0x414>
80005510:	040a9863          	bnez	s5,80005560 <_vfiprintf_r+0x3b8>
80005514:	01012703          	lw	a4,16(sp)
80005518:	00c12783          	lw	a5,12(sp)
8000551c:	10077713          	andi	a4,a4,256
80005520:	02070863          	beqz	a4,80005550 <_vfiprintf_r+0x3a8>
80005524:	00478793          	addi	a5,a5,4
80005528:	00f12623          	sw	a5,12(sp)
8000552c:	02412783          	lw	a5,36(sp)
80005530:	014787b3          	add	a5,a5,s4
80005534:	02f12223          	sw	a5,36(sp)
80005538:	dd9ff06f          	j	80005310 <_vfiprintf_r+0x168>
8000553c:	02a787b3          	mul	a5,a5,a0
80005540:	00058493          	mv	s1,a1
80005544:	00100693          	li	a3,1
80005548:	00e787b3          	add	a5,a5,a4
8000554c:	f61ff06f          	j	800054ac <_vfiprintf_r+0x304>
80005550:	00778793          	addi	a5,a5,7
80005554:	ff87f793          	andi	a5,a5,-8
80005558:	00878793          	addi	a5,a5,8
8000555c:	fcdff06f          	j	80005528 <_vfiprintf_r+0x380>
80005560:	00c10713          	addi	a4,sp,12
80005564:	134c0693          	addi	a3,s8,308 # 80005134 <CONFIG_SYSTEM_WORKQUEUE_PRIORITY+0x80005135>
80005568:	00040613          	mv	a2,s0
8000556c:	01010593          	addi	a1,sp,16
80005570:	00098513          	mv	a0,s3
80005574:	00000097          	auipc	ra,0x0
80005578:	000000e7          	jalr	zero # 0 <CONFIG_2ND_LVL_INTR_01_OFFSET>
8000557c:	fff00793          	li	a5,-1
80005580:	00050a13          	mv	s4,a0
80005584:	faf514e3          	bne	a0,a5,8000552c <_vfiprintf_r+0x384>
80005588:	06442783          	lw	a5,100(s0)
8000558c:	0017f793          	andi	a5,a5,1
80005590:	00079c63          	bnez	a5,800055a8 <_vfiprintf_r+0x400>
80005594:	00c45783          	lhu	a5,12(s0)
80005598:	2007f793          	andi	a5,a5,512
8000559c:	00079663          	bnez	a5,800055a8 <_vfiprintf_r+0x400>
800055a0:	05842503          	lw	a0,88(s0)
800055a4:	bf1fc0ef          	jal	ra,80002194 <__retarget_lock_release_recursive>
800055a8:	00c45783          	lhu	a5,12(s0)
800055ac:	0407f793          	andi	a5,a5,64
800055b0:	ca0798e3          	bnez	a5,80005260 <_vfiprintf_r+0xb8>
800055b4:	02412503          	lw	a0,36(sp)
800055b8:	cadff06f          	j	80005264 <_vfiprintf_r+0xbc>
800055bc:	00c10713          	addi	a4,sp,12
800055c0:	134c0693          	addi	a3,s8,308
800055c4:	00040613          	mv	a2,s0
800055c8:	01010593          	addi	a1,sp,16
800055cc:	00098513          	mv	a0,s3
800055d0:	1b8000ef          	jal	ra,80005788 <_printf_i>
800055d4:	fa9ff06f          	j	8000557c <_vfiprintf_r+0x3d4>

800055d8 <_printf_common>:
800055d8:	fd010113          	addi	sp,sp,-48
800055dc:	01512a23          	sw	s5,20(sp)
800055e0:	0105a783          	lw	a5,16(a1)
800055e4:	00070a93          	mv	s5,a4
800055e8:	0085a703          	lw	a4,8(a1)
800055ec:	02812423          	sw	s0,40(sp)
800055f0:	03212023          	sw	s2,32(sp)
800055f4:	01312e23          	sw	s3,28(sp)
800055f8:	01412c23          	sw	s4,24(sp)
800055fc:	02112623          	sw	ra,44(sp)
80005600:	02912223          	sw	s1,36(sp)
80005604:	01612823          	sw	s6,16(sp)
80005608:	01712623          	sw	s7,12(sp)
8000560c:	00050993          	mv	s3,a0
80005610:	00058413          	mv	s0,a1
80005614:	00060913          	mv	s2,a2
80005618:	00068a13          	mv	s4,a3
8000561c:	00e7d463          	bge	a5,a4,80005624 <_printf_common+0x4c>
80005620:	00070793          	mv	a5,a4
80005624:	00f92023          	sw	a5,0(s2)
80005628:	04344703          	lbu	a4,67(s0)
8000562c:	00070663          	beqz	a4,80005638 <_printf_common+0x60>
80005630:	00178793          	addi	a5,a5,1
80005634:	00f92023          	sw	a5,0(s2)
80005638:	00042783          	lw	a5,0(s0)
8000563c:	0207f793          	andi	a5,a5,32
80005640:	00078863          	beqz	a5,80005650 <_printf_common+0x78>
80005644:	00092783          	lw	a5,0(s2)
80005648:	00278793          	addi	a5,a5,2
8000564c:	00f92023          	sw	a5,0(s2)
80005650:	00042483          	lw	s1,0(s0)
80005654:	0064f493          	andi	s1,s1,6
80005658:	00049e63          	bnez	s1,80005674 <_printf_common+0x9c>
8000565c:	01940b13          	addi	s6,s0,25
80005660:	fff00b93          	li	s7,-1
80005664:	00c42783          	lw	a5,12(s0)
80005668:	00092703          	lw	a4,0(s2)
8000566c:	40e787b3          	sub	a5,a5,a4
80005670:	08f4c263          	blt	s1,a5,800056f4 <_printf_common+0x11c>
80005674:	04344783          	lbu	a5,67(s0)
80005678:	00f036b3          	snez	a3,a5
8000567c:	00042783          	lw	a5,0(s0)
80005680:	0207f793          	andi	a5,a5,32
80005684:	0c079063          	bnez	a5,80005744 <_printf_common+0x16c>
80005688:	04340613          	addi	a2,s0,67
8000568c:	000a0593          	mv	a1,s4
80005690:	00098513          	mv	a0,s3
80005694:	000a80e7          	jalr	s5
80005698:	fff00793          	li	a5,-1
8000569c:	06f50863          	beq	a0,a5,8000570c <_printf_common+0x134>
800056a0:	00042783          	lw	a5,0(s0)
800056a4:	00400713          	li	a4,4
800056a8:	00000493          	li	s1,0
800056ac:	0067f793          	andi	a5,a5,6
800056b0:	00e79c63          	bne	a5,a4,800056c8 <_printf_common+0xf0>
800056b4:	00c42483          	lw	s1,12(s0)
800056b8:	00092783          	lw	a5,0(s2)
800056bc:	40f484b3          	sub	s1,s1,a5
800056c0:	0004d463          	bgez	s1,800056c8 <_printf_common+0xf0>
800056c4:	00000493          	li	s1,0
800056c8:	00842783          	lw	a5,8(s0)
800056cc:	01042703          	lw	a4,16(s0)
800056d0:	00f75663          	bge	a4,a5,800056dc <_printf_common+0x104>
800056d4:	40e787b3          	sub	a5,a5,a4
800056d8:	00f484b3          	add	s1,s1,a5
800056dc:	00000913          	li	s2,0
800056e0:	01a40413          	addi	s0,s0,26
800056e4:	fff00b13          	li	s6,-1
800056e8:	09249063          	bne	s1,s2,80005768 <_printf_common+0x190>
800056ec:	00000513          	li	a0,0
800056f0:	0200006f          	j	80005710 <_printf_common+0x138>
800056f4:	00100693          	li	a3,1
800056f8:	000b0613          	mv	a2,s6
800056fc:	000a0593          	mv	a1,s4
80005700:	00098513          	mv	a0,s3
80005704:	000a80e7          	jalr	s5
80005708:	03751a63          	bne	a0,s7,8000573c <_printf_common+0x164>
8000570c:	fff00513          	li	a0,-1
80005710:	02c12083          	lw	ra,44(sp)
80005714:	02812403          	lw	s0,40(sp)
80005718:	02412483          	lw	s1,36(sp)
8000571c:	02012903          	lw	s2,32(sp)
80005720:	01c12983          	lw	s3,28(sp)
80005724:	01812a03          	lw	s4,24(sp)
80005728:	01412a83          	lw	s5,20(sp)
8000572c:	01012b03          	lw	s6,16(sp)
80005730:	00c12b83          	lw	s7,12(sp)
80005734:	03010113          	addi	sp,sp,48
80005738:	00008067          	ret
8000573c:	00148493          	addi	s1,s1,1
80005740:	f25ff06f          	j	80005664 <_printf_common+0x8c>
80005744:	00d40733          	add	a4,s0,a3
80005748:	03000613          	li	a2,48
8000574c:	04c701a3          	sb	a2,67(a4)
80005750:	04544703          	lbu	a4,69(s0)
80005754:	00168793          	addi	a5,a3,1
80005758:	00f407b3          	add	a5,s0,a5
8000575c:	00268693          	addi	a3,a3,2
80005760:	04e781a3          	sb	a4,67(a5)
80005764:	f25ff06f          	j	80005688 <_printf_common+0xb0>
80005768:	00100693          	li	a3,1
8000576c:	00040613          	mv	a2,s0
80005770:	000a0593          	mv	a1,s4
80005774:	00098513          	mv	a0,s3
80005778:	000a80e7          	jalr	s5
8000577c:	f96508e3          	beq	a0,s6,8000570c <_printf_common+0x134>
80005780:	00190913          	addi	s2,s2,1
80005784:	f65ff06f          	j	800056e8 <_printf_common+0x110>

80005788 <_printf_i>:
80005788:	fd010113          	addi	sp,sp,-48
8000578c:	02812423          	sw	s0,40(sp)
80005790:	02912223          	sw	s1,36(sp)
80005794:	03212023          	sw	s2,32(sp)
80005798:	01312e23          	sw	s3,28(sp)
8000579c:	02112623          	sw	ra,44(sp)
800057a0:	01412c23          	sw	s4,24(sp)
800057a4:	01512a23          	sw	s5,20(sp)
800057a8:	01612823          	sw	s6,16(sp)
800057ac:	0185c883          	lbu	a7,24(a1)
800057b0:	07800793          	li	a5,120
800057b4:	00050493          	mv	s1,a0
800057b8:	00058413          	mv	s0,a1
800057bc:	00060913          	mv	s2,a2
800057c0:	00068993          	mv	s3,a3
800057c4:	0117ee63          	bltu	a5,a7,800057e0 <_printf_i+0x58>
800057c8:	06200793          	li	a5,98
800057cc:	04358693          	addi	a3,a1,67
800057d0:	0117ee63          	bltu	a5,a7,800057ec <_printf_i+0x64>
800057d4:	2a088a63          	beqz	a7,80005a88 <_printf_i+0x300>
800057d8:	05800793          	li	a5,88
800057dc:	20f88a63          	beq	a7,a5,800059f0 <_printf_i+0x268>
800057e0:	04240a93          	addi	s5,s0,66
800057e4:	05140123          	sb	a7,66(s0)
800057e8:	0440006f          	j	8000582c <_printf_i+0xa4>
800057ec:	f9d88793          	addi	a5,a7,-99 # ffff9d <CONFIG_SRAM_SIZE+0xefff9d>
800057f0:	0ff7f793          	zext.b	a5,a5
800057f4:	01500613          	li	a2,21
800057f8:	fef664e3          	bltu	a2,a5,800057e0 <_printf_i+0x58>
800057fc:	80007637          	lui	a2,0x80007
80005800:	00279793          	slli	a5,a5,0x2
80005804:	d9c60613          	addi	a2,a2,-612 # 80006d9c <CONFIG_SYSTEM_WORKQUEUE_PRIORITY+0x80006d9d>
80005808:	00c787b3          	add	a5,a5,a2
8000580c:	0007a783          	lw	a5,0(a5)
80005810:	00078067          	jr	a5
80005814:	00072783          	lw	a5,0(a4)
80005818:	04258a93          	addi	s5,a1,66
8000581c:	00478693          	addi	a3,a5,4
80005820:	0007a783          	lw	a5,0(a5)
80005824:	00d72023          	sw	a3,0(a4)
80005828:	04f58123          	sb	a5,66(a1)
8000582c:	00100793          	li	a5,1
80005830:	2940006f          	j	80005ac4 <_printf_i+0x33c>
80005834:	0005a603          	lw	a2,0(a1)
80005838:	00072783          	lw	a5,0(a4)
8000583c:	08067513          	andi	a0,a2,128
80005840:	00478593          	addi	a1,a5,4
80005844:	04050e63          	beqz	a0,800058a0 <_printf_i+0x118>
80005848:	0007a783          	lw	a5,0(a5)
8000584c:	00b72023          	sw	a1,0(a4)
80005850:	80007737          	lui	a4,0x80007
80005854:	00442583          	lw	a1,4(s0)
80005858:	d7470813          	addi	a6,a4,-652 # 80006d74 <CONFIG_SYSTEM_WORKQUEUE_PRIORITY+0x80006d75>
8000585c:	1e07d263          	bgez	a5,80005a40 <_printf_i+0x2b8>
80005860:	02d00713          	li	a4,45
80005864:	04e401a3          	sb	a4,67(s0)
80005868:	00b42423          	sw	a1,8(s0)
8000586c:	0405d863          	bgez	a1,800058bc <_printf_i+0x134>
80005870:	40f007b3          	neg	a5,a5
80005874:	00a00713          	li	a4,10
80005878:	00068a93          	mv	s5,a3
8000587c:	02e7f633          	remu	a2,a5,a4
80005880:	fffa8a93          	addi	s5,s5,-1
80005884:	00c80633          	add	a2,a6,a2
80005888:	00064603          	lbu	a2,0(a2)
8000588c:	00ca8023          	sb	a2,0(s5)
80005890:	00078613          	mv	a2,a5
80005894:	02e7d7b3          	divu	a5,a5,a4
80005898:	fee672e3          	bgeu	a2,a4,8000587c <_printf_i+0xf4>
8000589c:	0980006f          	j	80005934 <_printf_i+0x1ac>
800058a0:	0007a783          	lw	a5,0(a5)
800058a4:	04067513          	andi	a0,a2,64
800058a8:	00b72023          	sw	a1,0(a4)
800058ac:	fa0502e3          	beqz	a0,80005850 <_printf_i+0xc8>
800058b0:	01079793          	slli	a5,a5,0x10
800058b4:	4107d793          	srai	a5,a5,0x10
800058b8:	f99ff06f          	j	80005850 <_printf_i+0xc8>
800058bc:	ffb67613          	andi	a2,a2,-5
800058c0:	00c42023          	sw	a2,0(s0)
800058c4:	fadff06f          	j	80005870 <_printf_i+0xe8>
800058c8:	0005a603          	lw	a2,0(a1)
800058cc:	00072783          	lw	a5,0(a4)
800058d0:	08067513          	andi	a0,a2,128
800058d4:	00478593          	addi	a1,a5,4
800058d8:	00050863          	beqz	a0,800058e8 <_printf_i+0x160>
800058dc:	00b72023          	sw	a1,0(a4)
800058e0:	0007a783          	lw	a5,0(a5)
800058e4:	0140006f          	j	800058f8 <_printf_i+0x170>
800058e8:	04067613          	andi	a2,a2,64
800058ec:	00b72023          	sw	a1,0(a4)
800058f0:	fe0608e3          	beqz	a2,800058e0 <_printf_i+0x158>
800058f4:	0007d783          	lhu	a5,0(a5)
800058f8:	80007837          	lui	a6,0x80007
800058fc:	06f00713          	li	a4,111
80005900:	d7480813          	addi	a6,a6,-652 # 80006d74 <CONFIG_SYSTEM_WORKQUEUE_PRIORITY+0x80006d75>
80005904:	12e89a63          	bne	a7,a4,80005a38 <_printf_i+0x2b0>
80005908:	00800713          	li	a4,8
8000590c:	040401a3          	sb	zero,67(s0)
80005910:	00442603          	lw	a2,4(s0)
80005914:	00c42423          	sw	a2,8(s0)
80005918:	f60640e3          	bltz	a2,80005878 <_printf_i+0xf0>
8000591c:	00042583          	lw	a1,0(s0)
80005920:	ffb5f593          	andi	a1,a1,-5
80005924:	00b42023          	sw	a1,0(s0)
80005928:	f40798e3          	bnez	a5,80005878 <_printf_i+0xf0>
8000592c:	00068a93          	mv	s5,a3
80005930:	f40614e3          	bnez	a2,80005878 <_printf_i+0xf0>
80005934:	00800793          	li	a5,8
80005938:	02f71463          	bne	a4,a5,80005960 <_printf_i+0x1d8>
8000593c:	00042783          	lw	a5,0(s0)
80005940:	0017f793          	andi	a5,a5,1
80005944:	00078e63          	beqz	a5,80005960 <_printf_i+0x1d8>
80005948:	00442703          	lw	a4,4(s0)
8000594c:	01042783          	lw	a5,16(s0)
80005950:	00e7c863          	blt	a5,a4,80005960 <_printf_i+0x1d8>
80005954:	03000793          	li	a5,48
80005958:	fefa8fa3          	sb	a5,-1(s5)
8000595c:	fffa8a93          	addi	s5,s5,-1
80005960:	415686b3          	sub	a3,a3,s5
80005964:	00d42823          	sw	a3,16(s0)
80005968:	00098713          	mv	a4,s3
8000596c:	00090693          	mv	a3,s2
80005970:	00c10613          	addi	a2,sp,12
80005974:	00040593          	mv	a1,s0
80005978:	00048513          	mv	a0,s1
8000597c:	c5dff0ef          	jal	ra,800055d8 <_printf_common>
80005980:	fff00a13          	li	s4,-1
80005984:	15451663          	bne	a0,s4,80005ad0 <_printf_i+0x348>
80005988:	fff00513          	li	a0,-1
8000598c:	02c12083          	lw	ra,44(sp)
80005990:	02812403          	lw	s0,40(sp)
80005994:	02412483          	lw	s1,36(sp)
80005998:	02012903          	lw	s2,32(sp)
8000599c:	01c12983          	lw	s3,28(sp)
800059a0:	01812a03          	lw	s4,24(sp)
800059a4:	01412a83          	lw	s5,20(sp)
800059a8:	01012b03          	lw	s6,16(sp)
800059ac:	03010113          	addi	sp,sp,48
800059b0:	00008067          	ret
800059b4:	0005a783          	lw	a5,0(a1)
800059b8:	0207e793          	ori	a5,a5,32
800059bc:	00f5a023          	sw	a5,0(a1)
800059c0:	80007837          	lui	a6,0x80007
800059c4:	07800893          	li	a7,120
800059c8:	d8880813          	addi	a6,a6,-632 # 80006d88 <CONFIG_SYSTEM_WORKQUEUE_PRIORITY+0x80006d89>
800059cc:	00042603          	lw	a2,0(s0)
800059d0:	051402a3          	sb	a7,69(s0)
800059d4:	00072783          	lw	a5,0(a4)
800059d8:	08067513          	andi	a0,a2,128
800059dc:	00478593          	addi	a1,a5,4
800059e0:	00050e63          	beqz	a0,800059fc <_printf_i+0x274>
800059e4:	00b72023          	sw	a1,0(a4)
800059e8:	0007a783          	lw	a5,0(a5)
800059ec:	0200006f          	j	80005a0c <_printf_i+0x284>
800059f0:	80007837          	lui	a6,0x80007
800059f4:	d7480813          	addi	a6,a6,-652 # 80006d74 <CONFIG_SYSTEM_WORKQUEUE_PRIORITY+0x80006d75>
800059f8:	fd5ff06f          	j	800059cc <_printf_i+0x244>
800059fc:	04067513          	andi	a0,a2,64
80005a00:	00b72023          	sw	a1,0(a4)
80005a04:	fe0502e3          	beqz	a0,800059e8 <_printf_i+0x260>
80005a08:	0007d783          	lhu	a5,0(a5)
80005a0c:	00167713          	andi	a4,a2,1
80005a10:	00070663          	beqz	a4,80005a1c <_printf_i+0x294>
80005a14:	02066613          	ori	a2,a2,32
80005a18:	00c42023          	sw	a2,0(s0)
80005a1c:	00078663          	beqz	a5,80005a28 <_printf_i+0x2a0>
80005a20:	01000713          	li	a4,16
80005a24:	ee9ff06f          	j	8000590c <_printf_i+0x184>
80005a28:	00042703          	lw	a4,0(s0)
80005a2c:	fdf77713          	andi	a4,a4,-33
80005a30:	00e42023          	sw	a4,0(s0)
80005a34:	fedff06f          	j	80005a20 <_printf_i+0x298>
80005a38:	00a00713          	li	a4,10
80005a3c:	ed1ff06f          	j	8000590c <_printf_i+0x184>
80005a40:	d7470813          	addi	a6,a4,-652
80005a44:	00a00713          	li	a4,10
80005a48:	ec9ff06f          	j	80005910 <_printf_i+0x188>
80005a4c:	0005a603          	lw	a2,0(a1)
80005a50:	00072783          	lw	a5,0(a4)
80005a54:	0145a583          	lw	a1,20(a1)
80005a58:	08067813          	andi	a6,a2,128
80005a5c:	00478513          	addi	a0,a5,4
80005a60:	00080a63          	beqz	a6,80005a74 <_printf_i+0x2ec>
80005a64:	00a72023          	sw	a0,0(a4)
80005a68:	0007a783          	lw	a5,0(a5)
80005a6c:	00b7a023          	sw	a1,0(a5)
80005a70:	0180006f          	j	80005a88 <_printf_i+0x300>
80005a74:	00a72023          	sw	a0,0(a4)
80005a78:	04067613          	andi	a2,a2,64
80005a7c:	0007a783          	lw	a5,0(a5)
80005a80:	fe0606e3          	beqz	a2,80005a6c <_printf_i+0x2e4>
80005a84:	00b79023          	sh	a1,0(a5)
80005a88:	00042823          	sw	zero,16(s0)
80005a8c:	00068a93          	mv	s5,a3
80005a90:	ed9ff06f          	j	80005968 <_printf_i+0x1e0>
80005a94:	00072783          	lw	a5,0(a4)
80005a98:	0045a603          	lw	a2,4(a1)
80005a9c:	00000593          	li	a1,0
80005aa0:	00478693          	addi	a3,a5,4
80005aa4:	00d72023          	sw	a3,0(a4)
80005aa8:	0007aa83          	lw	s5,0(a5)
80005aac:	000a8513          	mv	a0,s5
80005ab0:	1a9000ef          	jal	ra,80006458 <memchr>
80005ab4:	00050663          	beqz	a0,80005ac0 <_printf_i+0x338>
80005ab8:	41550533          	sub	a0,a0,s5
80005abc:	00a42223          	sw	a0,4(s0)
80005ac0:	00442783          	lw	a5,4(s0)
80005ac4:	00f42823          	sw	a5,16(s0)
80005ac8:	040401a3          	sb	zero,67(s0)
80005acc:	e9dff06f          	j	80005968 <_printf_i+0x1e0>
80005ad0:	01042683          	lw	a3,16(s0)
80005ad4:	000a8613          	mv	a2,s5
80005ad8:	00090593          	mv	a1,s2
80005adc:	00048513          	mv	a0,s1
80005ae0:	000980e7          	jalr	s3
80005ae4:	eb4502e3          	beq	a0,s4,80005988 <_printf_i+0x200>
80005ae8:	00042783          	lw	a5,0(s0)
80005aec:	0027f793          	andi	a5,a5,2
80005af0:	04079463          	bnez	a5,80005b38 <_printf_i+0x3b0>
80005af4:	00c12783          	lw	a5,12(sp)
80005af8:	00c42503          	lw	a0,12(s0)
80005afc:	e8f558e3          	bge	a0,a5,8000598c <_printf_i+0x204>
80005b00:	00078513          	mv	a0,a5
80005b04:	e89ff06f          	j	8000598c <_printf_i+0x204>
80005b08:	00100693          	li	a3,1
80005b0c:	000a8613          	mv	a2,s5
80005b10:	00090593          	mv	a1,s2
80005b14:	00048513          	mv	a0,s1
80005b18:	000980e7          	jalr	s3
80005b1c:	e76506e3          	beq	a0,s6,80005988 <_printf_i+0x200>
80005b20:	001a0a13          	addi	s4,s4,1
80005b24:	00c42783          	lw	a5,12(s0)
80005b28:	00c12703          	lw	a4,12(sp)
80005b2c:	40e787b3          	sub	a5,a5,a4
80005b30:	fcfa4ce3          	blt	s4,a5,80005b08 <_printf_i+0x380>
80005b34:	fc1ff06f          	j	80005af4 <_printf_i+0x36c>
80005b38:	00000a13          	li	s4,0
80005b3c:	01940a93          	addi	s5,s0,25
80005b40:	fff00b13          	li	s6,-1
80005b44:	fe1ff06f          	j	80005b24 <_printf_i+0x39c>

80005b48 <__sread>:
80005b48:	ff010113          	addi	sp,sp,-16
80005b4c:	00812423          	sw	s0,8(sp)
80005b50:	00058413          	mv	s0,a1
80005b54:	00e59583          	lh	a1,14(a1)
80005b58:	00112623          	sw	ra,12(sp)
80005b5c:	121000ef          	jal	ra,8000647c <_read_r>
80005b60:	02054063          	bltz	a0,80005b80 <__sread+0x38>
80005b64:	05442783          	lw	a5,84(s0)
80005b68:	00a787b3          	add	a5,a5,a0
80005b6c:	04f42a23          	sw	a5,84(s0)
80005b70:	00c12083          	lw	ra,12(sp)
80005b74:	00812403          	lw	s0,8(sp)
80005b78:	01010113          	addi	sp,sp,16
80005b7c:	00008067          	ret
80005b80:	00c45783          	lhu	a5,12(s0)
80005b84:	fffff737          	lui	a4,0xfffff
80005b88:	fff70713          	addi	a4,a4,-1 # ffffefff <CONFIG_SYSTEM_WORKQUEUE_PRIORITY+0xfffff000>
80005b8c:	00e7f7b3          	and	a5,a5,a4
80005b90:	00f41623          	sh	a5,12(s0)
80005b94:	fddff06f          	j	80005b70 <__sread+0x28>

80005b98 <__swrite>:
80005b98:	00c5d783          	lhu	a5,12(a1)
80005b9c:	fe010113          	addi	sp,sp,-32
80005ba0:	00812c23          	sw	s0,24(sp)
80005ba4:	00912a23          	sw	s1,20(sp)
80005ba8:	01212823          	sw	s2,16(sp)
80005bac:	01312623          	sw	s3,12(sp)
80005bb0:	00112e23          	sw	ra,28(sp)
80005bb4:	1007f793          	andi	a5,a5,256
80005bb8:	00050493          	mv	s1,a0
80005bbc:	00058413          	mv	s0,a1
80005bc0:	00060913          	mv	s2,a2
80005bc4:	00068993          	mv	s3,a3
80005bc8:	00078a63          	beqz	a5,80005bdc <__swrite+0x44>
80005bcc:	00e59583          	lh	a1,14(a1)
80005bd0:	00200693          	li	a3,2
80005bd4:	00000613          	li	a2,0
80005bd8:	6a4000ef          	jal	ra,8000627c <_lseek_r>
80005bdc:	00c45783          	lhu	a5,12(s0)
80005be0:	fffff737          	lui	a4,0xfffff
80005be4:	fff70713          	addi	a4,a4,-1 # ffffefff <CONFIG_SYSTEM_WORKQUEUE_PRIORITY+0xfffff000>
80005be8:	00e7f7b3          	and	a5,a5,a4
80005bec:	00e41583          	lh	a1,14(s0)
80005bf0:	00f41623          	sh	a5,12(s0)
80005bf4:	01812403          	lw	s0,24(sp)
80005bf8:	01c12083          	lw	ra,28(sp)
80005bfc:	00098693          	mv	a3,s3
80005c00:	00090613          	mv	a2,s2
80005c04:	00c12983          	lw	s3,12(sp)
80005c08:	01012903          	lw	s2,16(sp)
80005c0c:	00048513          	mv	a0,s1
80005c10:	01412483          	lw	s1,20(sp)
80005c14:	02010113          	addi	sp,sp,32
80005c18:	19c0006f          	j	80005db4 <_write_r>

80005c1c <__sseek>:
80005c1c:	ff010113          	addi	sp,sp,-16
80005c20:	00812423          	sw	s0,8(sp)
80005c24:	00058413          	mv	s0,a1
80005c28:	00e59583          	lh	a1,14(a1)
80005c2c:	00112623          	sw	ra,12(sp)
80005c30:	64c000ef          	jal	ra,8000627c <_lseek_r>
80005c34:	fff00713          	li	a4,-1
80005c38:	00c45783          	lhu	a5,12(s0)
80005c3c:	02e51263          	bne	a0,a4,80005c60 <__sseek+0x44>
80005c40:	fffff737          	lui	a4,0xfffff
80005c44:	fff70713          	addi	a4,a4,-1 # ffffefff <CONFIG_SYSTEM_WORKQUEUE_PRIORITY+0xfffff000>
80005c48:	00e7f7b3          	and	a5,a5,a4
80005c4c:	00f41623          	sh	a5,12(s0)
80005c50:	00c12083          	lw	ra,12(sp)
80005c54:	00812403          	lw	s0,8(sp)
80005c58:	01010113          	addi	sp,sp,16
80005c5c:	00008067          	ret
80005c60:	00001737          	lui	a4,0x1
80005c64:	00e7e7b3          	or	a5,a5,a4
80005c68:	00f41623          	sh	a5,12(s0)
80005c6c:	04a42a23          	sw	a0,84(s0)
80005c70:	fe1ff06f          	j	80005c50 <__sseek+0x34>

80005c74 <__sclose>:
80005c74:	00e59583          	lh	a1,14(a1)
80005c78:	2f40006f          	j	80005f6c <_close_r>

80005c7c <__swbuf_r>:
80005c7c:	fe010113          	addi	sp,sp,-32
80005c80:	00812c23          	sw	s0,24(sp)
80005c84:	00912a23          	sw	s1,20(sp)
80005c88:	01212823          	sw	s2,16(sp)
80005c8c:	00112e23          	sw	ra,28(sp)
80005c90:	01312623          	sw	s3,12(sp)
80005c94:	00050493          	mv	s1,a0
80005c98:	00058913          	mv	s2,a1
80005c9c:	00060413          	mv	s0,a2
80005ca0:	00050863          	beqz	a0,80005cb0 <__swbuf_r+0x34>
80005ca4:	01852783          	lw	a5,24(a0)
80005ca8:	00079463          	bnez	a5,80005cb0 <__swbuf_r+0x34>
80005cac:	9ccff0ef          	jal	ra,80004e78 <__sinit>
80005cb0:	800077b7          	lui	a5,0x80007
80005cb4:	d4078793          	addi	a5,a5,-704 # 80006d40 <CONFIG_SYSTEM_WORKQUEUE_PRIORITY+0x80006d41>
80005cb8:	04f41c63          	bne	s0,a5,80005d10 <__swbuf_r+0x94>
80005cbc:	0044a403          	lw	s0,4(s1)
80005cc0:	01842783          	lw	a5,24(s0)
80005cc4:	00f42423          	sw	a5,8(s0)
80005cc8:	00c45783          	lhu	a5,12(s0)
80005ccc:	0087f793          	andi	a5,a5,8
80005cd0:	00078663          	beqz	a5,80005cdc <__swbuf_r+0x60>
80005cd4:	01042783          	lw	a5,16(s0)
80005cd8:	06079063          	bnez	a5,80005d38 <__swbuf_r+0xbc>
80005cdc:	00040593          	mv	a1,s0
80005ce0:	00048513          	mv	a0,s1
80005ce4:	124000ef          	jal	ra,80005e08 <__swsetup_r>
80005ce8:	04050863          	beqz	a0,80005d38 <__swbuf_r+0xbc>
80005cec:	fff00913          	li	s2,-1
80005cf0:	01c12083          	lw	ra,28(sp)
80005cf4:	01812403          	lw	s0,24(sp)
80005cf8:	01412483          	lw	s1,20(sp)
80005cfc:	00c12983          	lw	s3,12(sp)
80005d00:	00090513          	mv	a0,s2
80005d04:	01012903          	lw	s2,16(sp)
80005d08:	02010113          	addi	sp,sp,32
80005d0c:	00008067          	ret
80005d10:	800077b7          	lui	a5,0x80007
80005d14:	d2078793          	addi	a5,a5,-736 # 80006d20 <CONFIG_SYSTEM_WORKQUEUE_PRIORITY+0x80006d21>
80005d18:	00f41663          	bne	s0,a5,80005d24 <__swbuf_r+0xa8>
80005d1c:	0084a403          	lw	s0,8(s1)
80005d20:	fa1ff06f          	j	80005cc0 <__swbuf_r+0x44>
80005d24:	800077b7          	lui	a5,0x80007
80005d28:	d0078793          	addi	a5,a5,-768 # 80006d00 <CONFIG_SYSTEM_WORKQUEUE_PRIORITY+0x80006d01>
80005d2c:	f8f41ae3          	bne	s0,a5,80005cc0 <__swbuf_r+0x44>
80005d30:	00c4a403          	lw	s0,12(s1)
80005d34:	f8dff06f          	j	80005cc0 <__swbuf_r+0x44>
80005d38:	01042783          	lw	a5,16(s0)
80005d3c:	00042503          	lw	a0,0(s0)
80005d40:	0ff97993          	zext.b	s3,s2
80005d44:	0ff97913          	zext.b	s2,s2
80005d48:	40f50533          	sub	a0,a0,a5
80005d4c:	01442783          	lw	a5,20(s0)
80005d50:	00f54a63          	blt	a0,a5,80005d64 <__swbuf_r+0xe8>
80005d54:	00040593          	mv	a1,s0
80005d58:	00048513          	mv	a0,s1
80005d5c:	444000ef          	jal	ra,800061a0 <_fflush_r>
80005d60:	f80516e3          	bnez	a0,80005cec <__swbuf_r+0x70>
80005d64:	00842783          	lw	a5,8(s0)
80005d68:	00150513          	addi	a0,a0,1
80005d6c:	fff78793          	addi	a5,a5,-1
80005d70:	00f42423          	sw	a5,8(s0)
80005d74:	00042783          	lw	a5,0(s0)
80005d78:	00178713          	addi	a4,a5,1
80005d7c:	00e42023          	sw	a4,0(s0)
80005d80:	01378023          	sb	s3,0(a5)
80005d84:	01442783          	lw	a5,20(s0)
80005d88:	00a78c63          	beq	a5,a0,80005da0 <__swbuf_r+0x124>
80005d8c:	00c45783          	lhu	a5,12(s0)
80005d90:	0017f793          	andi	a5,a5,1
80005d94:	f4078ee3          	beqz	a5,80005cf0 <__swbuf_r+0x74>
80005d98:	00a00793          	li	a5,10
80005d9c:	f4f91ae3          	bne	s2,a5,80005cf0 <__swbuf_r+0x74>
80005da0:	00040593          	mv	a1,s0
80005da4:	00048513          	mv	a0,s1
80005da8:	3f8000ef          	jal	ra,800061a0 <_fflush_r>
80005dac:	f40502e3          	beqz	a0,80005cf0 <__swbuf_r+0x74>
80005db0:	f3dff06f          	j	80005cec <__swbuf_r+0x70>

80005db4 <_write_r>:
80005db4:	ff010113          	addi	sp,sp,-16
80005db8:	00812423          	sw	s0,8(sp)
80005dbc:	00912223          	sw	s1,4(sp)
80005dc0:	00050413          	mv	s0,a0
80005dc4:	800074b7          	lui	s1,0x80007
80005dc8:	00058513          	mv	a0,a1
80005dcc:	00060593          	mv	a1,a2
80005dd0:	00068613          	mv	a2,a3
80005dd4:	00112623          	sw	ra,12(sp)
80005dd8:	e204aa23          	sw	zero,-460(s1) # 80006e34 <CONFIG_SYSTEM_WORKQUEUE_PRIORITY+0x80006e35>
80005ddc:	ac8fc0ef          	jal	ra,800020a4 <_write>
80005de0:	fff00793          	li	a5,-1
80005de4:	00f51863          	bne	a0,a5,80005df4 <_write_r+0x40>
80005de8:	e344a783          	lw	a5,-460(s1)
80005dec:	00078463          	beqz	a5,80005df4 <_write_r+0x40>
80005df0:	00f42023          	sw	a5,0(s0)
80005df4:	00c12083          	lw	ra,12(sp)
80005df8:	00812403          	lw	s0,8(sp)
80005dfc:	00412483          	lw	s1,4(sp)
80005e00:	01010113          	addi	sp,sp,16
80005e04:	00008067          	ret

80005e08 <__swsetup_r>:
80005e08:	ff010113          	addi	sp,sp,-16
80005e0c:	00912223          	sw	s1,4(sp)
80005e10:	8141a483          	lw	s1,-2028(gp) # 80009404 <_impure_ptr>
80005e14:	00812423          	sw	s0,8(sp)
80005e18:	01212023          	sw	s2,0(sp)
80005e1c:	00112623          	sw	ra,12(sp)
80005e20:	00050913          	mv	s2,a0
80005e24:	00058413          	mv	s0,a1
80005e28:	00048a63          	beqz	s1,80005e3c <__swsetup_r+0x34>
80005e2c:	0184a783          	lw	a5,24(s1)
80005e30:	00079663          	bnez	a5,80005e3c <__swsetup_r+0x34>
80005e34:	00048513          	mv	a0,s1
80005e38:	840ff0ef          	jal	ra,80004e78 <__sinit>
80005e3c:	800077b7          	lui	a5,0x80007
80005e40:	d4078793          	addi	a5,a5,-704 # 80006d40 <CONFIG_SYSTEM_WORKQUEUE_PRIORITY+0x80006d41>
80005e44:	02f41a63          	bne	s0,a5,80005e78 <__swsetup_r+0x70>
80005e48:	0044a403          	lw	s0,4(s1)
80005e4c:	00c41783          	lh	a5,12(s0)
80005e50:	0087f713          	andi	a4,a5,8
80005e54:	08071a63          	bnez	a4,80005ee8 <__swsetup_r+0xe0>
80005e58:	0107f713          	andi	a4,a5,16
80005e5c:	04071263          	bnez	a4,80005ea0 <__swsetup_r+0x98>
80005e60:	00900713          	li	a4,9
80005e64:	00e92023          	sw	a4,0(s2)
80005e68:	0407e793          	ori	a5,a5,64
80005e6c:	00f41623          	sh	a5,12(s0)
80005e70:	fff00513          	li	a0,-1
80005e74:	0c80006f          	j	80005f3c <__swsetup_r+0x134>
80005e78:	800077b7          	lui	a5,0x80007
80005e7c:	d2078793          	addi	a5,a5,-736 # 80006d20 <CONFIG_SYSTEM_WORKQUEUE_PRIORITY+0x80006d21>
80005e80:	00f41663          	bne	s0,a5,80005e8c <__swsetup_r+0x84>
80005e84:	0084a403          	lw	s0,8(s1)
80005e88:	fc5ff06f          	j	80005e4c <__swsetup_r+0x44>
80005e8c:	800077b7          	lui	a5,0x80007
80005e90:	d0078793          	addi	a5,a5,-768 # 80006d00 <CONFIG_SYSTEM_WORKQUEUE_PRIORITY+0x80006d01>
80005e94:	faf41ce3          	bne	s0,a5,80005e4c <__swsetup_r+0x44>
80005e98:	00c4a403          	lw	s0,12(s1)
80005e9c:	fb1ff06f          	j	80005e4c <__swsetup_r+0x44>
80005ea0:	0047f793          	andi	a5,a5,4
80005ea4:	02078c63          	beqz	a5,80005edc <__swsetup_r+0xd4>
80005ea8:	03442583          	lw	a1,52(s0)
80005eac:	00058c63          	beqz	a1,80005ec4 <__swsetup_r+0xbc>
80005eb0:	04440793          	addi	a5,s0,68
80005eb4:	00f58663          	beq	a1,a5,80005ec0 <__swsetup_r+0xb8>
80005eb8:	00090513          	mv	a0,s2
80005ebc:	b59fe0ef          	jal	ra,80004a14 <_free_r>
80005ec0:	02042a23          	sw	zero,52(s0)
80005ec4:	00c45783          	lhu	a5,12(s0)
80005ec8:	00042223          	sw	zero,4(s0)
80005ecc:	fdb7f793          	andi	a5,a5,-37
80005ed0:	00f41623          	sh	a5,12(s0)
80005ed4:	01042783          	lw	a5,16(s0)
80005ed8:	00f42023          	sw	a5,0(s0)
80005edc:	00c45783          	lhu	a5,12(s0)
80005ee0:	0087e793          	ori	a5,a5,8
80005ee4:	00f41623          	sh	a5,12(s0)
80005ee8:	01042783          	lw	a5,16(s0)
80005eec:	02079063          	bnez	a5,80005f0c <__swsetup_r+0x104>
80005ef0:	00c45783          	lhu	a5,12(s0)
80005ef4:	20000713          	li	a4,512
80005ef8:	2807f793          	andi	a5,a5,640
80005efc:	00e78863          	beq	a5,a4,80005f0c <__swsetup_r+0x104>
80005f00:	00040593          	mv	a1,s0
80005f04:	00090513          	mv	a0,s2
80005f08:	458000ef          	jal	ra,80006360 <__smakebuf_r>
80005f0c:	00c41783          	lh	a5,12(s0)
80005f10:	0017f713          	andi	a4,a5,1
80005f14:	04070063          	beqz	a4,80005f54 <__swsetup_r+0x14c>
80005f18:	01442703          	lw	a4,20(s0)
80005f1c:	00042423          	sw	zero,8(s0)
80005f20:	40e00733          	neg	a4,a4
80005f24:	00e42c23          	sw	a4,24(s0)
80005f28:	01042703          	lw	a4,16(s0)
80005f2c:	00000513          	li	a0,0
80005f30:	00071663          	bnez	a4,80005f3c <__swsetup_r+0x134>
80005f34:	0807f713          	andi	a4,a5,128
80005f38:	f20718e3          	bnez	a4,80005e68 <__swsetup_r+0x60>
80005f3c:	00c12083          	lw	ra,12(sp)
80005f40:	00812403          	lw	s0,8(sp)
80005f44:	00412483          	lw	s1,4(sp)
80005f48:	00012903          	lw	s2,0(sp)
80005f4c:	01010113          	addi	sp,sp,16
80005f50:	00008067          	ret
80005f54:	0027f713          	andi	a4,a5,2
80005f58:	00000693          	li	a3,0
80005f5c:	00071463          	bnez	a4,80005f64 <__swsetup_r+0x15c>
80005f60:	01442683          	lw	a3,20(s0)
80005f64:	00d42423          	sw	a3,8(s0)
80005f68:	fc1ff06f          	j	80005f28 <__swsetup_r+0x120>

80005f6c <_close_r>:
80005f6c:	ff010113          	addi	sp,sp,-16
80005f70:	00812423          	sw	s0,8(sp)
80005f74:	00912223          	sw	s1,4(sp)
80005f78:	00050413          	mv	s0,a0
80005f7c:	800074b7          	lui	s1,0x80007
80005f80:	00058513          	mv	a0,a1
80005f84:	00112623          	sw	ra,12(sp)
80005f88:	e204aa23          	sw	zero,-460(s1) # 80006e34 <CONFIG_SYSTEM_WORKQUEUE_PRIORITY+0x80006e35>
80005f8c:	93cfc0ef          	jal	ra,800020c8 <_close>
80005f90:	fff00793          	li	a5,-1
80005f94:	00f51863          	bne	a0,a5,80005fa4 <_close_r+0x38>
80005f98:	e344a783          	lw	a5,-460(s1)
80005f9c:	00078463          	beqz	a5,80005fa4 <_close_r+0x38>
80005fa0:	00f42023          	sw	a5,0(s0)
80005fa4:	00c12083          	lw	ra,12(sp)
80005fa8:	00812403          	lw	s0,8(sp)
80005fac:	00412483          	lw	s1,4(sp)
80005fb0:	01010113          	addi	sp,sp,16
80005fb4:	00008067          	ret

80005fb8 <__sflush_r>:
80005fb8:	00c59783          	lh	a5,12(a1)
80005fbc:	fe010113          	addi	sp,sp,-32
80005fc0:	00812c23          	sw	s0,24(sp)
80005fc4:	00912a23          	sw	s1,20(sp)
80005fc8:	00112e23          	sw	ra,28(sp)
80005fcc:	01212823          	sw	s2,16(sp)
80005fd0:	01312623          	sw	s3,12(sp)
80005fd4:	0087f713          	andi	a4,a5,8
80005fd8:	00050493          	mv	s1,a0
80005fdc:	00058413          	mv	s0,a1
80005fe0:	14071063          	bnez	a4,80006120 <__sflush_r+0x168>
80005fe4:	0045a703          	lw	a4,4(a1)
80005fe8:	00e04663          	bgtz	a4,80005ff4 <__sflush_r+0x3c>
80005fec:	0405a703          	lw	a4,64(a1)
80005ff0:	0ee05263          	blez	a4,800060d4 <__sflush_r+0x11c>
80005ff4:	02c42703          	lw	a4,44(s0)
80005ff8:	0c070e63          	beqz	a4,800060d4 <__sflush_r+0x11c>
80005ffc:	00c7d793          	srli	a5,a5,0xc
80006000:	0004a903          	lw	s2,0(s1)
80006004:	0017f793          	andi	a5,a5,1
80006008:	0004a023          	sw	zero,0(s1)
8000600c:	02042583          	lw	a1,32(s0)
80006010:	08078663          	beqz	a5,8000609c <__sflush_r+0xe4>
80006014:	05442603          	lw	a2,84(s0)
80006018:	00c45783          	lhu	a5,12(s0)
8000601c:	0047f793          	andi	a5,a5,4
80006020:	00078e63          	beqz	a5,8000603c <__sflush_r+0x84>
80006024:	00442783          	lw	a5,4(s0)
80006028:	40f60633          	sub	a2,a2,a5
8000602c:	03442783          	lw	a5,52(s0)
80006030:	00078663          	beqz	a5,8000603c <__sflush_r+0x84>
80006034:	04042783          	lw	a5,64(s0)
80006038:	40f60633          	sub	a2,a2,a5
8000603c:	02c42783          	lw	a5,44(s0)
80006040:	02042583          	lw	a1,32(s0)
80006044:	00000693          	li	a3,0
80006048:	00048513          	mv	a0,s1
8000604c:	000780e7          	jalr	a5
80006050:	fff00793          	li	a5,-1
80006054:	08f50463          	beq	a0,a5,800060dc <__sflush_r+0x124>
80006058:	01042783          	lw	a5,16(s0)
8000605c:	00001737          	lui	a4,0x1
80006060:	00042223          	sw	zero,4(s0)
80006064:	00f42023          	sw	a5,0(s0)
80006068:	00c45783          	lhu	a5,12(s0)
8000606c:	00e7f7b3          	and	a5,a5,a4
80006070:	00078463          	beqz	a5,80006078 <__sflush_r+0xc0>
80006074:	04a42a23          	sw	a0,84(s0)
80006078:	03442583          	lw	a1,52(s0)
8000607c:	0124a023          	sw	s2,0(s1)
80006080:	04058a63          	beqz	a1,800060d4 <__sflush_r+0x11c>
80006084:	04440793          	addi	a5,s0,68
80006088:	00f58663          	beq	a1,a5,80006094 <__sflush_r+0xdc>
8000608c:	00048513          	mv	a0,s1
80006090:	985fe0ef          	jal	ra,80004a14 <_free_r>
80006094:	02042a23          	sw	zero,52(s0)
80006098:	03c0006f          	j	800060d4 <__sflush_r+0x11c>
8000609c:	00000613          	li	a2,0
800060a0:	00100693          	li	a3,1
800060a4:	00048513          	mv	a0,s1
800060a8:	000700e7          	jalr	a4 # 1000 <CONFIG_ISR_STACK_SIZE>
800060ac:	fff00793          	li	a5,-1
800060b0:	00050613          	mv	a2,a0
800060b4:	f6f512e3          	bne	a0,a5,80006018 <__sflush_r+0x60>
800060b8:	0004a783          	lw	a5,0(s1)
800060bc:	f4078ee3          	beqz	a5,80006018 <__sflush_r+0x60>
800060c0:	01d00713          	li	a4,29
800060c4:	00e78663          	beq	a5,a4,800060d0 <__sflush_r+0x118>
800060c8:	01600713          	li	a4,22
800060cc:	08e79e63          	bne	a5,a4,80006168 <__sflush_r+0x1b0>
800060d0:	0124a023          	sw	s2,0(s1)
800060d4:	00000513          	li	a0,0
800060d8:	0a00006f          	j	80006178 <__sflush_r+0x1c0>
800060dc:	0004a703          	lw	a4,0(s1)
800060e0:	00c41783          	lh	a5,12(s0)
800060e4:	02070263          	beqz	a4,80006108 <__sflush_r+0x150>
800060e8:	01d00693          	li	a3,29
800060ec:	00d70663          	beq	a4,a3,800060f8 <__sflush_r+0x140>
800060f0:	01600693          	li	a3,22
800060f4:	06d71c63          	bne	a4,a3,8000616c <__sflush_r+0x1b4>
800060f8:	01042783          	lw	a5,16(s0)
800060fc:	00042223          	sw	zero,4(s0)
80006100:	00f42023          	sw	a5,0(s0)
80006104:	f75ff06f          	j	80006078 <__sflush_r+0xc0>
80006108:	01042703          	lw	a4,16(s0)
8000610c:	00c7d793          	srli	a5,a5,0xc
80006110:	00042223          	sw	zero,4(s0)
80006114:	00e42023          	sw	a4,0(s0)
80006118:	0017f793          	andi	a5,a5,1
8000611c:	f55ff06f          	j	80006070 <__sflush_r+0xb8>
80006120:	0105a983          	lw	s3,16(a1)
80006124:	fa0988e3          	beqz	s3,800060d4 <__sflush_r+0x11c>
80006128:	0005a903          	lw	s2,0(a1)
8000612c:	0037f793          	andi	a5,a5,3
80006130:	0135a023          	sw	s3,0(a1)
80006134:	41390933          	sub	s2,s2,s3
80006138:	00000713          	li	a4,0
8000613c:	00079463          	bnez	a5,80006144 <__sflush_r+0x18c>
80006140:	0145a703          	lw	a4,20(a1)
80006144:	00e42423          	sw	a4,8(s0)
80006148:	f92056e3          	blez	s2,800060d4 <__sflush_r+0x11c>
8000614c:	02842783          	lw	a5,40(s0)
80006150:	02042583          	lw	a1,32(s0)
80006154:	00090693          	mv	a3,s2
80006158:	00098613          	mv	a2,s3
8000615c:	00048513          	mv	a0,s1
80006160:	000780e7          	jalr	a5
80006164:	02a04863          	bgtz	a0,80006194 <__sflush_r+0x1dc>
80006168:	00c41783          	lh	a5,12(s0)
8000616c:	0407e793          	ori	a5,a5,64
80006170:	00f41623          	sh	a5,12(s0)
80006174:	fff00513          	li	a0,-1
80006178:	01c12083          	lw	ra,28(sp)
8000617c:	01812403          	lw	s0,24(sp)
80006180:	01412483          	lw	s1,20(sp)
80006184:	01012903          	lw	s2,16(sp)
80006188:	00c12983          	lw	s3,12(sp)
8000618c:	02010113          	addi	sp,sp,32
80006190:	00008067          	ret
80006194:	00a989b3          	add	s3,s3,a0
80006198:	40a90933          	sub	s2,s2,a0
8000619c:	fadff06f          	j	80006148 <__sflush_r+0x190>

800061a0 <_fflush_r>:
800061a0:	0105a783          	lw	a5,16(a1)
800061a4:	ff010113          	addi	sp,sp,-16
800061a8:	00112623          	sw	ra,12(sp)
800061ac:	00812423          	sw	s0,8(sp)
800061b0:	00912223          	sw	s1,4(sp)
800061b4:	02079063          	bnez	a5,800061d4 <_fflush_r+0x34>
800061b8:	00000493          	li	s1,0
800061bc:	00c12083          	lw	ra,12(sp)
800061c0:	00812403          	lw	s0,8(sp)
800061c4:	00048513          	mv	a0,s1
800061c8:	00412483          	lw	s1,4(sp)
800061cc:	01010113          	addi	sp,sp,16
800061d0:	00008067          	ret
800061d4:	00050493          	mv	s1,a0
800061d8:	00058413          	mv	s0,a1
800061dc:	00050863          	beqz	a0,800061ec <_fflush_r+0x4c>
800061e0:	01852783          	lw	a5,24(a0)
800061e4:	00079463          	bnez	a5,800061ec <_fflush_r+0x4c>
800061e8:	c91fe0ef          	jal	ra,80004e78 <__sinit>
800061ec:	800077b7          	lui	a5,0x80007
800061f0:	d4078793          	addi	a5,a5,-704 # 80006d40 <CONFIG_SYSTEM_WORKQUEUE_PRIORITY+0x80006d41>
800061f4:	06f41063          	bne	s0,a5,80006254 <_fflush_r+0xb4>
800061f8:	0044a403          	lw	s0,4(s1)
800061fc:	00c41783          	lh	a5,12(s0)
80006200:	fa078ce3          	beqz	a5,800061b8 <_fflush_r+0x18>
80006204:	06442703          	lw	a4,100(s0)
80006208:	00177713          	andi	a4,a4,1
8000620c:	00071a63          	bnez	a4,80006220 <_fflush_r+0x80>
80006210:	2007f793          	andi	a5,a5,512
80006214:	00079663          	bnez	a5,80006220 <_fflush_r+0x80>
80006218:	05842503          	lw	a0,88(s0)
8000621c:	f55fb0ef          	jal	ra,80002170 <__retarget_lock_acquire_recursive>
80006220:	00048513          	mv	a0,s1
80006224:	00040593          	mv	a1,s0
80006228:	d91ff0ef          	jal	ra,80005fb8 <__sflush_r>
8000622c:	06442783          	lw	a5,100(s0)
80006230:	00050493          	mv	s1,a0
80006234:	0017f793          	andi	a5,a5,1
80006238:	f80792e3          	bnez	a5,800061bc <_fflush_r+0x1c>
8000623c:	00c45783          	lhu	a5,12(s0)
80006240:	2007f793          	andi	a5,a5,512
80006244:	f6079ce3          	bnez	a5,800061bc <_fflush_r+0x1c>
80006248:	05842503          	lw	a0,88(s0)
8000624c:	f49fb0ef          	jal	ra,80002194 <__retarget_lock_release_recursive>
80006250:	f6dff06f          	j	800061bc <_fflush_r+0x1c>
80006254:	800077b7          	lui	a5,0x80007
80006258:	d2078793          	addi	a5,a5,-736 # 80006d20 <CONFIG_SYSTEM_WORKQUEUE_PRIORITY+0x80006d21>
8000625c:	00f41663          	bne	s0,a5,80006268 <_fflush_r+0xc8>
80006260:	0084a403          	lw	s0,8(s1)
80006264:	f99ff06f          	j	800061fc <_fflush_r+0x5c>
80006268:	800077b7          	lui	a5,0x80007
8000626c:	d0078793          	addi	a5,a5,-768 # 80006d00 <CONFIG_SYSTEM_WORKQUEUE_PRIORITY+0x80006d01>
80006270:	f8f416e3          	bne	s0,a5,800061fc <_fflush_r+0x5c>
80006274:	00c4a403          	lw	s0,12(s1)
80006278:	f85ff06f          	j	800061fc <_fflush_r+0x5c>

8000627c <_lseek_r>:
8000627c:	ff010113          	addi	sp,sp,-16
80006280:	00812423          	sw	s0,8(sp)
80006284:	00912223          	sw	s1,4(sp)
80006288:	00050413          	mv	s0,a0
8000628c:	800074b7          	lui	s1,0x80007
80006290:	00058513          	mv	a0,a1
80006294:	00060593          	mv	a1,a2
80006298:	00068613          	mv	a2,a3
8000629c:	00112623          	sw	ra,12(sp)
800062a0:	e204aa23          	sw	zero,-460(s1) # 80006e34 <CONFIG_SYSTEM_WORKQUEUE_PRIORITY+0x80006e35>
800062a4:	e31fb0ef          	jal	ra,800020d4 <_lseek>
800062a8:	fff00793          	li	a5,-1
800062ac:	00f51863          	bne	a0,a5,800062bc <_lseek_r+0x40>
800062b0:	e344a783          	lw	a5,-460(s1)
800062b4:	00078463          	beqz	a5,800062bc <_lseek_r+0x40>
800062b8:	00f42023          	sw	a5,0(s0)
800062bc:	00c12083          	lw	ra,12(sp)
800062c0:	00812403          	lw	s0,8(sp)
800062c4:	00412483          	lw	s1,4(sp)
800062c8:	01010113          	addi	sp,sp,16
800062cc:	00008067          	ret

800062d0 <__swhatbuf_r>:
800062d0:	f9010113          	addi	sp,sp,-112
800062d4:	06812423          	sw	s0,104(sp)
800062d8:	00058413          	mv	s0,a1
800062dc:	00e59583          	lh	a1,14(a1)
800062e0:	06912223          	sw	s1,100(sp)
800062e4:	07212023          	sw	s2,96(sp)
800062e8:	06112623          	sw	ra,108(sp)
800062ec:	00060493          	mv	s1,a2
800062f0:	00068913          	mv	s2,a3
800062f4:	0205dc63          	bgez	a1,8000632c <__swhatbuf_r+0x5c>
800062f8:	00c45783          	lhu	a5,12(s0)
800062fc:	0807f793          	andi	a5,a5,128
80006300:	04079a63          	bnez	a5,80006354 <__swhatbuf_r+0x84>
80006304:	40000713          	li	a4,1024
80006308:	06c12083          	lw	ra,108(sp)
8000630c:	06812403          	lw	s0,104(sp)
80006310:	00f92023          	sw	a5,0(s2)
80006314:	00e4a023          	sw	a4,0(s1)
80006318:	06012903          	lw	s2,96(sp)
8000631c:	06412483          	lw	s1,100(sp)
80006320:	00000513          	li	a0,0
80006324:	07010113          	addi	sp,sp,112
80006328:	00008067          	ret
8000632c:	00810613          	addi	a2,sp,8
80006330:	1a0000ef          	jal	ra,800064d0 <_fstat_r>
80006334:	fc0542e3          	bltz	a0,800062f8 <__swhatbuf_r+0x28>
80006338:	00c12703          	lw	a4,12(sp)
8000633c:	0000f7b7          	lui	a5,0xf
80006340:	00e7f7b3          	and	a5,a5,a4
80006344:	ffffe737          	lui	a4,0xffffe
80006348:	00e787b3          	add	a5,a5,a4
8000634c:	0017b793          	seqz	a5,a5
80006350:	fb5ff06f          	j	80006304 <__swhatbuf_r+0x34>
80006354:	00000793          	li	a5,0
80006358:	04000713          	li	a4,64
8000635c:	fadff06f          	j	80006308 <__swhatbuf_r+0x38>

80006360 <__smakebuf_r>:
80006360:	00c5d783          	lhu	a5,12(a1)
80006364:	fd010113          	addi	sp,sp,-48
80006368:	02812423          	sw	s0,40(sp)
8000636c:	02112623          	sw	ra,44(sp)
80006370:	02912223          	sw	s1,36(sp)
80006374:	03212023          	sw	s2,32(sp)
80006378:	01312e23          	sw	s3,28(sp)
8000637c:	0027f793          	andi	a5,a5,2
80006380:	00058413          	mv	s0,a1
80006384:	02078a63          	beqz	a5,800063b8 <__smakebuf_r+0x58>
80006388:	04740793          	addi	a5,s0,71
8000638c:	00f42023          	sw	a5,0(s0)
80006390:	00f42823          	sw	a5,16(s0)
80006394:	00100793          	li	a5,1
80006398:	00f42a23          	sw	a5,20(s0)
8000639c:	02c12083          	lw	ra,44(sp)
800063a0:	02812403          	lw	s0,40(sp)
800063a4:	02412483          	lw	s1,36(sp)
800063a8:	02012903          	lw	s2,32(sp)
800063ac:	01c12983          	lw	s3,28(sp)
800063b0:	03010113          	addi	sp,sp,48
800063b4:	00008067          	ret
800063b8:	00c10693          	addi	a3,sp,12
800063bc:	00810613          	addi	a2,sp,8
800063c0:	00050493          	mv	s1,a0
800063c4:	f0dff0ef          	jal	ra,800062d0 <__swhatbuf_r>
800063c8:	00812983          	lw	s3,8(sp)
800063cc:	00050913          	mv	s2,a0
800063d0:	00048513          	mv	a0,s1
800063d4:	00098593          	mv	a1,s3
800063d8:	f38fe0ef          	jal	ra,80004b10 <_malloc_r>
800063dc:	02051063          	bnez	a0,800063fc <__smakebuf_r+0x9c>
800063e0:	00c41783          	lh	a5,12(s0)
800063e4:	2007f713          	andi	a4,a5,512
800063e8:	fa071ae3          	bnez	a4,8000639c <__smakebuf_r+0x3c>
800063ec:	ffc7f793          	andi	a5,a5,-4
800063f0:	0027e793          	ori	a5,a5,2
800063f4:	00f41623          	sh	a5,12(s0)
800063f8:	f91ff06f          	j	80006388 <__smakebuf_r+0x28>
800063fc:	800057b7          	lui	a5,0x80005
80006400:	de078793          	addi	a5,a5,-544 # 80004de0 <CONFIG_SYSTEM_WORKQUEUE_PRIORITY+0x80004de1>
80006404:	02f4a423          	sw	a5,40(s1)
80006408:	00c45783          	lhu	a5,12(s0)
8000640c:	00a42023          	sw	a0,0(s0)
80006410:	00a42823          	sw	a0,16(s0)
80006414:	0807e793          	ori	a5,a5,128
80006418:	00f41623          	sh	a5,12(s0)
8000641c:	00c12783          	lw	a5,12(sp)
80006420:	01342a23          	sw	s3,20(s0)
80006424:	02078263          	beqz	a5,80006448 <__smakebuf_r+0xe8>
80006428:	00e41583          	lh	a1,14(s0)
8000642c:	00048513          	mv	a0,s1
80006430:	0f0000ef          	jal	ra,80006520 <_isatty_r>
80006434:	00050a63          	beqz	a0,80006448 <__smakebuf_r+0xe8>
80006438:	00c45783          	lhu	a5,12(s0)
8000643c:	ffc7f793          	andi	a5,a5,-4
80006440:	0017e793          	ori	a5,a5,1
80006444:	00f41623          	sh	a5,12(s0)
80006448:	00c45783          	lhu	a5,12(s0)
8000644c:	0127e533          	or	a0,a5,s2
80006450:	00a41623          	sh	a0,12(s0)
80006454:	f49ff06f          	j	8000639c <__smakebuf_r+0x3c>

80006458 <memchr>:
80006458:	0ff5f593          	zext.b	a1,a1
8000645c:	00c50633          	add	a2,a0,a2
80006460:	00c51663          	bne	a0,a2,8000646c <memchr+0x14>
80006464:	00000513          	li	a0,0
80006468:	00008067          	ret
8000646c:	00054783          	lbu	a5,0(a0)
80006470:	feb78ce3          	beq	a5,a1,80006468 <memchr+0x10>
80006474:	00150513          	addi	a0,a0,1
80006478:	fe9ff06f          	j	80006460 <memchr+0x8>

8000647c <_read_r>:
8000647c:	ff010113          	addi	sp,sp,-16
80006480:	00812423          	sw	s0,8(sp)
80006484:	00912223          	sw	s1,4(sp)
80006488:	00050413          	mv	s0,a0
8000648c:	800074b7          	lui	s1,0x80007
80006490:	00058513          	mv	a0,a1
80006494:	00060593          	mv	a1,a2
80006498:	00068613          	mv	a2,a3
8000649c:	00112623          	sw	ra,12(sp)
800064a0:	e204aa23          	sw	zero,-460(s1) # 80006e34 <CONFIG_SYSTEM_WORKQUEUE_PRIORITY+0x80006e35>
800064a4:	bddfb0ef          	jal	ra,80002080 <_read>
800064a8:	fff00793          	li	a5,-1
800064ac:	00f51863          	bne	a0,a5,800064bc <_read_r+0x40>
800064b0:	e344a783          	lw	a5,-460(s1)
800064b4:	00078463          	beqz	a5,800064bc <_read_r+0x40>
800064b8:	00f42023          	sw	a5,0(s0)
800064bc:	00c12083          	lw	ra,12(sp)
800064c0:	00812403          	lw	s0,8(sp)
800064c4:	00412483          	lw	s1,4(sp)
800064c8:	01010113          	addi	sp,sp,16
800064cc:	00008067          	ret

800064d0 <_fstat_r>:
800064d0:	ff010113          	addi	sp,sp,-16
800064d4:	00812423          	sw	s0,8(sp)
800064d8:	00912223          	sw	s1,4(sp)
800064dc:	00050413          	mv	s0,a0
800064e0:	800074b7          	lui	s1,0x80007
800064e4:	00058513          	mv	a0,a1
800064e8:	00060593          	mv	a1,a2
800064ec:	00112623          	sw	ra,12(sp)
800064f0:	e204aa23          	sw	zero,-460(s1) # 80006e34 <CONFIG_SYSTEM_WORKQUEUE_PRIORITY+0x80006e35>
800064f4:	bf9fb0ef          	jal	ra,800020ec <_fstat>
800064f8:	fff00793          	li	a5,-1
800064fc:	00f51863          	bne	a0,a5,8000650c <_fstat_r+0x3c>
80006500:	e344a783          	lw	a5,-460(s1)
80006504:	00078463          	beqz	a5,8000650c <_fstat_r+0x3c>
80006508:	00f42023          	sw	a5,0(s0)
8000650c:	00c12083          	lw	ra,12(sp)
80006510:	00812403          	lw	s0,8(sp)
80006514:	00412483          	lw	s1,4(sp)
80006518:	01010113          	addi	sp,sp,16
8000651c:	00008067          	ret

80006520 <_isatty_r>:
80006520:	ff010113          	addi	sp,sp,-16
80006524:	00812423          	sw	s0,8(sp)
80006528:	00912223          	sw	s1,4(sp)
8000652c:	00050413          	mv	s0,a0
80006530:	800074b7          	lui	s1,0x80007
80006534:	00058513          	mv	a0,a1
80006538:	00112623          	sw	ra,12(sp)
8000653c:	e204aa23          	sw	zero,-460(s1) # 80006e34 <CONFIG_SYSTEM_WORKQUEUE_PRIORITY+0x80006e35>
80006540:	ba1fb0ef          	jal	ra,800020e0 <_isatty>
80006544:	fff00793          	li	a5,-1
80006548:	00f51863          	bne	a0,a5,80006558 <_isatty_r+0x38>
8000654c:	e344a783          	lw	a5,-460(s1)
80006550:	00078463          	beqz	a5,80006558 <_isatty_r+0x38>
80006554:	00f42023          	sw	a5,0(s0)
80006558:	00c12083          	lw	ra,12(sp)
8000655c:	00812403          	lw	s0,8(sp)
80006560:	00412483          	lw	s1,4(sp)
80006564:	01010113          	addi	sp,sp,16
80006568:	00008067          	ret
